   1              		.file	"testHexIO.cpp"
   2              		.section	.text._ZN28TestHexIO_testDeriveWriteMapD2Ev,"axG",@progbits,_ZN28TestHexIO_testDeriveWrit
   3              		.align 2
   4              		.p2align 4,,15
   5              		.weak	_ZN28TestHexIO_testDeriveWriteMapD2Ev
   7              	_ZN28TestHexIO_testDeriveWriteMapD2Ev:
   8              	.LFB1427:
   9              		.cfi_startproc
  10 0000 488D0500 		leaq	16+_ZTV28TestHexIO_testDeriveWriteMap(%rip), %rax
  10      000000
  11 0007 488907   		movq	%rax, (%rdi)
  12 000a E9000000 		jmp	_ZN8UnitTest4TestD2Ev@PLT
  12      00
  13              		.cfi_endproc
  14              	.LFE1427:
  16              		.weak	_ZN28TestHexIO_testDeriveWriteMapD1Ev
  17              		.set	_ZN28TestHexIO_testDeriveWriteMapD1Ev,_ZN28TestHexIO_testDeriveWriteMapD2Ev
  18              		.section	.text._ZN28TestHexIO_testDeriveWriteMapD0Ev,"axG",@progbits,_ZN28TestHexIO_testDeriveWrit
  19              		.align 2
  20              		.p2align 4,,15
  21              		.weak	_ZN28TestHexIO_testDeriveWriteMapD0Ev
  23              	_ZN28TestHexIO_testDeriveWriteMapD0Ev:
  24              	.LFB1429:
  25              		.cfi_startproc
  26              		.cfi_personality 0x9b,DW.ref.__gxx_personality_v0
  27              		.cfi_lsda 0x1b,.LLSDA1429
  28 0000 55       		pushq	%rbp
  29              		.cfi_def_cfa_offset 16
  30              		.cfi_offset 6, -16
  31 0001 488D0500 		leaq	16+_ZTV28TestHexIO_testDeriveWriteMap(%rip), %rax
  31      000000
  32 0008 53       		pushq	%rbx
  33              		.cfi_def_cfa_offset 24
  34              		.cfi_offset 3, -24
  35 0009 4889FB   		movq	%rdi, %rbx
  36 000c 4883EC08 		subq	$8, %rsp
  37              		.cfi_def_cfa_offset 32
  38 0010 488907   		movq	%rax, (%rdi)
  39              	.LEHB0:
  40 0013 E8000000 		call	_ZN8UnitTest4TestD2Ev@PLT
  40      00
  41              	.LEHE0:
  42 0018 4883C408 		addq	$8, %rsp
  43              		.cfi_remember_state
  44              		.cfi_def_cfa_offset 24
  45 001c 4889DF   		movq	%rbx, %rdi
  46 001f 5B       		popq	%rbx
  47              		.cfi_def_cfa_offset 16
  48 0020 5D       		popq	%rbp
  49              		.cfi_def_cfa_offset 8
  50 0021 E9000000 		jmp	_ZdlPv@PLT
  50      00
  51              	.L5:
  52              		.cfi_restore_state
  53 0026 4889C5   		movq	%rax, %rbp
  54 0029 4889DF   		movq	%rbx, %rdi
  55 002c E8000000 		call	_ZdlPv@PLT
  55      00
  56 0031 4889EF   		movq	%rbp, %rdi
  57              	.LEHB1:
  58 0034 E8000000 		call	_Unwind_Resume@PLT
  58      00
  59              	.LEHE1:
  60              		.cfi_endproc
  61              	.LFE1429:
  62              		.globl	__gxx_personality_v0
  63              		.section	.gcc_except_table._ZN28TestHexIO_testDeriveWriteMapD0Ev,"aG",@progbits,_ZN28TestHexIO_tes
  64              	.LLSDA1429:
  65 0000 FF       		.byte	0xff
  66 0001 FF       		.byte	0xff
  67 0002 01       		.byte	0x1
  68 0003 08       		.uleb128 .LLSDACSE1429-.LLSDACSB1429
  69              	.LLSDACSB1429:
  70 0004 13       		.uleb128 .LEHB0-.LFB1429
  71 0005 05       		.uleb128 .LEHE0-.LEHB0
  72 0006 26       		.uleb128 .L5-.LFB1429
  73 0007 00       		.uleb128 0
  74 0008 34       		.uleb128 .LEHB1-.LFB1429
  75 0009 05       		.uleb128 .LEHE1-.LEHB1
  76 000a 00       		.uleb128 0
  77 000b 00       		.uleb128 0
  78              	.LLSDACSE1429:
  79              		.section	.text._ZN28TestHexIO_testDeriveWriteMapD0Ev,"axG",@progbits,_ZN28TestHexIO_testDeriveWrit
  81              		.section	.text._ZN23TestHexIO_testRoundTripD2Ev,"axG",@progbits,_ZN23TestHexIO_testRoundTripD5Ev,c
  82              		.align 2
  83              		.p2align 4,,15
  84              		.weak	_ZN23TestHexIO_testRoundTripD2Ev
  86              	_ZN23TestHexIO_testRoundTripD2Ev:
  87              	.LFB1431:
  88              		.cfi_startproc
  89 0000 488D0500 		leaq	16+_ZTV23TestHexIO_testRoundTrip(%rip), %rax
  89      000000
  90 0007 488907   		movq	%rax, (%rdi)
  91 000a E9000000 		jmp	_ZN8UnitTest4TestD2Ev@PLT
  91      00
  92              		.cfi_endproc
  93              	.LFE1431:
  95              		.weak	_ZN23TestHexIO_testRoundTripD1Ev
  96              		.set	_ZN23TestHexIO_testRoundTripD1Ev,_ZN23TestHexIO_testRoundTripD2Ev
  97              		.section	.text._ZN23TestHexIO_testRoundTripD0Ev,"axG",@progbits,_ZN23TestHexIO_testRoundTripD5Ev,c
  98              		.align 2
  99              		.p2align 4,,15
 100              		.weak	_ZN23TestHexIO_testRoundTripD0Ev
 102              	_ZN23TestHexIO_testRoundTripD0Ev:
 103              	.LFB1433:
 104              		.cfi_startproc
 105              		.cfi_personality 0x9b,DW.ref.__gxx_personality_v0
 106              		.cfi_lsda 0x1b,.LLSDA1433
 107 0000 55       		pushq	%rbp
 108              		.cfi_def_cfa_offset 16
 109              		.cfi_offset 6, -16
 110 0001 488D0500 		leaq	16+_ZTV23TestHexIO_testRoundTrip(%rip), %rax
 110      000000
 111 0008 53       		pushq	%rbx
 112              		.cfi_def_cfa_offset 24
 113              		.cfi_offset 3, -24
 114 0009 4889FB   		movq	%rdi, %rbx
 115 000c 4883EC08 		subq	$8, %rsp
 116              		.cfi_def_cfa_offset 32
 117 0010 488907   		movq	%rax, (%rdi)
 118              	.LEHB2:
 119 0013 E8000000 		call	_ZN8UnitTest4TestD2Ev@PLT
 119      00
 120              	.LEHE2:
 121 0018 4883C408 		addq	$8, %rsp
 122              		.cfi_remember_state
 123              		.cfi_def_cfa_offset 24
 124 001c 4889DF   		movq	%rbx, %rdi
 125 001f 5B       		popq	%rbx
 126              		.cfi_def_cfa_offset 16
 127 0020 5D       		popq	%rbp
 128              		.cfi_def_cfa_offset 8
 129 0021 E9000000 		jmp	_ZdlPv@PLT
 129      00
 130              	.L10:
 131              		.cfi_restore_state
 132 0026 4889C5   		movq	%rax, %rbp
 133 0029 4889DF   		movq	%rbx, %rdi
 134 002c E8000000 		call	_ZdlPv@PLT
 134      00
 135 0031 4889EF   		movq	%rbp, %rdi
 136              	.LEHB3:
 137 0034 E8000000 		call	_Unwind_Resume@PLT
 137      00
 138              	.LEHE3:
 139              		.cfi_endproc
 140              	.LFE1433:
 141              		.section	.gcc_except_table._ZN23TestHexIO_testRoundTripD0Ev,"aG",@progbits,_ZN23TestHexIO_testRoun
 142              	.LLSDA1433:
 143 0000 FF       		.byte	0xff
 144 0001 FF       		.byte	0xff
 145 0002 01       		.byte	0x1
 146 0003 08       		.uleb128 .LLSDACSE1433-.LLSDACSB1433
 147              	.LLSDACSB1433:
 148 0004 13       		.uleb128 .LEHB2-.LFB1433
 149 0005 05       		.uleb128 .LEHE2-.LEHB2
 150 0006 26       		.uleb128 .L10-.LFB1433
 151 0007 00       		.uleb128 0
 152 0008 34       		.uleb128 .LEHB3-.LFB1433
 153 0009 05       		.uleb128 .LEHE3-.LEHB3
 154 000a 00       		.uleb128 0
 155 000b 00       		.uleb128 0
 156              	.LLSDACSE1433:
 157              		.section	.text._ZN23TestHexIO_testRoundTripD0Ev,"axG",@progbits,_ZN23TestHexIO_testRoundTripD5Ev,c
 159              		.section	.text._ZN25TestHexIO_testCorruptLineD2Ev,"axG",@progbits,_ZN25TestHexIO_testCorruptLineD5
 160              		.align 2
 161              		.p2align 4,,15
 162              		.weak	_ZN25TestHexIO_testCorruptLineD2Ev
 164              	_ZN25TestHexIO_testCorruptLineD2Ev:
 165              	.LFB1435:
 166              		.cfi_startproc
 167 0000 488D0500 		leaq	16+_ZTV25TestHexIO_testCorruptLine(%rip), %rax
 167      000000
 168 0007 488907   		movq	%rax, (%rdi)
 169 000a E9000000 		jmp	_ZN8UnitTest4TestD2Ev@PLT
 169      00
 170              		.cfi_endproc
 171              	.LFE1435:
 173              		.weak	_ZN25TestHexIO_testCorruptLineD1Ev
 174              		.set	_ZN25TestHexIO_testCorruptLineD1Ev,_ZN25TestHexIO_testCorruptLineD2Ev
 175              		.section	.text._ZN25TestHexIO_testCorruptLineD0Ev,"axG",@progbits,_ZN25TestHexIO_testCorruptLineD5
 176              		.align 2
 177              		.p2align 4,,15
 178              		.weak	_ZN25TestHexIO_testCorruptLineD0Ev
 180              	_ZN25TestHexIO_testCorruptLineD0Ev:
 181              	.LFB1437:
 182              		.cfi_startproc
 183              		.cfi_personality 0x9b,DW.ref.__gxx_personality_v0
 184              		.cfi_lsda 0x1b,.LLSDA1437
 185 0000 55       		pushq	%rbp
 186              		.cfi_def_cfa_offset 16
 187              		.cfi_offset 6, -16
 188 0001 488D0500 		leaq	16+_ZTV25TestHexIO_testCorruptLine(%rip), %rax
 188      000000
 189 0008 53       		pushq	%rbx
 190              		.cfi_def_cfa_offset 24
 191              		.cfi_offset 3, -24
 192 0009 4889FB   		movq	%rdi, %rbx
 193 000c 4883EC08 		subq	$8, %rsp
 194              		.cfi_def_cfa_offset 32
 195 0010 488907   		movq	%rax, (%rdi)
 196              	.LEHB4:
 197 0013 E8000000 		call	_ZN8UnitTest4TestD2Ev@PLT
 197      00
 198              	.LEHE4:
 199 0018 4883C408 		addq	$8, %rsp
 200              		.cfi_remember_state
 201              		.cfi_def_cfa_offset 24
 202 001c 4889DF   		movq	%rbx, %rdi
 203 001f 5B       		popq	%rbx
 204              		.cfi_def_cfa_offset 16
 205 0020 5D       		popq	%rbp
 206              		.cfi_def_cfa_offset 8
 207 0021 E9000000 		jmp	_ZdlPv@PLT
 207      00
 208              	.L15:
 209              		.cfi_restore_state
 210 0026 4889C5   		movq	%rax, %rbp
 211 0029 4889DF   		movq	%rbx, %rdi
 212 002c E8000000 		call	_ZdlPv@PLT
 212      00
 213 0031 4889EF   		movq	%rbp, %rdi
 214              	.LEHB5:
 215 0034 E8000000 		call	_Unwind_Resume@PLT
 215      00
 216              	.LEHE5:
 217              		.cfi_endproc
 218              	.LFE1437:
 219              		.section	.gcc_except_table._ZN25TestHexIO_testCorruptLineD0Ev,"aG",@progbits,_ZN25TestHexIO_testCo
 220              	.LLSDA1437:
 221 0000 FF       		.byte	0xff
 222 0001 FF       		.byte	0xff
 223 0002 01       		.byte	0x1
 224 0003 08       		.uleb128 .LLSDACSE1437-.LLSDACSB1437
 225              	.LLSDACSB1437:
 226 0004 13       		.uleb128 .LEHB4-.LFB1437
 227 0005 05       		.uleb128 .LEHE4-.LEHB4
 228 0006 26       		.uleb128 .L15-.LFB1437
 229 0007 00       		.uleb128 0
 230 0008 34       		.uleb128 .LEHB5-.LFB1437
 231 0009 05       		.uleb128 .LEHE5-.LEHB5
 232 000a 00       		.uleb128 0
 233 000b 00       		.uleb128 0
 234              	.LLSDACSE1437:
 235              		.section	.text._ZN25TestHexIO_testCorruptLineD0Ev,"axG",@progbits,_ZN25TestHexIO_testCorruptLineD5
 237              		.section	.text._ZN25TestHexIO_testBadChecksumD2Ev,"axG",@progbits,_ZN25TestHexIO_testBadChecksumD5
 238              		.align 2
 239              		.p2align 4,,15
 240              		.weak	_ZN25TestHexIO_testBadChecksumD2Ev
 242              	_ZN25TestHexIO_testBadChecksumD2Ev:
 243              	.LFB1439:
 244              		.cfi_startproc
 245 0000 488D0500 		leaq	16+_ZTV25TestHexIO_testBadChecksum(%rip), %rax
 245      000000
 246 0007 488907   		movq	%rax, (%rdi)
 247 000a E9000000 		jmp	_ZN8UnitTest4TestD2Ev@PLT
 247      00
 248              		.cfi_endproc
 249              	.LFE1439:
 251              		.weak	_ZN25TestHexIO_testBadChecksumD1Ev
 252              		.set	_ZN25TestHexIO_testBadChecksumD1Ev,_ZN25TestHexIO_testBadChecksumD2Ev
 253              		.section	.text._ZN25TestHexIO_testBadChecksumD0Ev,"axG",@progbits,_ZN25TestHexIO_testBadChecksumD5
 254              		.align 2
 255              		.p2align 4,,15
 256              		.weak	_ZN25TestHexIO_testBadChecksumD0Ev
 258              	_ZN25TestHexIO_testBadChecksumD0Ev:
 259              	.LFB1441:
 260              		.cfi_startproc
 261              		.cfi_personality 0x9b,DW.ref.__gxx_personality_v0
 262              		.cfi_lsda 0x1b,.LLSDA1441
 263 0000 55       		pushq	%rbp
 264              		.cfi_def_cfa_offset 16
 265              		.cfi_offset 6, -16
 266 0001 488D0500 		leaq	16+_ZTV25TestHexIO_testBadChecksum(%rip), %rax
 266      000000
 267 0008 53       		pushq	%rbx
 268              		.cfi_def_cfa_offset 24
 269              		.cfi_offset 3, -24
 270 0009 4889FB   		movq	%rdi, %rbx
 271 000c 4883EC08 		subq	$8, %rsp
 272              		.cfi_def_cfa_offset 32
 273 0010 488907   		movq	%rax, (%rdi)
 274              	.LEHB6:
 275 0013 E8000000 		call	_ZN8UnitTest4TestD2Ev@PLT
 275      00
 276              	.LEHE6:
 277 0018 4883C408 		addq	$8, %rsp
 278              		.cfi_remember_state
 279              		.cfi_def_cfa_offset 24
 280 001c 4889DF   		movq	%rbx, %rdi
 281 001f 5B       		popq	%rbx
 282              		.cfi_def_cfa_offset 16
 283 0020 5D       		popq	%rbp
 284              		.cfi_def_cfa_offset 8
 285 0021 E9000000 		jmp	_ZdlPv@PLT
 285      00
 286              	.L20:
 287              		.cfi_restore_state
 288 0026 4889C5   		movq	%rax, %rbp
 289 0029 4889DF   		movq	%rbx, %rdi
 290 002c E8000000 		call	_ZdlPv@PLT
 290      00
 291 0031 4889EF   		movq	%rbp, %rdi
 292              	.LEHB7:
 293 0034 E8000000 		call	_Unwind_Resume@PLT
 293      00
 294              	.LEHE7:
 295              		.cfi_endproc
 296              	.LFE1441:
 297              		.section	.gcc_except_table._ZN25TestHexIO_testBadChecksumD0Ev,"aG",@progbits,_ZN25TestHexIO_testBa
 298              	.LLSDA1441:
 299 0000 FF       		.byte	0xff
 300 0001 FF       		.byte	0xff
 301 0002 01       		.byte	0x1
 302 0003 08       		.uleb128 .LLSDACSE1441-.LLSDACSB1441
 303              	.LLSDACSB1441:
 304 0004 13       		.uleb128 .LEHB6-.LFB1441
 305 0005 05       		.uleb128 .LEHE6-.LEHB6
 306 0006 26       		.uleb128 .L20-.LFB1441
 307 0007 00       		.uleb128 0
 308 0008 34       		.uleb128 .LEHB7-.LFB1441
 309 0009 05       		.uleb128 .LEHE7-.LEHB7
 310 000a 00       		.uleb128 0
 311 000b 00       		.uleb128 0
 312              	.LLSDACSE1441:
 313              		.section	.text._ZN25TestHexIO_testBadChecksumD0Ev,"axG",@progbits,_ZN25TestHexIO_testBadChecksumD5
 315              		.section	.text._ZN26TestHexIO_testJunkChecksumD2Ev,"axG",@progbits,_ZN26TestHexIO_testJunkChecksum
 316              		.align 2
 317              		.p2align 4,,15
 318              		.weak	_ZN26TestHexIO_testJunkChecksumD2Ev
 320              	_ZN26TestHexIO_testJunkChecksumD2Ev:
 321              	.LFB1443:
 322              		.cfi_startproc
 323 0000 488D0500 		leaq	16+_ZTV26TestHexIO_testJunkChecksum(%rip), %rax
 323      000000
 324 0007 488907   		movq	%rax, (%rdi)
 325 000a E9000000 		jmp	_ZN8UnitTest4TestD2Ev@PLT
 325      00
 326              		.cfi_endproc
 327              	.LFE1443:
 329              		.weak	_ZN26TestHexIO_testJunkChecksumD1Ev
 330              		.set	_ZN26TestHexIO_testJunkChecksumD1Ev,_ZN26TestHexIO_testJunkChecksumD2Ev
 331              		.section	.text._ZN26TestHexIO_testJunkChecksumD0Ev,"axG",@progbits,_ZN26TestHexIO_testJunkChecksum
 332              		.align 2
 333              		.p2align 4,,15
 334              		.weak	_ZN26TestHexIO_testJunkChecksumD0Ev
 336              	_ZN26TestHexIO_testJunkChecksumD0Ev:
 337              	.LFB1445:
 338              		.cfi_startproc
 339              		.cfi_personality 0x9b,DW.ref.__gxx_personality_v0
 340              		.cfi_lsda 0x1b,.LLSDA1445
 341 0000 55       		pushq	%rbp
 342              		.cfi_def_cfa_offset 16
 343              		.cfi_offset 6, -16
 344 0001 488D0500 		leaq	16+_ZTV26TestHexIO_testJunkChecksum(%rip), %rax
 344      000000
 345 0008 53       		pushq	%rbx
 346              		.cfi_def_cfa_offset 24
 347              		.cfi_offset 3, -24
 348 0009 4889FB   		movq	%rdi, %rbx
 349 000c 4883EC08 		subq	$8, %rsp
 350              		.cfi_def_cfa_offset 32
 351 0010 488907   		movq	%rax, (%rdi)
 352              	.LEHB8:
 353 0013 E8000000 		call	_ZN8UnitTest4TestD2Ev@PLT
 353      00
 354              	.LEHE8:
 355 0018 4883C408 		addq	$8, %rsp
 356              		.cfi_remember_state
 357              		.cfi_def_cfa_offset 24
 358 001c 4889DF   		movq	%rbx, %rdi
 359 001f 5B       		popq	%rbx
 360              		.cfi_def_cfa_offset 16
 361 0020 5D       		popq	%rbp
 362              		.cfi_def_cfa_offset 8
 363 0021 E9000000 		jmp	_ZdlPv@PLT
 363      00
 364              	.L25:
 365              		.cfi_restore_state
 366 0026 4889C5   		movq	%rax, %rbp
 367 0029 4889DF   		movq	%rbx, %rdi
 368 002c E8000000 		call	_ZdlPv@PLT
 368      00
 369 0031 4889EF   		movq	%rbp, %rdi
 370              	.LEHB9:
 371 0034 E8000000 		call	_Unwind_Resume@PLT
 371      00
 372              	.LEHE9:
 373              		.cfi_endproc
 374              	.LFE1445:
 375              		.section	.gcc_except_table._ZN26TestHexIO_testJunkChecksumD0Ev,"aG",@progbits,_ZN26TestHexIO_testJ
 376              	.LLSDA1445:
 377 0000 FF       		.byte	0xff
 378 0001 FF       		.byte	0xff
 379 0002 01       		.byte	0x1
 380 0003 08       		.uleb128 .LLSDACSE1445-.LLSDACSB1445
 381              	.LLSDACSB1445:
 382 0004 13       		.uleb128 .LEHB8-.LFB1445
 383 0005 05       		.uleb128 .LEHE8-.LEHB8
 384 0006 26       		.uleb128 .L25-.LFB1445
 385 0007 00       		.uleb128 0
 386 0008 34       		.uleb128 .LEHB9-.LFB1445
 387 0009 05       		.uleb128 .LEHE9-.LEHB9
 388 000a 00       		.uleb128 0
 389 000b 00       		.uleb128 0
 390              	.LLSDACSE1445:
 391              		.section	.text._ZN26TestHexIO_testJunkChecksumD0Ev,"axG",@progbits,_ZN26TestHexIO_testJunkChecksum
 393              		.section	.text._ZN26TestHexIO_testJunkDataByteD2Ev,"axG",@progbits,_ZN26TestHexIO_testJunkDataByte
 394              		.align 2
 395              		.p2align 4,,15
 396              		.weak	_ZN26TestHexIO_testJunkDataByteD2Ev
 398              	_ZN26TestHexIO_testJunkDataByteD2Ev:
 399              	.LFB1447:
 400              		.cfi_startproc
 401 0000 488D0500 		leaq	16+_ZTV26TestHexIO_testJunkDataByte(%rip), %rax
 401      000000
 402 0007 488907   		movq	%rax, (%rdi)
 403 000a E9000000 		jmp	_ZN8UnitTest4TestD2Ev@PLT
 403      00
 404              		.cfi_endproc
 405              	.LFE1447:
 407              		.weak	_ZN26TestHexIO_testJunkDataByteD1Ev
 408              		.set	_ZN26TestHexIO_testJunkDataByteD1Ev,_ZN26TestHexIO_testJunkDataByteD2Ev
 409              		.section	.text._ZN26TestHexIO_testJunkDataByteD0Ev,"axG",@progbits,_ZN26TestHexIO_testJunkDataByte
 410              		.align 2
 411              		.p2align 4,,15
 412              		.weak	_ZN26TestHexIO_testJunkDataByteD0Ev
 414              	_ZN26TestHexIO_testJunkDataByteD0Ev:
 415              	.LFB1449:
 416              		.cfi_startproc
 417              		.cfi_personality 0x9b,DW.ref.__gxx_personality_v0
 418              		.cfi_lsda 0x1b,.LLSDA1449
 419 0000 55       		pushq	%rbp
 420              		.cfi_def_cfa_offset 16
 421              		.cfi_offset 6, -16
 422 0001 488D0500 		leaq	16+_ZTV26TestHexIO_testJunkDataByte(%rip), %rax
 422      000000
 423 0008 53       		pushq	%rbx
 424              		.cfi_def_cfa_offset 24
 425              		.cfi_offset 3, -24
 426 0009 4889FB   		movq	%rdi, %rbx
 427 000c 4883EC08 		subq	$8, %rsp
 428              		.cfi_def_cfa_offset 32
 429 0010 488907   		movq	%rax, (%rdi)
 430              	.LEHB10:
 431 0013 E8000000 		call	_ZN8UnitTest4TestD2Ev@PLT
 431      00
 432              	.LEHE10:
 433 0018 4883C408 		addq	$8, %rsp
 434              		.cfi_remember_state
 435              		.cfi_def_cfa_offset 24
 436 001c 4889DF   		movq	%rbx, %rdi
 437 001f 5B       		popq	%rbx
 438              		.cfi_def_cfa_offset 16
 439 0020 5D       		popq	%rbp
 440              		.cfi_def_cfa_offset 8
 441 0021 E9000000 		jmp	_ZdlPv@PLT
 441      00
 442              	.L30:
 443              		.cfi_restore_state
 444 0026 4889C5   		movq	%rax, %rbp
 445 0029 4889DF   		movq	%rbx, %rdi
 446 002c E8000000 		call	_ZdlPv@PLT
 446      00
 447 0031 4889EF   		movq	%rbp, %rdi
 448              	.LEHB11:
 449 0034 E8000000 		call	_Unwind_Resume@PLT
 449      00
 450              	.LEHE11:
 451              		.cfi_endproc
 452              	.LFE1449:
 453              		.section	.gcc_except_table._ZN26TestHexIO_testJunkDataByteD0Ev,"aG",@progbits,_ZN26TestHexIO_testJ
 454              	.LLSDA1449:
 455 0000 FF       		.byte	0xff
 456 0001 FF       		.byte	0xff
 457 0002 01       		.byte	0x1
 458 0003 08       		.uleb128 .LLSDACSE1449-.LLSDACSB1449
 459              	.LLSDACSB1449:
 460 0004 13       		.uleb128 .LEHB10-.LFB1449
 461 0005 05       		.uleb128 .LEHE10-.LEHB10
 462 0006 26       		.uleb128 .L30-.LFB1449
 463 0007 00       		.uleb128 0
 464 0008 34       		.uleb128 .LEHB11-.LFB1449
 465 0009 05       		.uleb128 .LEHE11-.LEHB11
 466 000a 00       		.uleb128 0
 467 000b 00       		.uleb128 0
 468              	.LLSDACSE1449:
 469              		.section	.text._ZN26TestHexIO_testJunkDataByteD0Ev,"axG",@progbits,_ZN26TestHexIO_testJunkDataByte
 471              		.section	.text._ZN25TestHexIO_testJunkRecTypeD2Ev,"axG",@progbits,_ZN25TestHexIO_testJunkRecTypeD5
 472              		.align 2
 473              		.p2align 4,,15
 474              		.weak	_ZN25TestHexIO_testJunkRecTypeD2Ev
 476              	_ZN25TestHexIO_testJunkRecTypeD2Ev:
 477              	.LFB1451:
 478              		.cfi_startproc
 479 0000 488D0500 		leaq	16+_ZTV25TestHexIO_testJunkRecType(%rip), %rax
 479      000000
 480 0007 488907   		movq	%rax, (%rdi)
 481 000a E9000000 		jmp	_ZN8UnitTest4TestD2Ev@PLT
 481      00
 482              		.cfi_endproc
 483              	.LFE1451:
 485              		.weak	_ZN25TestHexIO_testJunkRecTypeD1Ev
 486              		.set	_ZN25TestHexIO_testJunkRecTypeD1Ev,_ZN25TestHexIO_testJunkRecTypeD2Ev
 487              		.section	.text._ZN25TestHexIO_testJunkRecTypeD0Ev,"axG",@progbits,_ZN25TestHexIO_testJunkRecTypeD5
 488              		.align 2
 489              		.p2align 4,,15
 490              		.weak	_ZN25TestHexIO_testJunkRecTypeD0Ev
 492              	_ZN25TestHexIO_testJunkRecTypeD0Ev:
 493              	.LFB1453:
 494              		.cfi_startproc
 495              		.cfi_personality 0x9b,DW.ref.__gxx_personality_v0
 496              		.cfi_lsda 0x1b,.LLSDA1453
 497 0000 55       		pushq	%rbp
 498              		.cfi_def_cfa_offset 16
 499              		.cfi_offset 6, -16
 500 0001 488D0500 		leaq	16+_ZTV25TestHexIO_testJunkRecType(%rip), %rax
 500      000000
 501 0008 53       		pushq	%rbx
 502              		.cfi_def_cfa_offset 24
 503              		.cfi_offset 3, -24
 504 0009 4889FB   		movq	%rdi, %rbx
 505 000c 4883EC08 		subq	$8, %rsp
 506              		.cfi_def_cfa_offset 32
 507 0010 488907   		movq	%rax, (%rdi)
 508              	.LEHB12:
 509 0013 E8000000 		call	_ZN8UnitTest4TestD2Ev@PLT
 509      00
 510              	.LEHE12:
 511 0018 4883C408 		addq	$8, %rsp
 512              		.cfi_remember_state
 513              		.cfi_def_cfa_offset 24
 514 001c 4889DF   		movq	%rbx, %rdi
 515 001f 5B       		popq	%rbx
 516              		.cfi_def_cfa_offset 16
 517 0020 5D       		popq	%rbp
 518              		.cfi_def_cfa_offset 8
 519 0021 E9000000 		jmp	_ZdlPv@PLT
 519      00
 520              	.L35:
 521              		.cfi_restore_state
 522 0026 4889C5   		movq	%rax, %rbp
 523 0029 4889DF   		movq	%rbx, %rdi
 524 002c E8000000 		call	_ZdlPv@PLT
 524      00
 525 0031 4889EF   		movq	%rbp, %rdi
 526              	.LEHB13:
 527 0034 E8000000 		call	_Unwind_Resume@PLT
 527      00
 528              	.LEHE13:
 529              		.cfi_endproc
 530              	.LFE1453:
 531              		.section	.gcc_except_table._ZN25TestHexIO_testJunkRecTypeD0Ev,"aG",@progbits,_ZN25TestHexIO_testJu
 532              	.LLSDA1453:
 533 0000 FF       		.byte	0xff
 534 0001 FF       		.byte	0xff
 535 0002 01       		.byte	0x1
 536 0003 08       		.uleb128 .LLSDACSE1453-.LLSDACSB1453
 537              	.LLSDACSB1453:
 538 0004 13       		.uleb128 .LEHB12-.LFB1453
 539 0005 05       		.uleb128 .LEHE12-.LEHB12
 540 0006 26       		.uleb128 .L35-.LFB1453
 541 0007 00       		.uleb128 0
 542 0008 34       		.uleb128 .LEHB13-.LFB1453
 543 0009 05       		.uleb128 .LEHE13-.LEHB13
 544 000a 00       		.uleb128 0
 545 000b 00       		.uleb128 0
 546              	.LLSDACSE1453:
 547              		.section	.text._ZN25TestHexIO_testJunkRecTypeD0Ev,"axG",@progbits,_ZN25TestHexIO_testJunkRecTypeD5
 549              		.section	.text._ZN25TestHexIO_testJunkAddrLsbD2Ev,"axG",@progbits,_ZN25TestHexIO_testJunkAddrLsbD5
 550              		.align 2
 551              		.p2align 4,,15
 552              		.weak	_ZN25TestHexIO_testJunkAddrLsbD2Ev
 554              	_ZN25TestHexIO_testJunkAddrLsbD2Ev:
 555              	.LFB1455:
 556              		.cfi_startproc
 557 0000 488D0500 		leaq	16+_ZTV25TestHexIO_testJunkAddrLsb(%rip), %rax
 557      000000
 558 0007 488907   		movq	%rax, (%rdi)
 559 000a E9000000 		jmp	_ZN8UnitTest4TestD2Ev@PLT
 559      00
 560              		.cfi_endproc
 561              	.LFE1455:
 563              		.weak	_ZN25TestHexIO_testJunkAddrLsbD1Ev
 564              		.set	_ZN25TestHexIO_testJunkAddrLsbD1Ev,_ZN25TestHexIO_testJunkAddrLsbD2Ev
 565              		.section	.text._ZN25TestHexIO_testJunkAddrLsbD0Ev,"axG",@progbits,_ZN25TestHexIO_testJunkAddrLsbD5
 566              		.align 2
 567              		.p2align 4,,15
 568              		.weak	_ZN25TestHexIO_testJunkAddrLsbD0Ev
 570              	_ZN25TestHexIO_testJunkAddrLsbD0Ev:
 571              	.LFB1457:
 572              		.cfi_startproc
 573              		.cfi_personality 0x9b,DW.ref.__gxx_personality_v0
 574              		.cfi_lsda 0x1b,.LLSDA1457
 575 0000 55       		pushq	%rbp
 576              		.cfi_def_cfa_offset 16
 577              		.cfi_offset 6, -16
 578 0001 488D0500 		leaq	16+_ZTV25TestHexIO_testJunkAddrLsb(%rip), %rax
 578      000000
 579 0008 53       		pushq	%rbx
 580              		.cfi_def_cfa_offset 24
 581              		.cfi_offset 3, -24
 582 0009 4889FB   		movq	%rdi, %rbx
 583 000c 4883EC08 		subq	$8, %rsp
 584              		.cfi_def_cfa_offset 32
 585 0010 488907   		movq	%rax, (%rdi)
 586              	.LEHB14:
 587 0013 E8000000 		call	_ZN8UnitTest4TestD2Ev@PLT
 587      00
 588              	.LEHE14:
 589 0018 4883C408 		addq	$8, %rsp
 590              		.cfi_remember_state
 591              		.cfi_def_cfa_offset 24
 592 001c 4889DF   		movq	%rbx, %rdi
 593 001f 5B       		popq	%rbx
 594              		.cfi_def_cfa_offset 16
 595 0020 5D       		popq	%rbp
 596              		.cfi_def_cfa_offset 8
 597 0021 E9000000 		jmp	_ZdlPv@PLT
 597      00
 598              	.L40:
 599              		.cfi_restore_state
 600 0026 4889C5   		movq	%rax, %rbp
 601 0029 4889DF   		movq	%rbx, %rdi
 602 002c E8000000 		call	_ZdlPv@PLT
 602      00
 603 0031 4889EF   		movq	%rbp, %rdi
 604              	.LEHB15:
 605 0034 E8000000 		call	_Unwind_Resume@PLT
 605      00
 606              	.LEHE15:
 607              		.cfi_endproc
 608              	.LFE1457:
 609              		.section	.gcc_except_table._ZN25TestHexIO_testJunkAddrLsbD0Ev,"aG",@progbits,_ZN25TestHexIO_testJu
 610              	.LLSDA1457:
 611 0000 FF       		.byte	0xff
 612 0001 FF       		.byte	0xff
 613 0002 01       		.byte	0x1
 614 0003 08       		.uleb128 .LLSDACSE1457-.LLSDACSB1457
 615              	.LLSDACSB1457:
 616 0004 13       		.uleb128 .LEHB14-.LFB1457
 617 0005 05       		.uleb128 .LEHE14-.LEHB14
 618 0006 26       		.uleb128 .L40-.LFB1457
 619 0007 00       		.uleb128 0
 620 0008 34       		.uleb128 .LEHB15-.LFB1457
 621 0009 05       		.uleb128 .LEHE15-.LEHB15
 622 000a 00       		.uleb128 0
 623 000b 00       		.uleb128 0
 624              	.LLSDACSE1457:
 625              		.section	.text._ZN25TestHexIO_testJunkAddrLsbD0Ev,"axG",@progbits,_ZN25TestHexIO_testJunkAddrLsbD5
 627              		.section	.text._ZN25TestHexIO_testJunkAddrMsbD2Ev,"axG",@progbits,_ZN25TestHexIO_testJunkAddrMsbD5
 628              		.align 2
 629              		.p2align 4,,15
 630              		.weak	_ZN25TestHexIO_testJunkAddrMsbD2Ev
 632              	_ZN25TestHexIO_testJunkAddrMsbD2Ev:
 633              	.LFB1459:
 634              		.cfi_startproc
 635 0000 488D0500 		leaq	16+_ZTV25TestHexIO_testJunkAddrMsb(%rip), %rax
 635      000000
 636 0007 488907   		movq	%rax, (%rdi)
 637 000a E9000000 		jmp	_ZN8UnitTest4TestD2Ev@PLT
 637      00
 638              		.cfi_endproc
 639              	.LFE1459:
 641              		.weak	_ZN25TestHexIO_testJunkAddrMsbD1Ev
 642              		.set	_ZN25TestHexIO_testJunkAddrMsbD1Ev,_ZN25TestHexIO_testJunkAddrMsbD2Ev
 643              		.section	.text._ZN25TestHexIO_testJunkAddrMsbD0Ev,"axG",@progbits,_ZN25TestHexIO_testJunkAddrMsbD5
 644              		.align 2
 645              		.p2align 4,,15
 646              		.weak	_ZN25TestHexIO_testJunkAddrMsbD0Ev
 648              	_ZN25TestHexIO_testJunkAddrMsbD0Ev:
 649              	.LFB1461:
 650              		.cfi_startproc
 651              		.cfi_personality 0x9b,DW.ref.__gxx_personality_v0
 652              		.cfi_lsda 0x1b,.LLSDA1461
 653 0000 55       		pushq	%rbp
 654              		.cfi_def_cfa_offset 16
 655              		.cfi_offset 6, -16
 656 0001 488D0500 		leaq	16+_ZTV25TestHexIO_testJunkAddrMsb(%rip), %rax
 656      000000
 657 0008 53       		pushq	%rbx
 658              		.cfi_def_cfa_offset 24
 659              		.cfi_offset 3, -24
 660 0009 4889FB   		movq	%rdi, %rbx
 661 000c 4883EC08 		subq	$8, %rsp
 662              		.cfi_def_cfa_offset 32
 663 0010 488907   		movq	%rax, (%rdi)
 664              	.LEHB16:
 665 0013 E8000000 		call	_ZN8UnitTest4TestD2Ev@PLT
 665      00
 666              	.LEHE16:
 667 0018 4883C408 		addq	$8, %rsp
 668              		.cfi_remember_state
 669              		.cfi_def_cfa_offset 24
 670 001c 4889DF   		movq	%rbx, %rdi
 671 001f 5B       		popq	%rbx
 672              		.cfi_def_cfa_offset 16
 673 0020 5D       		popq	%rbp
 674              		.cfi_def_cfa_offset 8
 675 0021 E9000000 		jmp	_ZdlPv@PLT
 675      00
 676              	.L45:
 677              		.cfi_restore_state
 678 0026 4889C5   		movq	%rax, %rbp
 679 0029 4889DF   		movq	%rbx, %rdi
 680 002c E8000000 		call	_ZdlPv@PLT
 680      00
 681 0031 4889EF   		movq	%rbp, %rdi
 682              	.LEHB17:
 683 0034 E8000000 		call	_Unwind_Resume@PLT
 683      00
 684              	.LEHE17:
 685              		.cfi_endproc
 686              	.LFE1461:
 687              		.section	.gcc_except_table._ZN25TestHexIO_testJunkAddrMsbD0Ev,"aG",@progbits,_ZN25TestHexIO_testJu
 688              	.LLSDA1461:
 689 0000 FF       		.byte	0xff
 690 0001 FF       		.byte	0xff
 691 0002 01       		.byte	0x1
 692 0003 08       		.uleb128 .LLSDACSE1461-.LLSDACSB1461
 693              	.LLSDACSB1461:
 694 0004 13       		.uleb128 .LEHB16-.LFB1461
 695 0005 05       		.uleb128 .LEHE16-.LEHB16
 696 0006 26       		.uleb128 .L45-.LFB1461
 697 0007 00       		.uleb128 0
 698 0008 34       		.uleb128 .LEHB17-.LFB1461
 699 0009 05       		.uleb128 .LEHE17-.LEHB17
 700 000a 00       		.uleb128 0
 701 000b 00       		.uleb128 0
 702              	.LLSDACSE1461:
 703              		.section	.text._ZN25TestHexIO_testJunkAddrMsbD0Ev,"axG",@progbits,_ZN25TestHexIO_testJunkAddrMsbD5
 705              		.section	.text._ZN27TestHexIO_testJunkByteCountD2Ev,"axG",@progbits,_ZN27TestHexIO_testJunkByteCou
 706              		.align 2
 707              		.p2align 4,,15
 708              		.weak	_ZN27TestHexIO_testJunkByteCountD2Ev
 710              	_ZN27TestHexIO_testJunkByteCountD2Ev:
 711              	.LFB1463:
 712              		.cfi_startproc
 713 0000 488D0500 		leaq	16+_ZTV27TestHexIO_testJunkByteCount(%rip), %rax
 713      000000
 714 0007 488907   		movq	%rax, (%rdi)
 715 000a E9000000 		jmp	_ZN8UnitTest4TestD2Ev@PLT
 715      00
 716              		.cfi_endproc
 717              	.LFE1463:
 719              		.weak	_ZN27TestHexIO_testJunkByteCountD1Ev
 720              		.set	_ZN27TestHexIO_testJunkByteCountD1Ev,_ZN27TestHexIO_testJunkByteCountD2Ev
 721              		.section	.text._ZN27TestHexIO_testJunkByteCountD0Ev,"axG",@progbits,_ZN27TestHexIO_testJunkByteCou
 722              		.align 2
 723              		.p2align 4,,15
 724              		.weak	_ZN27TestHexIO_testJunkByteCountD0Ev
 726              	_ZN27TestHexIO_testJunkByteCountD0Ev:
 727              	.LFB1465:
 728              		.cfi_startproc
 729              		.cfi_personality 0x9b,DW.ref.__gxx_personality_v0
 730              		.cfi_lsda 0x1b,.LLSDA1465
 731 0000 55       		pushq	%rbp
 732              		.cfi_def_cfa_offset 16
 733              		.cfi_offset 6, -16
 734 0001 488D0500 		leaq	16+_ZTV27TestHexIO_testJunkByteCount(%rip), %rax
 734      000000
 735 0008 53       		pushq	%rbx
 736              		.cfi_def_cfa_offset 24
 737              		.cfi_offset 3, -24
 738 0009 4889FB   		movq	%rdi, %rbx
 739 000c 4883EC08 		subq	$8, %rsp
 740              		.cfi_def_cfa_offset 32
 741 0010 488907   		movq	%rax, (%rdi)
 742              	.LEHB18:
 743 0013 E8000000 		call	_ZN8UnitTest4TestD2Ev@PLT
 743      00
 744              	.LEHE18:
 745 0018 4883C408 		addq	$8, %rsp
 746              		.cfi_remember_state
 747              		.cfi_def_cfa_offset 24
 748 001c 4889DF   		movq	%rbx, %rdi
 749 001f 5B       		popq	%rbx
 750              		.cfi_def_cfa_offset 16
 751 0020 5D       		popq	%rbp
 752              		.cfi_def_cfa_offset 8
 753 0021 E9000000 		jmp	_ZdlPv@PLT
 753      00
 754              	.L50:
 755              		.cfi_restore_state
 756 0026 4889C5   		movq	%rax, %rbp
 757 0029 4889DF   		movq	%rbx, %rdi
 758 002c E8000000 		call	_ZdlPv@PLT
 758      00
 759 0031 4889EF   		movq	%rbp, %rdi
 760              	.LEHB19:
 761 0034 E8000000 		call	_Unwind_Resume@PLT
 761      00
 762              	.LEHE19:
 763              		.cfi_endproc
 764              	.LFE1465:
 765              		.section	.gcc_except_table._ZN27TestHexIO_testJunkByteCountD0Ev,"aG",@progbits,_ZN27TestHexIO_test
 766              	.LLSDA1465:
 767 0000 FF       		.byte	0xff
 768 0001 FF       		.byte	0xff
 769 0002 01       		.byte	0x1
 770 0003 08       		.uleb128 .LLSDACSE1465-.LLSDACSB1465
 771              	.LLSDACSB1465:
 772 0004 13       		.uleb128 .LEHB18-.LFB1465
 773 0005 05       		.uleb128 .LEHE18-.LEHB18
 774 0006 26       		.uleb128 .L50-.LFB1465
 775 0007 00       		.uleb128 0
 776 0008 34       		.uleb128 .LEHB19-.LFB1465
 777 0009 05       		.uleb128 .LEHE19-.LEHB19
 778 000a 00       		.uleb128 0
 779 000b 00       		.uleb128 0
 780              	.LLSDACSE1465:
 781              		.section	.text._ZN27TestHexIO_testJunkByteCountD0Ev,"axG",@progbits,_ZN27TestHexIO_testJunkByteCou
 783              		.section	.text._ZN27TestHexIO_testJunkStartCodeD2Ev,"axG",@progbits,_ZN27TestHexIO_testJunkStartCo
 784              		.align 2
 785              		.p2align 4,,15
 786              		.weak	_ZN27TestHexIO_testJunkStartCodeD2Ev
 788              	_ZN27TestHexIO_testJunkStartCodeD2Ev:
 789              	.LFB1467:
 790              		.cfi_startproc
 791 0000 488D0500 		leaq	16+_ZTV27TestHexIO_testJunkStartCode(%rip), %rax
 791      000000
 792 0007 488907   		movq	%rax, (%rdi)
 793 000a E9000000 		jmp	_ZN8UnitTest4TestD2Ev@PLT
 793      00
 794              		.cfi_endproc
 795              	.LFE1467:
 797              		.weak	_ZN27TestHexIO_testJunkStartCodeD1Ev
 798              		.set	_ZN27TestHexIO_testJunkStartCodeD1Ev,_ZN27TestHexIO_testJunkStartCodeD2Ev
 799              		.section	.text._ZN27TestHexIO_testJunkStartCodeD0Ev,"axG",@progbits,_ZN27TestHexIO_testJunkStartCo
 800              		.align 2
 801              		.p2align 4,,15
 802              		.weak	_ZN27TestHexIO_testJunkStartCodeD0Ev
 804              	_ZN27TestHexIO_testJunkStartCodeD0Ev:
 805              	.LFB1469:
 806              		.cfi_startproc
 807              		.cfi_personality 0x9b,DW.ref.__gxx_personality_v0
 808              		.cfi_lsda 0x1b,.LLSDA1469
 809 0000 55       		pushq	%rbp
 810              		.cfi_def_cfa_offset 16
 811              		.cfi_offset 6, -16
 812 0001 488D0500 		leaq	16+_ZTV27TestHexIO_testJunkStartCode(%rip), %rax
 812      000000
 813 0008 53       		pushq	%rbx
 814              		.cfi_def_cfa_offset 24
 815              		.cfi_offset 3, -24
 816 0009 4889FB   		movq	%rdi, %rbx
 817 000c 4883EC08 		subq	$8, %rsp
 818              		.cfi_def_cfa_offset 32
 819 0010 488907   		movq	%rax, (%rdi)
 820              	.LEHB20:
 821 0013 E8000000 		call	_ZN8UnitTest4TestD2Ev@PLT
 821      00
 822              	.LEHE20:
 823 0018 4883C408 		addq	$8, %rsp
 824              		.cfi_remember_state
 825              		.cfi_def_cfa_offset 24
 826 001c 4889DF   		movq	%rbx, %rdi
 827 001f 5B       		popq	%rbx
 828              		.cfi_def_cfa_offset 16
 829 0020 5D       		popq	%rbp
 830              		.cfi_def_cfa_offset 8
 831 0021 E9000000 		jmp	_ZdlPv@PLT
 831      00
 832              	.L55:
 833              		.cfi_restore_state
 834 0026 4889C5   		movq	%rax, %rbp
 835 0029 4889DF   		movq	%rbx, %rdi
 836 002c E8000000 		call	_ZdlPv@PLT
 836      00
 837 0031 4889EF   		movq	%rbp, %rdi
 838              	.LEHB21:
 839 0034 E8000000 		call	_Unwind_Resume@PLT
 839      00
 840              	.LEHE21:
 841              		.cfi_endproc
 842              	.LFE1469:
 843              		.section	.gcc_except_table._ZN27TestHexIO_testJunkStartCodeD0Ev,"aG",@progbits,_ZN27TestHexIO_test
 844              	.LLSDA1469:
 845 0000 FF       		.byte	0xff
 846 0001 FF       		.byte	0xff
 847 0002 01       		.byte	0x1
 848 0003 08       		.uleb128 .LLSDACSE1469-.LLSDACSB1469
 849              	.LLSDACSB1469:
 850 0004 13       		.uleb128 .LEHB20-.LFB1469
 851 0005 05       		.uleb128 .LEHE20-.LEHB20
 852 0006 26       		.uleb128 .L55-.LFB1469
 853 0007 00       		.uleb128 0
 854 0008 34       		.uleb128 .LEHB21-.LFB1469
 855 0009 05       		.uleb128 .LEHE21-.LEHB21
 856 000a 00       		.uleb128 0
 857 000b 00       		.uleb128 0
 858              	.LLSDACSE1469:
 859              		.section	.text._ZN27TestHexIO_testJunkStartCodeD0Ev,"axG",@progbits,_ZN27TestHexIO_testJunkStartCo
 861              		.section	.text._ZN22TestHexIO_testValidEOFD2Ev,"axG",@progbits,_ZN22TestHexIO_testValidEOFD5Ev,com
 862              		.align 2
 863              		.p2align 4,,15
 864              		.weak	_ZN22TestHexIO_testValidEOFD2Ev
 866              	_ZN22TestHexIO_testValidEOFD2Ev:
 867              	.LFB1471:
 868              		.cfi_startproc
 869 0000 488D0500 		leaq	16+_ZTV22TestHexIO_testValidEOF(%rip), %rax
 869      000000
 870 0007 488907   		movq	%rax, (%rdi)
 871 000a E9000000 		jmp	_ZN8UnitTest4TestD2Ev@PLT
 871      00
 872              		.cfi_endproc
 873              	.LFE1471:
 875              		.weak	_ZN22TestHexIO_testValidEOFD1Ev
 876              		.set	_ZN22TestHexIO_testValidEOFD1Ev,_ZN22TestHexIO_testValidEOFD2Ev
 877              		.section	.text._ZN22TestHexIO_testValidEOFD0Ev,"axG",@progbits,_ZN22TestHexIO_testValidEOFD5Ev,com
 878              		.align 2
 879              		.p2align 4,,15
 880              		.weak	_ZN22TestHexIO_testValidEOFD0Ev
 882              	_ZN22TestHexIO_testValidEOFD0Ev:
 883              	.LFB1473:
 884              		.cfi_startproc
 885              		.cfi_personality 0x9b,DW.ref.__gxx_personality_v0
 886              		.cfi_lsda 0x1b,.LLSDA1473
 887 0000 55       		pushq	%rbp
 888              		.cfi_def_cfa_offset 16
 889              		.cfi_offset 6, -16
 890 0001 488D0500 		leaq	16+_ZTV22TestHexIO_testValidEOF(%rip), %rax
 890      000000
 891 0008 53       		pushq	%rbx
 892              		.cfi_def_cfa_offset 24
 893              		.cfi_offset 3, -24
 894 0009 4889FB   		movq	%rdi, %rbx
 895 000c 4883EC08 		subq	$8, %rsp
 896              		.cfi_def_cfa_offset 32
 897 0010 488907   		movq	%rax, (%rdi)
 898              	.LEHB22:
 899 0013 E8000000 		call	_ZN8UnitTest4TestD2Ev@PLT
 899      00
 900              	.LEHE22:
 901 0018 4883C408 		addq	$8, %rsp
 902              		.cfi_remember_state
 903              		.cfi_def_cfa_offset 24
 904 001c 4889DF   		movq	%rbx, %rdi
 905 001f 5B       		popq	%rbx
 906              		.cfi_def_cfa_offset 16
 907 0020 5D       		popq	%rbp
 908              		.cfi_def_cfa_offset 8
 909 0021 E9000000 		jmp	_ZdlPv@PLT
 909      00
 910              	.L60:
 911              		.cfi_restore_state
 912 0026 4889C5   		movq	%rax, %rbp
 913 0029 4889DF   		movq	%rbx, %rdi
 914 002c E8000000 		call	_ZdlPv@PLT
 914      00
 915 0031 4889EF   		movq	%rbp, %rdi
 916              	.LEHB23:
 917 0034 E8000000 		call	_Unwind_Resume@PLT
 917      00
 918              	.LEHE23:
 919              		.cfi_endproc
 920              	.LFE1473:
 921              		.section	.gcc_except_table._ZN22TestHexIO_testValidEOFD0Ev,"aG",@progbits,_ZN22TestHexIO_testValid
 922              	.LLSDA1473:
 923 0000 FF       		.byte	0xff
 924 0001 FF       		.byte	0xff
 925 0002 01       		.byte	0x1
 926 0003 08       		.uleb128 .LLSDACSE1473-.LLSDACSB1473
 927              	.LLSDACSB1473:
 928 0004 13       		.uleb128 .LEHB22-.LFB1473
 929 0005 05       		.uleb128 .LEHE22-.LEHB22
 930 0006 26       		.uleb128 .L60-.LFB1473
 931 0007 00       		.uleb128 0
 932 0008 34       		.uleb128 .LEHB23-.LFB1473
 933 0009 05       		.uleb128 .LEHE23-.LEHB23
 934 000a 00       		.uleb128 0
 935 000b 00       		.uleb128 0
 936              	.LLSDACSE1473:
 937              		.section	.text._ZN22TestHexIO_testValidEOFD0Ev,"axG",@progbits,_ZN22TestHexIO_testValidEOFD5Ev,com
 939              		.section	.text._ZN27TestHexIO_testValidDataLineD2Ev,"axG",@progbits,_ZN27TestHexIO_testValidDataLi
 940              		.align 2
 941              		.p2align 4,,15
 942              		.weak	_ZN27TestHexIO_testValidDataLineD2Ev
 944              	_ZN27TestHexIO_testValidDataLineD2Ev:
 945              	.LFB1475:
 946              		.cfi_startproc
 947 0000 488D0500 		leaq	16+_ZTV27TestHexIO_testValidDataLine(%rip), %rax
 947      000000
 948 0007 488907   		movq	%rax, (%rdi)
 949 000a E9000000 		jmp	_ZN8UnitTest4TestD2Ev@PLT
 949      00
 950              		.cfi_endproc
 951              	.LFE1475:
 953              		.weak	_ZN27TestHexIO_testValidDataLineD1Ev
 954              		.set	_ZN27TestHexIO_testValidDataLineD1Ev,_ZN27TestHexIO_testValidDataLineD2Ev
 955              		.section	.text._ZN27TestHexIO_testValidDataLineD0Ev,"axG",@progbits,_ZN27TestHexIO_testValidDataLi
 956              		.align 2
 957              		.p2align 4,,15
 958              		.weak	_ZN27TestHexIO_testValidDataLineD0Ev
 960              	_ZN27TestHexIO_testValidDataLineD0Ev:
 961              	.LFB1477:
 962              		.cfi_startproc
 963              		.cfi_personality 0x9b,DW.ref.__gxx_personality_v0
 964              		.cfi_lsda 0x1b,.LLSDA1477
 965 0000 55       		pushq	%rbp
 966              		.cfi_def_cfa_offset 16
 967              		.cfi_offset 6, -16
 968 0001 488D0500 		leaq	16+_ZTV27TestHexIO_testValidDataLine(%rip), %rax
 968      000000
 969 0008 53       		pushq	%rbx
 970              		.cfi_def_cfa_offset 24
 971              		.cfi_offset 3, -24
 972 0009 4889FB   		movq	%rdi, %rbx
 973 000c 4883EC08 		subq	$8, %rsp
 974              		.cfi_def_cfa_offset 32
 975 0010 488907   		movq	%rax, (%rdi)
 976              	.LEHB24:
 977 0013 E8000000 		call	_ZN8UnitTest4TestD2Ev@PLT
 977      00
 978              	.LEHE24:
 979 0018 4883C408 		addq	$8, %rsp
 980              		.cfi_remember_state
 981              		.cfi_def_cfa_offset 24
 982 001c 4889DF   		movq	%rbx, %rdi
 983 001f 5B       		popq	%rbx
 984              		.cfi_def_cfa_offset 16
 985 0020 5D       		popq	%rbp
 986              		.cfi_def_cfa_offset 8
 987 0021 E9000000 		jmp	_ZdlPv@PLT
 987      00
 988              	.L65:
 989              		.cfi_restore_state
 990 0026 4889C5   		movq	%rax, %rbp
 991 0029 4889DF   		movq	%rbx, %rdi
 992 002c E8000000 		call	_ZdlPv@PLT
 992      00
 993 0031 4889EF   		movq	%rbp, %rdi
 994              	.LEHB25:
 995 0034 E8000000 		call	_Unwind_Resume@PLT
 995      00
 996              	.LEHE25:
 997              		.cfi_endproc
 998              	.LFE1477:
 999              		.section	.gcc_except_table._ZN27TestHexIO_testValidDataLineD0Ev,"aG",@progbits,_ZN27TestHexIO_test
 1000              	.LLSDA1477:
 1001 0000 FF       		.byte	0xff
 1002 0001 FF       		.byte	0xff
 1003 0002 01       		.byte	0x1
 1004 0003 08       		.uleb128 .LLSDACSE1477-.LLSDACSB1477
 1005              	.LLSDACSB1477:
 1006 0004 13       		.uleb128 .LEHB24-.LFB1477
 1007 0005 05       		.uleb128 .LEHE24-.LEHB24
 1008 0006 26       		.uleb128 .L65-.LFB1477
 1009 0007 00       		.uleb128 0
 1010 0008 34       		.uleb128 .LEHB25-.LFB1477
 1011 0009 05       		.uleb128 .LEHE25-.LEHB25
 1012 000a 00       		.uleb128 0
 1013 000b 00       		.uleb128 0
 1014              	.LLSDACSE1477:
 1015              		.section	.text._ZN27TestHexIO_testValidDataLineD0Ev,"axG",@progbits,_ZN27TestHexIO_testValidDataLi
 1017              		.section	.text._ZN8UnitTest15MemoryOutStreamD1Ev,"axG",@progbits,_ZN8UnitTest15MemoryOutStreamD1Ev
 1018              		.align 2
 1019              		.p2align 4,,15
 1020              		.weak	_ZN8UnitTest15MemoryOutStreamD1Ev
 1022              	_ZN8UnitTest15MemoryOutStreamD1Ev:
 1023              	.LFB1325:
 1024              		.cfi_startproc
 1025 0000 55       		pushq	%rbp
 1026              		.cfi_def_cfa_offset 16
 1027              		.cfi_offset 6, -16
 1028 0001 488D0500 		leaq	24+_ZTVN8UnitTest15MemoryOutStreamE(%rip), %rax
 1028      000000
 1029 0008 53       		pushq	%rbx
 1030              		.cfi_def_cfa_offset 24
 1031              		.cfi_offset 3, -24
 1032 0009 4889FB   		movq	%rdi, %rbx
 1033 000c 4883EC08 		subq	$8, %rsp
 1034              		.cfi_def_cfa_offset 32
 1035 0010 488907   		movq	%rax, (%rdi)
 1036 0013 4883C028 		addq	$40, %rax
 1037 0017 48898790 		movq	%rax, 144(%rdi)
 1037      000000
 1038 001e 488B7F70 		movq	112(%rdi), %rdi
 1039 0022 488D8380 		leaq	128(%rbx), %rax
 1039      000000
 1040 0029 4839C7   		cmpq	%rax, %rdi
 1041 002c 7405     		je	.L68
 1042 002e E8000000 		call	_ZdlPv@PLT
 1042      00
 1043              	.L68:
 1044 0033 488D0500 		leaq	24+_ZTCN8UnitTest15MemoryOutStreamE0_NSt7__cxx1119basic_ostringstreamIcSt11char_traitsIcESaIc
 1044      000000
 1045 003a 488B7B50 		movq	80(%rbx), %rdi
 1046 003e 488DAB90 		leaq	144(%rbx), %rbp
 1046      000000
 1047 0045 488903   		movq	%rax, (%rbx)
 1048 0048 4883C028 		addq	$40, %rax
 1049 004c 48898390 		movq	%rax, 144(%rbx)
 1049      000000
 1050 0053 488D0500 		leaq	16+_ZTVNSt7__cxx1115basic_stringbufIcSt11char_traitsIcESaIcEEE(%rip), %rax
 1050      000000
 1051 005a 48894308 		movq	%rax, 8(%rbx)
 1052 005e 488D4360 		leaq	96(%rbx), %rax
 1053 0062 4839C7   		cmpq	%rax, %rdi
 1054 0065 7405     		je	.L69
 1055 0067 E8000000 		call	_ZdlPv@PLT
 1055      00
 1056              	.L69:
 1057 006c 488D0500 		leaq	16+_ZTVSt15basic_streambufIcSt11char_traitsIcEE(%rip), %rax
 1057      000000
 1058 0073 488D7B40 		leaq	64(%rbx), %rdi
 1059 0077 48894308 		movq	%rax, 8(%rbx)
 1060 007b E8000000 		call	_ZNSt6localeD1Ev@PLT
 1060      00
 1061 0080 488D0500 		leaq	24+_ZTCN8UnitTest15MemoryOutStreamE0_So(%rip), %rax
 1061      000000
 1062 0087 4889EF   		movq	%rbp, %rdi
 1063 008a 488903   		movq	%rax, (%rbx)
 1064 008d 488D0500 		leaq	16+_ZTVSt9basic_iosIcSt11char_traitsIcEE(%rip), %rax
 1064      000000
 1065 0094 48898390 		movq	%rax, 144(%rbx)
 1065      000000
 1066 009b 4883C408 		addq	$8, %rsp
 1067              		.cfi_def_cfa_offset 24
 1068 009f 5B       		popq	%rbx
 1069              		.cfi_def_cfa_offset 16
 1070 00a0 5D       		popq	%rbp
 1071              		.cfi_def_cfa_offset 8
 1072 00a1 E9000000 		jmp	_ZNSt8ios_baseD2Ev@PLT
 1072      00
 1073              		.cfi_endproc
 1074              	.LFE1325:
 1076              		.section	.text._ZN8UnitTest15MemoryOutStreamD0Ev,"axG",@progbits,_ZN8UnitTest15MemoryOutStreamD0Ev
 1077              		.p2align 4,,15
 1078              		.weak	_ZTv0_n24_N8UnitTest15MemoryOutStreamD0Ev
 1080              	_ZTv0_n24_N8UnitTest15MemoryOutStreamD0Ev:
 1081              	.LFB1499:
 1082              		.cfi_startproc
 1083              		.cfi_personality 0x9b,DW.ref.__gxx_personality_v0
 1084              		.cfi_lsda 0x1b,.LLSDA1499
 1085 0000 55       		pushq	%rbp
 1086              		.cfi_def_cfa_offset 16
 1087              		.cfi_offset 6, -16
 1088 0001 53       		pushq	%rbx
 1089              		.cfi_def_cfa_offset 24
 1090              		.cfi_offset 3, -24
 1091 0002 4883EC08 		subq	$8, %rsp
 1092              		.cfi_def_cfa_offset 32
 1093 0006 488B07   		movq	(%rdi), %rax
 1094 0009 480378E8 		addq	-24(%rax), %rdi
 1095 000d 488D0500 		leaq	24+_ZTVN8UnitTest15MemoryOutStreamE(%rip), %rax
 1095      000000
 1096 0014 488907   		movq	%rax, (%rdi)
 1097 0017 4883C028 		addq	$40, %rax
 1098 001b 4889FB   		movq	%rdi, %rbx
 1099 001e 48898790 		movq	%rax, 144(%rdi)
 1099      000000
 1100 0025 488B7F70 		movq	112(%rdi), %rdi
 1101 0029 488D8380 		leaq	128(%rbx), %rax
 1101      000000
 1102 0030 4839C7   		cmpq	%rax, %rdi
 1103 0033 7405     		je	.L72
 1104 0035 E8000000 		call	_ZdlPv@PLT
 1104      00
 1105              	.L72:
 1106 003a 488D0500 		leaq	24+_ZTCN8UnitTest15MemoryOutStreamE0_NSt7__cxx1119basic_ostringstreamIcSt11char_traitsIcESaIc
 1106      000000
 1107 0041 488B7B50 		movq	80(%rbx), %rdi
 1108 0045 488DAB90 		leaq	144(%rbx), %rbp
 1108      000000
 1109 004c 488903   		movq	%rax, (%rbx)
 1110 004f 4883C028 		addq	$40, %rax
 1111 0053 48898390 		movq	%rax, 144(%rbx)
 1111      000000
 1112 005a 488D0500 		leaq	16+_ZTVNSt7__cxx1115basic_stringbufIcSt11char_traitsIcESaIcEEE(%rip), %rax
 1112      000000
 1113 0061 48894308 		movq	%rax, 8(%rbx)
 1114 0065 488D4360 		leaq	96(%rbx), %rax
 1115 0069 4839C7   		cmpq	%rax, %rdi
 1116 006c 7405     		je	.L73
 1117 006e E8000000 		call	_ZdlPv@PLT
 1117      00
 1118              	.L73:
 1119 0073 488D0500 		leaq	16+_ZTVSt15basic_streambufIcSt11char_traitsIcEE(%rip), %rax
 1119      000000
 1120 007a 488D7B40 		leaq	64(%rbx), %rdi
 1121 007e 48894308 		movq	%rax, 8(%rbx)
 1122 0082 E8000000 		call	_ZNSt6localeD1Ev@PLT
 1122      00
 1123 0087 488D0500 		leaq	24+_ZTCN8UnitTest15MemoryOutStreamE0_So(%rip), %rax
 1123      000000
 1124 008e 4889EF   		movq	%rbp, %rdi
 1125 0091 488903   		movq	%rax, (%rbx)
 1126 0094 488D0500 		leaq	16+_ZTVSt9basic_iosIcSt11char_traitsIcEE(%rip), %rax
 1126      000000
 1127 009b 48898390 		movq	%rax, 144(%rbx)
 1127      000000
 1128              	.LEHB26:
 1129 00a2 E8000000 		call	_ZNSt8ios_baseD2Ev@PLT
 1129      00
 1130              	.LEHE26:
 1131 00a7 4883C408 		addq	$8, %rsp
 1132              		.cfi_remember_state
 1133              		.cfi_def_cfa_offset 24
 1134 00ab 4889DF   		movq	%rbx, %rdi
 1135 00ae 5B       		popq	%rbx
 1136              		.cfi_def_cfa_offset 16
 1137 00af 5D       		popq	%rbp
 1138              		.cfi_def_cfa_offset 8
 1139 00b0 E9000000 		jmp	_ZdlPv@PLT
 1139      00
 1140              	.L75:
 1141              		.cfi_restore_state
 1142 00b5 4889C5   		movq	%rax, %rbp
 1143 00b8 4889DF   		movq	%rbx, %rdi
 1144 00bb E8000000 		call	_ZdlPv@PLT
 1144      00
 1145 00c0 4889EF   		movq	%rbp, %rdi
 1146              	.LEHB27:
 1147 00c3 E8000000 		call	_Unwind_Resume@PLT
 1147      00
 1148              	.LEHE27:
 1149              		.cfi_endproc
 1150              	.LFE1499:
 1151              		.section	.gcc_except_table._ZTv0_n24_N8UnitTest15MemoryOutStreamD0Ev,"aG",@progbits,_ZN8UnitTest15
 1152              	.LLSDA1499:
 1153 0000 FF       		.byte	0xff
 1154 0001 FF       		.byte	0xff
 1155 0002 01       		.byte	0x1
 1156 0003 0B       		.uleb128 .LLSDACSE1499-.LLSDACSB1499
 1157              	.LLSDACSB1499:
 1158 0004 A201     		.uleb128 .LEHB26-.LFB1499
 1159 0006 05       		.uleb128 .LEHE26-.LEHB26
 1160 0007 B501     		.uleb128 .L75-.LFB1499
 1161 0009 00       		.uleb128 0
 1162 000a C301     		.uleb128 .LEHB27-.LFB1499
 1163 000c 05       		.uleb128 .LEHE27-.LEHB27
 1164 000d 00       		.uleb128 0
 1165 000e 00       		.uleb128 0
 1166              	.LLSDACSE1499:
 1167              		.section	.text._ZN8UnitTest15MemoryOutStreamD0Ev,"axG",@progbits,_ZN8UnitTest15MemoryOutStreamD0Ev
 1169              		.section	.text._ZN8UnitTest15MemoryOutStreamD1Ev,"axG",@progbits,_ZN8UnitTest15MemoryOutStreamD1Ev
 1170 00a6 662E0F1F 		.p2align 4,,15
 1170      84000000 
 1170      0000
 1171              		.weak	_ZTv0_n24_N8UnitTest15MemoryOutStreamD1Ev
 1173              	_ZTv0_n24_N8UnitTest15MemoryOutStreamD1Ev:
 1174              	.LFB1500:
 1175              		.cfi_startproc
 1176 00b0 55       		pushq	%rbp
 1177              		.cfi_def_cfa_offset 16
 1178              		.cfi_offset 6, -16
 1179 00b1 53       		pushq	%rbx
 1180              		.cfi_def_cfa_offset 24
 1181              		.cfi_offset 3, -24
 1182 00b2 4883EC08 		subq	$8, %rsp
 1183              		.cfi_def_cfa_offset 32
 1184 00b6 488B07   		movq	(%rdi), %rax
 1185 00b9 480378E8 		addq	-24(%rax), %rdi
 1186 00bd 488D0500 		leaq	24+_ZTVN8UnitTest15MemoryOutStreamE(%rip), %rax
 1186      000000
 1187 00c4 488907   		movq	%rax, (%rdi)
 1188 00c7 4883C028 		addq	$40, %rax
 1189 00cb 4889FB   		movq	%rdi, %rbx
 1190 00ce 48898790 		movq	%rax, 144(%rdi)
 1190      000000
 1191 00d5 488B7F70 		movq	112(%rdi), %rdi
 1192 00d9 488D8380 		leaq	128(%rbx), %rax
 1192      000000
 1193 00e0 4839C7   		cmpq	%rax, %rdi
 1194 00e3 7405     		je	.L78
 1195 00e5 E8000000 		call	_ZdlPv@PLT
 1195      00
 1196              	.L78:
 1197 00ea 488D0500 		leaq	24+_ZTCN8UnitTest15MemoryOutStreamE0_NSt7__cxx1119basic_ostringstreamIcSt11char_traitsIcESaIc
 1197      000000
 1198 00f1 488B7B50 		movq	80(%rbx), %rdi
 1199 00f5 488DAB90 		leaq	144(%rbx), %rbp
 1199      000000
 1200 00fc 488903   		movq	%rax, (%rbx)
 1201 00ff 4883C028 		addq	$40, %rax
 1202 0103 48898390 		movq	%rax, 144(%rbx)
 1202      000000
 1203 010a 488D0500 		leaq	16+_ZTVNSt7__cxx1115basic_stringbufIcSt11char_traitsIcESaIcEEE(%rip), %rax
 1203      000000
 1204 0111 48894308 		movq	%rax, 8(%rbx)
 1205 0115 488D4360 		leaq	96(%rbx), %rax
 1206 0119 4839C7   		cmpq	%rax, %rdi
 1207 011c 7405     		je	.L79
 1208 011e E8000000 		call	_ZdlPv@PLT
 1208      00
 1209              	.L79:
 1210 0123 488D0500 		leaq	16+_ZTVSt15basic_streambufIcSt11char_traitsIcEE(%rip), %rax
 1210      000000
 1211 012a 488D7B40 		leaq	64(%rbx), %rdi
 1212 012e 48894308 		movq	%rax, 8(%rbx)
 1213 0132 E8000000 		call	_ZNSt6localeD1Ev@PLT
 1213      00
 1214 0137 488D0500 		leaq	24+_ZTCN8UnitTest15MemoryOutStreamE0_So(%rip), %rax
 1214      000000
 1215 013e 4889EF   		movq	%rbp, %rdi
 1216 0141 488903   		movq	%rax, (%rbx)
 1217 0144 488D0500 		leaq	16+_ZTVSt9basic_iosIcSt11char_traitsIcEE(%rip), %rax
 1217      000000
 1218 014b 48898390 		movq	%rax, 144(%rbx)
 1218      000000
 1219 0152 4883C408 		addq	$8, %rsp
 1220              		.cfi_def_cfa_offset 24
 1221 0156 5B       		popq	%rbx
 1222              		.cfi_def_cfa_offset 16
 1223 0157 5D       		popq	%rbp
 1224              		.cfi_def_cfa_offset 8
 1225 0158 E9000000 		jmp	_ZNSt8ios_baseD2Ev@PLT
 1225      00
 1226              		.cfi_endproc
 1227              	.LFE1500:
 1229              		.section	.text._ZN8UnitTest15MemoryOutStreamD0Ev,"axG",@progbits,_ZN8UnitTest15MemoryOutStreamD0Ev
 1230              		.align 2
 1231 00c8 0F1F8400 		.p2align 4,,15
 1231      00000000 
 1232              		.weak	_ZN8UnitTest15MemoryOutStreamD0Ev
 1234              	_ZN8UnitTest15MemoryOutStreamD0Ev:
 1235              	.LFB1326:
 1236              		.cfi_startproc
 1237              		.cfi_personality 0x9b,DW.ref.__gxx_personality_v0
 1238              		.cfi_lsda 0x1b,.LLSDA1326
 1239 00d0 55       		pushq	%rbp
 1240              		.cfi_def_cfa_offset 16
 1241              		.cfi_offset 6, -16
 1242 00d1 488D0500 		leaq	24+_ZTVN8UnitTest15MemoryOutStreamE(%rip), %rax
 1242      000000
 1243 00d8 53       		pushq	%rbx
 1244              		.cfi_def_cfa_offset 24
 1245              		.cfi_offset 3, -24
 1246 00d9 4889FB   		movq	%rdi, %rbx
 1247 00dc 4883EC08 		subq	$8, %rsp
 1248              		.cfi_def_cfa_offset 32
 1249 00e0 488907   		movq	%rax, (%rdi)
 1250 00e3 4883C028 		addq	$40, %rax
 1251 00e7 48898790 		movq	%rax, 144(%rdi)
 1251      000000
 1252 00ee 488B7F70 		movq	112(%rdi), %rdi
 1253 00f2 488D8380 		leaq	128(%rbx), %rax
 1253      000000
 1254 00f9 4839C7   		cmpq	%rax, %rdi
 1255 00fc 7405     		je	.L82
 1256 00fe E8000000 		call	_ZdlPv@PLT
 1256      00
 1257              	.L82:
 1258 0103 488D0500 		leaq	24+_ZTCN8UnitTest15MemoryOutStreamE0_NSt7__cxx1119basic_ostringstreamIcSt11char_traitsIcESaIc
 1258      000000
 1259 010a 488B7B50 		movq	80(%rbx), %rdi
 1260 010e 488DAB90 		leaq	144(%rbx), %rbp
 1260      000000
 1261 0115 488903   		movq	%rax, (%rbx)
 1262 0118 4883C028 		addq	$40, %rax
 1263 011c 48898390 		movq	%rax, 144(%rbx)
 1263      000000
 1264 0123 488D0500 		leaq	16+_ZTVNSt7__cxx1115basic_stringbufIcSt11char_traitsIcESaIcEEE(%rip), %rax
 1264      000000
 1265 012a 48894308 		movq	%rax, 8(%rbx)
 1266 012e 488D4360 		leaq	96(%rbx), %rax
 1267 0132 4839C7   		cmpq	%rax, %rdi
 1268 0135 7405     		je	.L83
 1269 0137 E8000000 		call	_ZdlPv@PLT
 1269      00
 1270              	.L83:
 1271 013c 488D0500 		leaq	16+_ZTVSt15basic_streambufIcSt11char_traitsIcEE(%rip), %rax
 1271      000000
 1272 0143 488D7B40 		leaq	64(%rbx), %rdi
 1273 0147 48894308 		movq	%rax, 8(%rbx)
 1274 014b E8000000 		call	_ZNSt6localeD1Ev@PLT
 1274      00
 1275 0150 488D0500 		leaq	24+_ZTCN8UnitTest15MemoryOutStreamE0_So(%rip), %rax
 1275      000000
 1276 0157 4889EF   		movq	%rbp, %rdi
 1277 015a 488903   		movq	%rax, (%rbx)
 1278 015d 488D0500 		leaq	16+_ZTVSt9basic_iosIcSt11char_traitsIcEE(%rip), %rax
 1278      000000
 1279 0164 48898390 		movq	%rax, 144(%rbx)
 1279      000000
 1280              	.LEHB28:
 1281 016b E8000000 		call	_ZNSt8ios_baseD2Ev@PLT
 1281      00
 1282              	.LEHE28:
 1283 0170 4883C408 		addq	$8, %rsp
 1284              		.cfi_remember_state
 1285              		.cfi_def_cfa_offset 24
 1286 0174 4889DF   		movq	%rbx, %rdi
 1287 0177 5B       		popq	%rbx
 1288              		.cfi_def_cfa_offset 16
 1289 0178 5D       		popq	%rbp
 1290              		.cfi_def_cfa_offset 8
 1291 0179 E9000000 		jmp	_ZdlPv@PLT
 1291      00
 1292              	.L85:
 1293              		.cfi_restore_state
 1294 017e 4889C5   		movq	%rax, %rbp
 1295 0181 4889DF   		movq	%rbx, %rdi
 1296 0184 E8000000 		call	_ZdlPv@PLT
 1296      00
 1297 0189 4889EF   		movq	%rbp, %rdi
 1298              	.LEHB29:
 1299 018c E8000000 		call	_Unwind_Resume@PLT
 1299      00
 1300              	.LEHE29:
 1301              		.cfi_endproc
 1302              	.LFE1326:
 1303              		.section	.gcc_except_table._ZN8UnitTest15MemoryOutStreamD0Ev,"aG",@progbits,_ZN8UnitTest15MemoryOu
 1304              	.LLSDA1326:
 1305 0000 FF       		.byte	0xff
 1306 0001 FF       		.byte	0xff
 1307 0002 01       		.byte	0x1
 1308 0003 0B       		.uleb128 .LLSDACSE1326-.LLSDACSB1326
 1309              	.LLSDACSB1326:
 1310 0004 9B01     		.uleb128 .LEHB28-.LFB1326
 1311 0006 05       		.uleb128 .LEHE28-.LEHB28
 1312 0007 AE01     		.uleb128 .L85-.LFB1326
 1313 0009 00       		.uleb128 0
 1314 000a BC01     		.uleb128 .LEHB29-.LFB1326
 1315 000c 05       		.uleb128 .LEHE29-.LEHB29
 1316 000d 00       		.uleb128 0
 1317 000e 00       		.uleb128 0
 1318              	.LLSDACSE1326:
 1319              		.section	.text._ZN8UnitTest15MemoryOutStreamD0Ev,"axG",@progbits,_ZN8UnitTest15MemoryOutStreamD0Ev
 1321              		.section	.text._ZNSt7__cxx1115basic_stringbufIcSt11char_traitsIcESaIcEED2Ev,"axG",@progbits,_ZNSt7
 1322              		.align 2
 1323              		.p2align 4,,15
 1324              		.weak	_ZNSt7__cxx1115basic_stringbufIcSt11char_traitsIcESaIcEED2Ev
 1326              	_ZNSt7__cxx1115basic_stringbufIcSt11char_traitsIcESaIcEED2Ev:
 1327              	.LFB1304:
 1328              		.cfi_startproc
 1329 0000 488D0500 		leaq	16+_ZTVNSt7__cxx1115basic_stringbufIcSt11char_traitsIcESaIcEEE(%rip), %rax
 1329      000000
 1330 0007 53       		pushq	%rbx
 1331              		.cfi_def_cfa_offset 16
 1332              		.cfi_offset 3, -16
 1333 0008 4889FB   		movq	%rdi, %rbx
 1334 000b 488907   		movq	%rax, (%rdi)
 1335 000e 488B7F48 		movq	72(%rdi), %rdi
 1336 0012 488D4358 		leaq	88(%rbx), %rax
 1337 0016 4839C7   		cmpq	%rax, %rdi
 1338 0019 7405     		je	.L88
 1339 001b E8000000 		call	_ZdlPv@PLT
 1339      00
 1340              	.L88:
 1341 0020 488D0500 		leaq	16+_ZTVSt15basic_streambufIcSt11char_traitsIcEE(%rip), %rax
 1341      000000
 1342 0027 488D7B38 		leaq	56(%rbx), %rdi
 1343 002b 488903   		movq	%rax, (%rbx)
 1344 002e 5B       		popq	%rbx
 1345              		.cfi_def_cfa_offset 8
 1346 002f E9000000 		jmp	_ZNSt6localeD1Ev@PLT
 1346      00
 1347              		.cfi_endproc
 1348              	.LFE1304:
 1350              		.weak	_ZNSt7__cxx1115basic_stringbufIcSt11char_traitsIcESaIcEED1Ev
 1351              		.set	_ZNSt7__cxx1115basic_stringbufIcSt11char_traitsIcESaIcEED1Ev,_ZNSt7__cxx1115basic_stringbufIc
 1352              		.section	.text._ZNSt7__cxx1115basic_stringbufIcSt11char_traitsIcESaIcEED0Ev,"axG",@progbits,_ZNSt7
 1353              		.align 2
 1354              		.p2align 4,,15
 1355              		.weak	_ZNSt7__cxx1115basic_stringbufIcSt11char_traitsIcESaIcEED0Ev
 1357              	_ZNSt7__cxx1115basic_stringbufIcSt11char_traitsIcESaIcEED0Ev:
 1358              	.LFB1306:
 1359              		.cfi_startproc
 1360 0000 488D0500 		leaq	16+_ZTVNSt7__cxx1115basic_stringbufIcSt11char_traitsIcESaIcEEE(%rip), %rax
 1360      000000
 1361 0007 53       		pushq	%rbx
 1362              		.cfi_def_cfa_offset 16
 1363              		.cfi_offset 3, -16
 1364 0008 4889FB   		movq	%rdi, %rbx
 1365 000b 488907   		movq	%rax, (%rdi)
 1366 000e 488B7F48 		movq	72(%rdi), %rdi
 1367 0012 488D4358 		leaq	88(%rbx), %rax
 1368 0016 4839C7   		cmpq	%rax, %rdi
 1369 0019 7405     		je	.L91
 1370 001b E8000000 		call	_ZdlPv@PLT
 1370      00
 1371              	.L91:
 1372 0020 488D0500 		leaq	16+_ZTVSt15basic_streambufIcSt11char_traitsIcEE(%rip), %rax
 1372      000000
 1373 0027 488D7B38 		leaq	56(%rbx), %rdi
 1374 002b 488903   		movq	%rax, (%rbx)
 1375 002e E8000000 		call	_ZNSt6localeD1Ev@PLT
 1375      00
 1376 0033 4889DF   		movq	%rbx, %rdi
 1377 0036 5B       		popq	%rbx
 1378              		.cfi_def_cfa_offset 8
 1379 0037 E9000000 		jmp	_ZdlPv@PLT
 1379      00
 1380              		.cfi_endproc
 1381              	.LFE1306:
 1383              		.section	.rodata._ZN8UnitTest10CheckEqualI12BufferStatusS1_EEvRNS_11TestResultsERKT_RKT0_RKNS_11Te
 1384              	.LC0:
 1385 0000 45787065 		.string	"Expected "
 1385      63746564 
 1385      2000
 1386              	.LC1:
 1387 000a 20627574 		.string	" but was "
 1387      20776173 
 1387      2000
 1388              		.section	.text._ZN8UnitTest10CheckEqualI12BufferStatusS1_EEvRNS_11TestResultsERKT_RKT0_RKNS_11Test
 1389              		.p2align 4,,15
 1390              		.weak	_ZN8UnitTest10CheckEqualI12BufferStatusS1_EEvRNS_11TestResultsERKT_RKT0_RKNS_11TestDetailsE
 1392              	_ZN8UnitTest10CheckEqualI12BufferStatusS1_EEvRNS_11TestResultsERKT_RKT0_RKNS_11TestDetailsE:
 1393              	.LFB1322:
 1394              		.cfi_startproc
 1395              		.cfi_personality 0x9b,DW.ref.__gxx_personality_v0
 1396              		.cfi_lsda 0x1b,.LLSDA1322
 1397 0000 4157     		pushq	%r15
 1398              		.cfi_def_cfa_offset 16
 1399              		.cfi_offset 15, -16
 1400 0002 4156     		pushq	%r14
 1401              		.cfi_def_cfa_offset 24
 1402              		.cfi_offset 14, -24
 1403 0004 4155     		pushq	%r13
 1404              		.cfi_def_cfa_offset 32
 1405              		.cfi_offset 13, -32
 1406 0006 4154     		pushq	%r12
 1407              		.cfi_def_cfa_offset 40
 1408              		.cfi_offset 12, -40
 1409 0008 55       		pushq	%rbp
 1410              		.cfi_def_cfa_offset 48
 1411              		.cfi_offset 6, -48
 1412 0009 53       		pushq	%rbx
 1413              		.cfi_def_cfa_offset 56
 1414              		.cfi_offset 3, -56
 1415 000a 4881ECB8 		subq	$440, %rsp
 1415      010000
 1416              		.cfi_def_cfa_offset 496
 1417 0011 64488B04 		movq	%fs:40, %rax
 1417      25280000 
 1417      00
 1418 001a 48898424 		movq	%rax, 424(%rsp)
 1418      A8010000 
 1419 0022 31C0     		xorl	%eax, %eax
 1420 0024 8B02     		movl	(%rdx), %eax
 1421 0026 3906     		cmpl	%eax, (%rsi)
 1422 0028 48893C24 		movq	%rdi, (%rsp)
 1423 002c 48894C24 		movq	%rcx, 8(%rsp)
 1423      08
 1424 0031 0F842F02 		je	.L93
 1424      0000
 1425 0037 488D5C24 		leaq	16(%rsp), %rbx
 1425      10
 1426 003c 4C8D2D00 		leaq	24+_ZTCN8UnitTest15MemoryOutStreamE0_So(%rip), %r13
 1426      000000
 1427 0043 4989F4   		movq	%rsi, %r12
 1428 0046 4889D5   		movq	%rdx, %rbp
 1429 0049 4C8DB390 		leaq	144(%rbx), %r14
 1429      000000
 1430 0050 4C89F7   		movq	%r14, %rdi
 1431 0053 E8000000 		call	_ZNSt8ios_baseC2Ev@PLT
 1431      00
 1432 0058 498D4528 		leaq	40(%r13), %rax
 1433 005c 31F6     		xorl	%esi, %esi
 1434 005e 4C89F7   		movq	%r14, %rdi
 1435 0061 48C78424 		movq	$0, 376(%rsp)
 1435      78010000 
 1435      00000000 
 1436 006d C6842480 		movb	$0, 384(%rsp)
 1436      01000000 
 1437 0075 C6842481 		movb	$0, 385(%rsp)
 1437      01000000 
 1438 007d 48C78424 		movq	$0, 392(%rsp)
 1438      88010000 
 1438      00000000 
 1439 0089 48C78424 		movq	$0, 400(%rsp)
 1439      90010000 
 1439      00000000 
 1440 0095 48C78424 		movq	$0, 408(%rsp)
 1440      98010000 
 1440      00000000 
 1441 00a1 48C78424 		movq	$0, 416(%rsp)
 1441      A0010000 
 1441      00000000 
 1442 00ad 4C896C24 		movq	%r13, 16(%rsp)
 1442      10
 1443 00b2 48898424 		movq	%rax, 160(%rsp)
 1443      A0000000 
 1444              	.LEHB30:
 1445 00ba E8000000 		call	_ZNSt9basic_iosIcSt11char_traitsIcEE4initEPSt15basic_streambufIcS1_E@PLT
 1445      00
 1446              	.LEHE30:
 1447 00bf 488D0500 		leaq	24+_ZTCN8UnitTest15MemoryOutStreamE0_NSt7__cxx1119basic_ostringstreamIcSt11char_traitsIcESaIc
 1447      000000
 1448 00c6 660FEFC0 		pxor	%xmm0, %xmm0
 1449 00ca 488D7B40 		leaq	64(%rbx), %rdi
 1450 00ce 48894424 		movq	%rax, 16(%rsp)
 1450      10
 1451 00d3 4883C028 		addq	$40, %rax
 1452 00d7 48898424 		movq	%rax, 160(%rsp)
 1452      A0000000 
 1453 00df 488D0500 		leaq	16+_ZTVSt15basic_streambufIcSt11char_traitsIcEE(%rip), %rax
 1453      000000
 1454 00e6 0F294424 		movaps	%xmm0, 32(%rsp)
 1454      20
 1455 00eb 48894424 		movq	%rax, 24(%rsp)
 1455      18
 1456 00f0 0F294424 		movaps	%xmm0, 48(%rsp)
 1456      30
 1457 00f5 0F294424 		movaps	%xmm0, 64(%rsp)
 1457      40
 1458 00fa E8000000 		call	_ZNSt6localeC1Ev@PLT
 1458      00
 1459 00ff 488D0500 		leaq	16+_ZTVNSt7__cxx1115basic_stringbufIcSt11char_traitsIcESaIcEEE(%rip), %rax
 1459      000000
 1460 0106 488D7308 		leaq	8(%rbx), %rsi
 1461 010a 48894424 		movq	%rax, 24(%rsp)
 1461      18
 1462 010f 488D4360 		leaq	96(%rbx), %rax
 1463 0113 C7442458 		movl	$16, 88(%rsp)
 1463      10000000 
 1464 011b 48C74424 		movq	$0, 104(%rsp)
 1464      68000000 
 1464      00
 1465 0124 C6442470 		movb	$0, 112(%rsp)
 1465      00
 1466 0129 48894424 		movq	%rax, 96(%rsp)
 1466      60
 1467 012e 488B4424 		movq	16(%rsp), %rax
 1467      10
 1468 0133 488B78E8 		movq	-24(%rax), %rdi
 1469 0137 4801DF   		addq	%rbx, %rdi
 1470              	.LEHB31:
 1471 013a E8000000 		call	_ZNSt9basic_iosIcSt11char_traitsIcEE4initEPSt15basic_streambufIcS1_E@PLT
 1471      00
 1472              	.LEHE31:
 1473 013f 4C8D3D00 		leaq	24+_ZTVN8UnitTest15MemoryOutStreamE(%rip), %r15
 1473      000000
 1474 0146 488D8380 		leaq	128(%rbx), %rax
 1474      000000
 1475 014d 488D3500 		leaq	.LC0(%rip), %rsi
 1475      000000
 1476 0154 BA090000 		movl	$9, %edx
 1476      00
 1477 0159 4889DF   		movq	%rbx, %rdi
 1478 015c 48C78424 		movq	$0, 136(%rsp)
 1478      88000000 
 1478      00000000 
 1479 0168 4D8D7728 		leaq	40(%r15), %r14
 1480 016c 4C897C24 		movq	%r15, 16(%rsp)
 1480      10
 1481 0171 48898424 		movq	%rax, 128(%rsp)
 1481      80000000 
 1482 0179 C6842490 		movb	$0, 144(%rsp)
 1482      00000000 
 1483 0181 4C89B424 		movq	%r14, 160(%rsp)
 1483      A0000000 
 1484              	.LEHB32:
 1485 0189 E8000000 		call	_ZSt16__ostream_insertIcSt11char_traitsIcEERSt13basic_ostreamIT_T0_ES6_PKS3_l@PLT
 1485      00
 1486 018e 418B3424 		movl	(%r12), %esi
 1487 0192 4889DF   		movq	%rbx, %rdi
 1488 0195 E8000000 		call	_ZNSolsEi@PLT
 1488      00
 1489 019a 488D3500 		leaq	.LC1(%rip), %rsi
 1489      000000
 1490 01a1 BA090000 		movl	$9, %edx
 1490      00
 1491 01a6 4889C7   		movq	%rax, %rdi
 1492 01a9 4989C4   		movq	%rax, %r12
 1493 01ac E8000000 		call	_ZSt16__ostream_insertIcSt11char_traitsIcEERSt13basic_ostreamIT_T0_ES6_PKS3_l@PLT
 1493      00
 1494 01b1 8B7500   		movl	0(%rbp), %esi
 1495 01b4 4C89E7   		movq	%r12, %rdi
 1496 01b7 E8000000 		call	_ZNSolsEi@PLT
 1496      00
 1497 01bc 4889DF   		movq	%rbx, %rdi
 1498 01bf E8000000 		call	_ZNK8UnitTest15MemoryOutStream7GetTextEv@PLT
 1498      00
 1499 01c4 488B7424 		movq	8(%rsp), %rsi
 1499      08
 1500 01c9 488B3C24 		movq	(%rsp), %rdi
 1501 01cd 4889C2   		movq	%rax, %rdx
 1502 01d0 E8000000 		call	_ZN8UnitTest11TestResults13OnTestFailureERKNS_11TestDetailsEPKc@PLT
 1502      00
 1503              	.LEHE32:
 1504 01d5 488BBC24 		movq	128(%rsp), %rdi
 1504      80000000 
 1505 01dd 488D8380 		leaq	128(%rbx), %rax
 1505      000000
 1506 01e4 4C897C24 		movq	%r15, 16(%rsp)
 1506      10
 1507 01e9 4C89B424 		movq	%r14, 160(%rsp)
 1507      A0000000 
 1508 01f1 4839C7   		cmpq	%rax, %rdi
 1509 01f4 7405     		je	.L99
 1510 01f6 E8000000 		call	_ZdlPv@PLT
 1510      00
 1511              	.L99:
 1512 01fb 488D0500 		leaq	64+_ZTCN8UnitTest15MemoryOutStreamE0_NSt7__cxx1119basic_ostringstreamIcSt11char_traitsIcESaIc
 1512      000000
 1513 0202 488B7C24 		movq	96(%rsp), %rdi
 1513      60
 1514 0207 F30F7E05 		movq	.LC2(%rip), %xmm0
 1514      00000000 
 1515 020f 48898424 		movq	%rax, 160(%rsp)
 1515      A0000000 
 1516 0217 488D4360 		leaq	96(%rbx), %rax
 1517 021b 0F160500 		movhps	.LC3(%rip), %xmm0
 1517      000000
 1518 0222 4839C7   		cmpq	%rax, %rdi
 1519 0225 0F294424 		movaps	%xmm0, 16(%rsp)
 1519      10
 1520 022a 7405     		je	.L100
 1521 022c E8000000 		call	_ZdlPv@PLT
 1521      00
 1522              	.L100:
 1523 0231 488D0500 		leaq	16+_ZTVSt15basic_streambufIcSt11char_traitsIcEE(%rip), %rax
 1523      000000
 1524 0238 488D7B40 		leaq	64(%rbx), %rdi
 1525 023c 48894424 		movq	%rax, 24(%rsp)
 1525      18
 1526 0241 E8000000 		call	_ZNSt6localeD1Ev@PLT
 1526      00
 1527 0246 488D0500 		leaq	16+_ZTVSt9basic_iosIcSt11char_traitsIcEE(%rip), %rax
 1527      000000
 1528 024d 488DBB90 		leaq	144(%rbx), %rdi
 1528      000000
 1529 0254 4C896C24 		movq	%r13, 16(%rsp)
 1529      10
 1530 0259 48898424 		movq	%rax, 160(%rsp)
 1530      A0000000 
 1531              	.LEHB33:
 1532 0261 E8000000 		call	_ZNSt8ios_baseD2Ev@PLT
 1532      00
 1533              	.LEHE33:
 1534              	.L93:
 1535 0266 488B8424 		movq	424(%rsp), %rax
 1535      A8010000 
 1536 026e 64483304 		xorq	%fs:40, %rax
 1536      25280000 
 1536      00
 1537 0277 7512     		jne	.L109
 1538 0279 4881C4B8 		addq	$440, %rsp
 1538      010000
 1539              		.cfi_remember_state
 1540              		.cfi_def_cfa_offset 56
 1541 0280 5B       		popq	%rbx
 1542              		.cfi_def_cfa_offset 48
 1543 0281 5D       		popq	%rbp
 1544              		.cfi_def_cfa_offset 40
 1545 0282 415C     		popq	%r12
 1546              		.cfi_def_cfa_offset 32
 1547 0284 415D     		popq	%r13
 1548              		.cfi_def_cfa_offset 24
 1549 0286 415E     		popq	%r14
 1550              		.cfi_def_cfa_offset 16
 1551 0288 415F     		popq	%r15
 1552              		.cfi_def_cfa_offset 8
 1553 028a C3       		ret
 1554              	.L109:
 1555              		.cfi_restore_state
 1556 028b E8000000 		call	__stack_chk_fail@PLT
 1556      00
 1557              	.L104:
 1558 0290 4889C5   		movq	%rax, %rbp
 1559              	.L97:
 1560 0293 488D0500 		leaq	16+_ZTVSt9basic_iosIcSt11char_traitsIcEE(%rip), %rax
 1560      000000
 1561 029a 488DBB90 		leaq	144(%rbx), %rdi
 1561      000000
 1562 02a1 48898424 		movq	%rax, 160(%rsp)
 1562      A0000000 
 1563 02a9 E8000000 		call	_ZNSt8ios_baseD2Ev@PLT
 1563      00
 1564 02ae 4889EF   		movq	%rbp, %rdi
 1565              	.LEHB34:
 1566 02b1 E8000000 		call	_Unwind_Resume@PLT
 1566      00
 1567              	.LEHE34:
 1568              	.L103:
 1569 02b6 4889C5   		movq	%rax, %rbp
 1570 02b9 4889DF   		movq	%rbx, %rdi
 1571 02bc E8000000 		call	_ZN8UnitTest15MemoryOutStreamD1Ev
 1571      00
 1572 02c1 4889EF   		movq	%rbp, %rdi
 1573              	.LEHB35:
 1574 02c4 E8000000 		call	_Unwind_Resume@PLT
 1574      00
 1575              	.LEHE35:
 1576              	.L105:
 1577 02c9 488D7B08 		leaq	8(%rbx), %rdi
 1578 02cd 4889C5   		movq	%rax, %rbp
 1579 02d0 E8000000 		call	_ZNSt7__cxx1115basic_stringbufIcSt11char_traitsIcESaIcEED1Ev
 1579      00
 1580 02d5 4C896C24 		movq	%r13, 16(%rsp)
 1580      10
 1581 02da EBB7     		jmp	.L97
 1582              		.cfi_endproc
 1583              	.LFE1322:
 1584              		.section	.gcc_except_table._ZN8UnitTest10CheckEqualI12BufferStatusS1_EEvRNS_11TestResultsERKT_RKT0
 1585              	.LLSDA1322:
 1586 0000 FF       		.byte	0xff
 1587 0001 FF       		.byte	0xff
 1588 0002 01       		.byte	0x1
 1589 0003 21       		.uleb128 .LLSDACSE1322-.LLSDACSB1322
 1590              	.LLSDACSB1322:
 1591 0004 BA01     		.uleb128 .LEHB30-.LFB1322
 1592 0006 05       		.uleb128 .LEHE30-.LEHB30
 1593 0007 9005     		.uleb128 .L104-.LFB1322
 1594 0009 00       		.uleb128 0
 1595 000a BA02     		.uleb128 .LEHB31-.LFB1322
 1596 000c 05       		.uleb128 .LEHE31-.LEHB31
 1597 000d C905     		.uleb128 .L105-.LFB1322
 1598 000f 00       		.uleb128 0
 1599 0010 8903     		.uleb128 .LEHB32-.LFB1322
 1600 0012 4C       		.uleb128 .LEHE32-.LEHB32
 1601 0013 B605     		.uleb128 .L103-.LFB1322
 1602 0015 00       		.uleb128 0
 1603 0016 E104     		.uleb128 .LEHB33-.LFB1322
 1604 0018 05       		.uleb128 .LEHE33-.LEHB33
 1605 0019 00       		.uleb128 0
 1606 001a 00       		.uleb128 0
 1607 001b B105     		.uleb128 .LEHB34-.LFB1322
 1608 001d 05       		.uleb128 .LEHE34-.LEHB34
 1609 001e 00       		.uleb128 0
 1610 001f 00       		.uleb128 0
 1611 0020 C405     		.uleb128 .LEHB35-.LFB1322
 1612 0022 05       		.uleb128 .LEHE35-.LEHB35
 1613 0023 00       		.uleb128 0
 1614 0024 00       		.uleb128 0
 1615              	.LLSDACSE1322:
 1616              		.section	.text._ZN8UnitTest10CheckEqualI12BufferStatusS1_EEvRNS_11TestResultsERKT_RKT0_RKNS_11Test
 1618              		.section	.rodata.str1.1,"aMS",@progbits,1
 1619              	.LC4:
 1620 0000 2E303430 		.string	".040BE10075820022F7\n"
 1620      42453130 
 1620      30373538 
 1620      32303032 
 1620      3246370A 
 1621              		.section	.rodata.str1.8,"aMS",@progbits,1
 1622              		.align 8
 1623              	.LC5:
 1624 0000 556E6861 		.string	"Unhandled exception in CHECK_EQUAL(BUF_SUCCESS, status)"
 1624      6E646C65 
 1624      64206578 
 1624      63657074 
 1624      696F6E20 
 1625              		.align 8
 1626              	.LC6:
 1627 0038 556E6861 		.string	"Unhandled exception in CHECK_EQUAL(HEX_JUNK_START_CODE, status)"
 1627      6E646C65 
 1627      64206578 
 1627      63657074 
 1627      696F6E20 
 1628              		.text
 1629              		.align 2
 1630              		.p2align 4,,15
 1631              		.globl	_ZNK27TestHexIO_testJunkStartCode7RunImplEv
 1633              	_ZNK27TestHexIO_testJunkStartCode7RunImplEv:
 1634              	.LFB1252:
 1635              		.cfi_startproc
 1636              		.cfi_personality 0x9b,DW.ref.__gxx_personality_v0
 1637              		.cfi_lsda 0x1b,.LLSDA1252
 1638 0000 4154     		pushq	%r12
 1639              		.cfi_def_cfa_offset 16
 1640              		.cfi_offset 12, -16
 1641 0002 55       		pushq	%rbp
 1642              		.cfi_def_cfa_offset 24
 1643              		.cfi_offset 6, -24
 1644 0003 31C9     		xorl	%ecx, %ecx
 1645 0005 53       		pushq	%rbx
 1646              		.cfi_def_cfa_offset 32
 1647              		.cfi_offset 3, -32
 1648 0006 31D2     		xorl	%edx, %edx
 1649 0008 BE000400 		movl	$1024, %esi
 1649      00
 1650 000d 4883EC60 		subq	$96, %rsp
 1651              		.cfi_def_cfa_offset 128
 1652 0011 488D6C24 		leaq	16(%rsp), %rbp
 1652      10
 1653 0016 C7442408 		movl	$0, 8(%rsp)
 1653      00000000 
 1654 001e 64488B04 		movq	%fs:40, %rax
 1654      25280000 
 1654      00
 1655 0027 48894424 		movq	%rax, 88(%rsp)
 1655      58
 1656 002c 31C0     		xorl	%eax, %eax
 1657 002e 4889EF   		movq	%rbp, %rdi
 1658              	.LEHB36:
 1659 0031 E8000000 		call	bufInitialise@PLT
 1659      00
 1660              	.LEHE36:
 1661 0036 89442404 		movl	%eax, 4(%rsp)
 1662              	.LEHB37:
 1663 003a E8000000 		call	_ZN8UnitTest11CurrentTest7DetailsEv@PLT
 1663      00
 1664 003f 488D5C24 		leaq	48(%rsp), %rbx
 1664      30
 1665 0044 488B30   		movq	(%rax), %rsi
 1666 0047 BA4C0000 		movl	$76, %edx
 1666      00
 1667 004c 4889DF   		movq	%rbx, %rdi
 1668 004f E8000000 		call	_ZN8UnitTest11TestDetailsC1ERKS0_i@PLT
 1668      00
 1669 0054 C744240C 		movl	$0, 12(%rsp)
 1669      00000000 
 1670 005c E8000000 		call	_ZN8UnitTest11CurrentTest7ResultsEv@PLT
 1670      00
 1671 0061 488B38   		movq	(%rax), %rdi
 1672 0064 488D5424 		leaq	4(%rsp), %rdx
 1672      04
 1673 0069 488D7424 		leaq	12(%rsp), %rsi
 1673      0C
 1674 006e 4889D9   		movq	%rbx, %rcx
 1675 0071 E8000000 		call	_ZN8UnitTest10CheckEqualI12BufferStatusS1_EEvRNS_11TestResultsERKT_RKT0_RKNS_11TestDetailsE
 1675      00
 1676              	.LEHE37:
 1677              	.L112:
 1678 0076 4883EC08 		subq	$8, %rsp
 1679              		.cfi_def_cfa_offset 136
 1680 007a 488D3D00 		leaq	.LC4(%rip), %rdi
 1680      000000
 1681 0081 4889EA   		movq	%rbp, %rdx
 1682 0084 6A00     		pushq	$0
 1683              		.cfi_def_cfa_offset 144
 1684 0086 31C9     		xorl	%ecx, %ecx
 1685 0088 31F6     		xorl	%esi, %esi
 1686 008a 4C8D4C24 		leaq	19(%rsp), %r9
 1686      13
 1687 008f 4C8D4424 		leaq	24(%rsp), %r8
 1687      18
 1688              	.LEHB38:
 1689 0094 E8000000 		call	bufProcessLine@PLT
 1689      00
 1690              	.LEHE38:
 1691 0099 89442414 		movl	%eax, 20(%rsp)
 1692 009d 58       		popq	%rax
 1693              		.cfi_def_cfa_offset 136
 1694 009e 5A       		popq	%rdx
 1695              		.cfi_def_cfa_offset 128
 1696              	.LEHB39:
 1697 009f E8000000 		call	_ZN8UnitTest11CurrentTest7DetailsEv@PLT
 1697      00
 1698 00a4 488B30   		movq	(%rax), %rsi
 1699 00a7 BA4E0000 		movl	$78, %edx
 1699      00
 1700 00ac 4889DF   		movq	%rbx, %rdi
 1701 00af E8000000 		call	_ZN8UnitTest11TestDetailsC1ERKS0_i@PLT
 1701      00
 1702 00b4 C744240C 		movl	$8, 12(%rsp)
 1702      08000000 
 1703 00bc E8000000 		call	_ZN8UnitTest11CurrentTest7ResultsEv@PLT
 1703      00
 1704 00c1 488B38   		movq	(%rax), %rdi
 1705 00c4 488D5424 		leaq	4(%rsp), %rdx
 1705      04
 1706 00c9 488D7424 		leaq	12(%rsp), %rsi
 1706      0C
 1707 00ce 4889D9   		movq	%rbx, %rcx
 1708 00d1 E8000000 		call	_ZN8UnitTest10CheckEqualI12BufferStatusS1_EEvRNS_11TestResultsERKT_RKT0_RKNS_11TestDetailsE
 1708      00
 1709              	.LEHE39:
 1710              	.L115:
 1711 00d6 4889EF   		movq	%rbp, %rdi
 1712              	.LEHB40:
 1713 00d9 E8000000 		call	bufDestroy@PLT
 1713      00
 1714              	.LEHE40:
 1715 00de 488B4424 		movq	88(%rsp), %rax
 1715      58
 1716 00e3 64483304 		xorq	%fs:40, %rax
 1716      25280000 
 1716      00
 1717 00ec 7509     		jne	.L124
 1718 00ee 4883C460 		addq	$96, %rsp
 1719              		.cfi_remember_state
 1720              		.cfi_def_cfa_offset 32
 1721 00f2 5B       		popq	%rbx
 1722              		.cfi_def_cfa_offset 24
 1723 00f3 5D       		popq	%rbp
 1724              		.cfi_def_cfa_offset 16
 1725 00f4 415C     		popq	%r12
 1726              		.cfi_def_cfa_offset 8
 1727 00f6 C3       		ret
 1728              	.L124:
 1729              		.cfi_restore_state
 1730 00f7 E8000000 		call	__stack_chk_fail@PLT
 1730      00
 1731              	.L120:
 1732 00fc 4889C7   		movq	%rax, %rdi
 1733 00ff E8000000 		call	__cxa_begin_catch@PLT
 1733      00
 1734              	.LEHB41:
 1735 0104 E8000000 		call	_ZN8UnitTest11CurrentTest7ResultsEv@PLT
 1735      00
 1736 0109 4C8B20   		movq	(%rax), %r12
 1737 010c E8000000 		call	_ZN8UnitTest11CurrentTest7DetailsEv@PLT
 1737      00
 1738 0111 488B30   		movq	(%rax), %rsi
 1739 0114 BA4E0000 		movl	$78, %edx
 1739      00
 1740 0119 4889DF   		movq	%rbx, %rdi
 1741 011c E8000000 		call	_ZN8UnitTest11TestDetailsC1ERKS0_i@PLT
 1741      00
 1742 0121 488D1500 		leaq	.LC6(%rip), %rdx
 1742      000000
 1743 0128 4889DE   		movq	%rbx, %rsi
 1744 012b 4C89E7   		movq	%r12, %rdi
 1745 012e E8000000 		call	_ZN8UnitTest11TestResults13OnTestFailureERKNS_11TestDetailsEPKc@PLT
 1745      00
 1746              	.LEHE41:
 1747              	.LEHB42:
 1748 0133 E8000000 		call	__cxa_end_catch@PLT
 1748      00
 1749              	.LEHE42:
 1750 0138 EB9C     		jmp	.L115
 1751              	.L118:
 1752 013a 4889C7   		movq	%rax, %rdi
 1753 013d E8000000 		call	__cxa_begin_catch@PLT
 1753      00
 1754              	.LEHB43:
 1755 0142 E8000000 		call	_ZN8UnitTest11CurrentTest7ResultsEv@PLT
 1755      00
 1756 0147 4C8B20   		movq	(%rax), %r12
 1757 014a E8000000 		call	_ZN8UnitTest11CurrentTest7DetailsEv@PLT
 1757      00
 1758 014f 488D5C24 		leaq	48(%rsp), %rbx
 1758      30
 1759 0154 488B30   		movq	(%rax), %rsi
 1760 0157 BA4C0000 		movl	$76, %edx
 1760      00
 1761 015c 4889DF   		movq	%rbx, %rdi
 1762 015f E8000000 		call	_ZN8UnitTest11TestDetailsC1ERKS0_i@PLT
 1762      00
 1763 0164 488D1500 		leaq	.LC5(%rip), %rdx
 1763      000000
 1764 016b 4889DE   		movq	%rbx, %rsi
 1765 016e 4C89E7   		movq	%r12, %rdi
 1766 0171 E8000000 		call	_ZN8UnitTest11TestResults13OnTestFailureERKNS_11TestDetailsEPKc@PLT
 1766      00
 1767              	.LEHE43:
 1768              	.LEHB44:
 1769 0176 E8000000 		call	__cxa_end_catch@PLT
 1769      00
 1770              	.LEHE44:
 1771 017b E9F6FEFF 		jmp	.L112
 1771      FF
 1772              	.L121:
 1773 0180 4889C3   		movq	%rax, %rbx
 1774 0183 E8000000 		call	__cxa_end_catch@PLT
 1774      00
 1775 0188 4889DF   		movq	%rbx, %rdi
 1776              	.LEHB45:
 1777 018b E8000000 		call	_Unwind_Resume@PLT
 1777      00
 1778              	.LEHE45:
 1779              	.L119:
 1780 0190 4889C3   		movq	%rax, %rbx
 1781 0193 E8000000 		call	__cxa_end_catch@PLT
 1781      00
 1782 0198 4889DF   		movq	%rbx, %rdi
 1783              	.LEHB46:
 1784 019b E8000000 		call	_Unwind_Resume@PLT
 1784      00
 1785              	.LEHE46:
 1786              		.cfi_endproc
 1787              	.LFE1252:
 1788              		.section	.gcc_except_table,"a",@progbits
 1789              		.align 4
 1790              	.LLSDA1252:
 1791 0000 FF       		.byte	0xff
 1792 0001 9B       		.byte	0x9b
 1793 0002 41       		.uleb128 .LLSDATT1252-.LLSDATTD1252
 1794              	.LLSDATTD1252:
 1795 0003 01       		.byte	0x1
 1796 0004 39       		.uleb128 .LLSDACSE1252-.LLSDACSB1252
 1797              	.LLSDACSB1252:
 1798 0005 31       		.uleb128 .LEHB36-.LFB1252
 1799 0006 05       		.uleb128 .LEHE36-.LEHB36
 1800 0007 00       		.uleb128 0
 1801 0008 00       		.uleb128 0
 1802 0009 3A       		.uleb128 .LEHB37-.LFB1252
 1803 000a 3C       		.uleb128 .LEHE37-.LEHB37
 1804 000b BA02     		.uleb128 .L118-.LFB1252
 1805 000d 01       		.uleb128 0x1
 1806 000e 9401     		.uleb128 .LEHB38-.LFB1252
 1807 0010 05       		.uleb128 .LEHE38-.LEHB38
 1808 0011 00       		.uleb128 0
 1809 0012 00       		.uleb128 0
 1810 0013 9F01     		.uleb128 .LEHB39-.LFB1252
 1811 0015 37       		.uleb128 .LEHE39-.LEHB39
 1812 0016 FC01     		.uleb128 .L120-.LFB1252
 1813 0018 01       		.uleb128 0x1
 1814 0019 D901     		.uleb128 .LEHB40-.LFB1252
 1815 001b 05       		.uleb128 .LEHE40-.LEHB40
 1816 001c 00       		.uleb128 0
 1817 001d 00       		.uleb128 0
 1818 001e 8402     		.uleb128 .LEHB41-.LFB1252
 1819 0020 2F       		.uleb128 .LEHE41-.LEHB41
 1820 0021 8003     		.uleb128 .L121-.LFB1252
 1821 0023 00       		.uleb128 0
 1822 0024 B302     		.uleb128 .LEHB42-.LFB1252
 1823 0026 05       		.uleb128 .LEHE42-.LEHB42
 1824 0027 00       		.uleb128 0
 1825 0028 00       		.uleb128 0
 1826 0029 C202     		.uleb128 .LEHB43-.LFB1252
 1827 002b 34       		.uleb128 .LEHE43-.LEHB43
 1828 002c 9003     		.uleb128 .L119-.LFB1252
 1829 002e 00       		.uleb128 0
 1830 002f F602     		.uleb128 .LEHB44-.LFB1252
 1831 0031 05       		.uleb128 .LEHE44-.LEHB44
 1832 0032 00       		.uleb128 0
 1833 0033 00       		.uleb128 0
 1834 0034 8B03     		.uleb128 .LEHB45-.LFB1252
 1835 0036 05       		.uleb128 .LEHE45-.LEHB45
 1836 0037 00       		.uleb128 0
 1837 0038 00       		.uleb128 0
 1838 0039 9B03     		.uleb128 .LEHB46-.LFB1252
 1839 003b 05       		.uleb128 .LEHE46-.LEHB46
 1840 003c 00       		.uleb128 0
 1841 003d 00       		.uleb128 0
 1842              	.LLSDACSE1252:
 1843 003e 01       		.byte	0x1
 1844 003f 00       		.byte	0
 1845              		.align 4
 1846 0040 00000000 		.long	0
 1847              	
 1848              	.LLSDATT1252:
 1849              		.text
 1851              		.section	.rodata.str1.1
 1852              	.LC7:
 1853 0015 3A2E2E30 		.string	":..0BE10075820022F7\n"
 1853      42453130 
 1853      30373538 
 1853      32303032 
 1853      3246370A 
 1854              		.section	.rodata.str1.8
 1855              		.align 8
 1856              	.LC8:
 1857 0078 556E6861 		.string	"Unhandled exception in CHECK_EQUAL(HEX_JUNK_BYTE_COUNT, status)"
 1857      6E646C65 
 1857      64206578 
 1857      63657074 
 1857      696F6E20 
 1858              		.text
 1859              		.align 2
 1860              		.p2align 4,,15
 1861              		.globl	_ZNK27TestHexIO_testJunkByteCount7RunImplEv
 1863              	_ZNK27TestHexIO_testJunkByteCount7RunImplEv:
 1864              	.LFB1256:
 1865              		.cfi_startproc
 1866              		.cfi_personality 0x9b,DW.ref.__gxx_personality_v0
 1867              		.cfi_lsda 0x1b,.LLSDA1256
 1868 01a0 4154     		pushq	%r12
 1869              		.cfi_def_cfa_offset 16
 1870              		.cfi_offset 12, -16
 1871 01a2 55       		pushq	%rbp
 1872              		.cfi_def_cfa_offset 24
 1873              		.cfi_offset 6, -24
 1874 01a3 31C9     		xorl	%ecx, %ecx
 1875 01a5 53       		pushq	%rbx
 1876              		.cfi_def_cfa_offset 32
 1877              		.cfi_offset 3, -32
 1878 01a6 31D2     		xorl	%edx, %edx
 1879 01a8 BE000400 		movl	$1024, %esi
 1879      00
 1880 01ad 4883EC60 		subq	$96, %rsp
 1881              		.cfi_def_cfa_offset 128
 1882 01b1 488D6C24 		leaq	16(%rsp), %rbp
 1882      10
 1883 01b6 C7442408 		movl	$0, 8(%rsp)
 1883      00000000 
 1884 01be 64488B04 		movq	%fs:40, %rax
 1884      25280000 
 1884      00
 1885 01c7 48894424 		movq	%rax, 88(%rsp)
 1885      58
 1886 01cc 31C0     		xorl	%eax, %eax
 1887 01ce 4889EF   		movq	%rbp, %rdi
 1888              	.LEHB47:
 1889 01d1 E8000000 		call	bufInitialise@PLT
 1889      00
 1890              	.LEHE47:
 1891 01d6 89442404 		movl	%eax, 4(%rsp)
 1892              	.LEHB48:
 1893 01da E8000000 		call	_ZN8UnitTest11CurrentTest7DetailsEv@PLT
 1893      00
 1894 01df 488D5C24 		leaq	48(%rsp), %rbx
 1894      30
 1895 01e4 488B30   		movq	(%rax), %rsi
 1896 01e7 BA590000 		movl	$89, %edx
 1896      00
 1897 01ec 4889DF   		movq	%rbx, %rdi
 1898 01ef E8000000 		call	_ZN8UnitTest11TestDetailsC1ERKS0_i@PLT
 1898      00
 1899 01f4 C744240C 		movl	$0, 12(%rsp)
 1899      00000000 
 1900 01fc E8000000 		call	_ZN8UnitTest11CurrentTest7ResultsEv@PLT
 1900      00
 1901 0201 488B38   		movq	(%rax), %rdi
 1902 0204 488D5424 		leaq	4(%rsp), %rdx
 1902      04
 1903 0209 488D7424 		leaq	12(%rsp), %rsi
 1903      0C
 1904 020e 4889D9   		movq	%rbx, %rcx
 1905 0211 E8000000 		call	_ZN8UnitTest10CheckEqualI12BufferStatusS1_EEvRNS_11TestResultsERKT_RKT0_RKNS_11TestDetailsE
 1905      00
 1906              	.LEHE48:
 1907              	.L127:
 1908 0216 4883EC08 		subq	$8, %rsp
 1909              		.cfi_def_cfa_offset 136
 1910 021a 488D3D00 		leaq	.LC7(%rip), %rdi
 1910      000000
 1911 0221 4889EA   		movq	%rbp, %rdx
 1912 0224 6A00     		pushq	$0
 1913              		.cfi_def_cfa_offset 144
 1914 0226 31C9     		xorl	%ecx, %ecx
 1915 0228 31F6     		xorl	%esi, %esi
 1916 022a 4C8D4C24 		leaq	19(%rsp), %r9
 1916      13
 1917 022f 4C8D4424 		leaq	24(%rsp), %r8
 1917      18
 1918              	.LEHB49:
 1919 0234 E8000000 		call	bufProcessLine@PLT
 1919      00
 1920              	.LEHE49:
 1921 0239 89442414 		movl	%eax, 20(%rsp)
 1922 023d 58       		popq	%rax
 1923              		.cfi_def_cfa_offset 136
 1924 023e 5A       		popq	%rdx
 1925              		.cfi_def_cfa_offset 128
 1926              	.LEHB50:
 1927 023f E8000000 		call	_ZN8UnitTest11CurrentTest7DetailsEv@PLT
 1927      00
 1928 0244 488B30   		movq	(%rax), %rsi
 1929 0247 BA5B0000 		movl	$91, %edx
 1929      00
 1930 024c 4889DF   		movq	%rbx, %rdi
 1931 024f E8000000 		call	_ZN8UnitTest11TestDetailsC1ERKS0_i@PLT
 1931      00
 1932 0254 C744240C 		movl	$9, 12(%rsp)
 1932      09000000 
 1933 025c E8000000 		call	_ZN8UnitTest11CurrentTest7ResultsEv@PLT
 1933      00
 1934 0261 488B38   		movq	(%rax), %rdi
 1935 0264 488D5424 		leaq	4(%rsp), %rdx
 1935      04
 1936 0269 488D7424 		leaq	12(%rsp), %rsi
 1936      0C
 1937 026e 4889D9   		movq	%rbx, %rcx
 1938 0271 E8000000 		call	_ZN8UnitTest10CheckEqualI12BufferStatusS1_EEvRNS_11TestResultsERKT_RKT0_RKNS_11TestDetailsE
 1938      00
 1939              	.LEHE50:
 1940              	.L130:
 1941 0276 4889EF   		movq	%rbp, %rdi
 1942              	.LEHB51:
 1943 0279 E8000000 		call	bufDestroy@PLT
 1943      00
 1944              	.LEHE51:
 1945 027e 488B4424 		movq	88(%rsp), %rax
 1945      58
 1946 0283 64483304 		xorq	%fs:40, %rax
 1946      25280000 
 1946      00
 1947 028c 7509     		jne	.L139
 1948 028e 4883C460 		addq	$96, %rsp
 1949              		.cfi_remember_state
 1950              		.cfi_def_cfa_offset 32
 1951 0292 5B       		popq	%rbx
 1952              		.cfi_def_cfa_offset 24
 1953 0293 5D       		popq	%rbp
 1954              		.cfi_def_cfa_offset 16
 1955 0294 415C     		popq	%r12
 1956              		.cfi_def_cfa_offset 8
 1957 0296 C3       		ret
 1958              	.L139:
 1959              		.cfi_restore_state
 1960 0297 E8000000 		call	__stack_chk_fail@PLT
 1960      00
 1961              	.L135:
 1962 029c 4889C7   		movq	%rax, %rdi
 1963 029f E8000000 		call	__cxa_begin_catch@PLT
 1963      00
 1964              	.LEHB52:
 1965 02a4 E8000000 		call	_ZN8UnitTest11CurrentTest7ResultsEv@PLT
 1965      00
 1966 02a9 4C8B20   		movq	(%rax), %r12
 1967 02ac E8000000 		call	_ZN8UnitTest11CurrentTest7DetailsEv@PLT
 1967      00
 1968 02b1 488B30   		movq	(%rax), %rsi
 1969 02b4 BA5B0000 		movl	$91, %edx
 1969      00
 1970 02b9 4889DF   		movq	%rbx, %rdi
 1971 02bc E8000000 		call	_ZN8UnitTest11TestDetailsC1ERKS0_i@PLT
 1971      00
 1972 02c1 488D1500 		leaq	.LC8(%rip), %rdx
 1972      000000
 1973 02c8 4889DE   		movq	%rbx, %rsi
 1974 02cb 4C89E7   		movq	%r12, %rdi
 1975 02ce E8000000 		call	_ZN8UnitTest11TestResults13OnTestFailureERKNS_11TestDetailsEPKc@PLT
 1975      00
 1976              	.LEHE52:
 1977              	.LEHB53:
 1978 02d3 E8000000 		call	__cxa_end_catch@PLT
 1978      00
 1979              	.LEHE53:
 1980 02d8 EB9C     		jmp	.L130
 1981              	.L133:
 1982 02da 4889C7   		movq	%rax, %rdi
 1983 02dd E8000000 		call	__cxa_begin_catch@PLT
 1983      00
 1984              	.LEHB54:
 1985 02e2 E8000000 		call	_ZN8UnitTest11CurrentTest7ResultsEv@PLT
 1985      00
 1986 02e7 4C8B20   		movq	(%rax), %r12
 1987 02ea E8000000 		call	_ZN8UnitTest11CurrentTest7DetailsEv@PLT
 1987      00
 1988 02ef 488D5C24 		leaq	48(%rsp), %rbx
 1988      30
 1989 02f4 488B30   		movq	(%rax), %rsi
 1990 02f7 BA590000 		movl	$89, %edx
 1990      00
 1991 02fc 4889DF   		movq	%rbx, %rdi
 1992 02ff E8000000 		call	_ZN8UnitTest11TestDetailsC1ERKS0_i@PLT
 1992      00
 1993 0304 488D1500 		leaq	.LC5(%rip), %rdx
 1993      000000
 1994 030b 4889DE   		movq	%rbx, %rsi
 1995 030e 4C89E7   		movq	%r12, %rdi
 1996 0311 E8000000 		call	_ZN8UnitTest11TestResults13OnTestFailureERKNS_11TestDetailsEPKc@PLT
 1996      00
 1997              	.LEHE54:
 1998              	.LEHB55:
 1999 0316 E8000000 		call	__cxa_end_catch@PLT
 1999      00
 2000              	.LEHE55:
 2001 031b E9F6FEFF 		jmp	.L127
 2001      FF
 2002              	.L136:
 2003 0320 4889C3   		movq	%rax, %rbx
 2004 0323 E8000000 		call	__cxa_end_catch@PLT
 2004      00
 2005 0328 4889DF   		movq	%rbx, %rdi
 2006              	.LEHB56:
 2007 032b E8000000 		call	_Unwind_Resume@PLT
 2007      00
 2008              	.LEHE56:
 2009              	.L134:
 2010 0330 4889C3   		movq	%rax, %rbx
 2011 0333 E8000000 		call	__cxa_end_catch@PLT
 2011      00
 2012 0338 4889DF   		movq	%rbx, %rdi
 2013              	.LEHB57:
 2014 033b E8000000 		call	_Unwind_Resume@PLT
 2014      00
 2015              	.LEHE57:
 2016              		.cfi_endproc
 2017              	.LFE1256:
 2018              		.section	.gcc_except_table
 2019              		.align 4
 2020              	.LLSDA1256:
 2021 0044 FF       		.byte	0xff
 2022 0045 9B       		.byte	0x9b
 2023 0046 41       		.uleb128 .LLSDATT1256-.LLSDATTD1256
 2024              	.LLSDATTD1256:
 2025 0047 01       		.byte	0x1
 2026 0048 39       		.uleb128 .LLSDACSE1256-.LLSDACSB1256
 2027              	.LLSDACSB1256:
 2028 0049 31       		.uleb128 .LEHB47-.LFB1256
 2029 004a 05       		.uleb128 .LEHE47-.LEHB47
 2030 004b 00       		.uleb128 0
 2031 004c 00       		.uleb128 0
 2032 004d 3A       		.uleb128 .LEHB48-.LFB1256
 2033 004e 3C       		.uleb128 .LEHE48-.LEHB48
 2034 004f BA02     		.uleb128 .L133-.LFB1256
 2035 0051 01       		.uleb128 0x1
 2036 0052 9401     		.uleb128 .LEHB49-.LFB1256
 2037 0054 05       		.uleb128 .LEHE49-.LEHB49
 2038 0055 00       		.uleb128 0
 2039 0056 00       		.uleb128 0
 2040 0057 9F01     		.uleb128 .LEHB50-.LFB1256
 2041 0059 37       		.uleb128 .LEHE50-.LEHB50
 2042 005a FC01     		.uleb128 .L135-.LFB1256
 2043 005c 01       		.uleb128 0x1
 2044 005d D901     		.uleb128 .LEHB51-.LFB1256
 2045 005f 05       		.uleb128 .LEHE51-.LEHB51
 2046 0060 00       		.uleb128 0
 2047 0061 00       		.uleb128 0
 2048 0062 8402     		.uleb128 .LEHB52-.LFB1256
 2049 0064 2F       		.uleb128 .LEHE52-.LEHB52
 2050 0065 8003     		.uleb128 .L136-.LFB1256
 2051 0067 00       		.uleb128 0
 2052 0068 B302     		.uleb128 .LEHB53-.LFB1256
 2053 006a 05       		.uleb128 .LEHE53-.LEHB53
 2054 006b 00       		.uleb128 0
 2055 006c 00       		.uleb128 0
 2056 006d C202     		.uleb128 .LEHB54-.LFB1256
 2057 006f 34       		.uleb128 .LEHE54-.LEHB54
 2058 0070 9003     		.uleb128 .L134-.LFB1256
 2059 0072 00       		.uleb128 0
 2060 0073 F602     		.uleb128 .LEHB55-.LFB1256
 2061 0075 05       		.uleb128 .LEHE55-.LEHB55
 2062 0076 00       		.uleb128 0
 2063 0077 00       		.uleb128 0
 2064 0078 8B03     		.uleb128 .LEHB56-.LFB1256
 2065 007a 05       		.uleb128 .LEHE56-.LEHB56
 2066 007b 00       		.uleb128 0
 2067 007c 00       		.uleb128 0
 2068 007d 9B03     		.uleb128 .LEHB57-.LFB1256
 2069 007f 05       		.uleb128 .LEHE57-.LEHB57
 2070 0080 00       		.uleb128 0
 2071 0081 00       		.uleb128 0
 2072              	.LLSDACSE1256:
 2073 0082 01       		.byte	0x1
 2074 0083 00       		.byte	0
 2075              		.align 4
 2076 0084 00000000 		.long	0
 2077              	
 2078              	.LLSDATT1256:
 2079              		.text
 2081              		.section	.rodata.str1.1
 2082              	.LC9:
 2083 002a 3A30342E 		.string	":04..E10075820022F7\n"
 2083      2E453130 
 2083      30373538 
 2083      32303032 
 2083      3246370A 
 2084              		.section	.rodata.str1.8
 2085              		.align 8
 2086              	.LC10:
 2087 00b8 556E6861 		.string	"Unhandled exception in CHECK_EQUAL(HEX_JUNK_ADDR_MSB, status)"
 2087      6E646C65 
 2087      64206578 
 2087      63657074 
 2087      696F6E20 
 2088              		.text
 2089              		.align 2
 2090              		.p2align 4,,15
 2091              		.globl	_ZNK25TestHexIO_testJunkAddrMsb7RunImplEv
 2093              	_ZNK25TestHexIO_testJunkAddrMsb7RunImplEv:
 2094              	.LFB1260:
 2095              		.cfi_startproc
 2096              		.cfi_personality 0x9b,DW.ref.__gxx_personality_v0
 2097              		.cfi_lsda 0x1b,.LLSDA1260
 2098 0340 4154     		pushq	%r12
 2099              		.cfi_def_cfa_offset 16
 2100              		.cfi_offset 12, -16
 2101 0342 55       		pushq	%rbp
 2102              		.cfi_def_cfa_offset 24
 2103              		.cfi_offset 6, -24
 2104 0343 31C9     		xorl	%ecx, %ecx
 2105 0345 53       		pushq	%rbx
 2106              		.cfi_def_cfa_offset 32
 2107              		.cfi_offset 3, -32
 2108 0346 31D2     		xorl	%edx, %edx
 2109 0348 BE000400 		movl	$1024, %esi
 2109      00
 2110 034d 4883EC60 		subq	$96, %rsp
 2111              		.cfi_def_cfa_offset 128
 2112 0351 488D6C24 		leaq	16(%rsp), %rbp
 2112      10
 2113 0356 C7442408 		movl	$0, 8(%rsp)
 2113      00000000 
 2114 035e 64488B04 		movq	%fs:40, %rax
 2114      25280000 
 2114      00
 2115 0367 48894424 		movq	%rax, 88(%rsp)
 2115      58
 2116 036c 31C0     		xorl	%eax, %eax
 2117 036e 4889EF   		movq	%rbp, %rdi
 2118              	.LEHB58:
 2119 0371 E8000000 		call	bufInitialise@PLT
 2119      00
 2120              	.LEHE58:
 2121 0376 89442404 		movl	%eax, 4(%rsp)
 2122              	.LEHB59:
 2123 037a E8000000 		call	_ZN8UnitTest11CurrentTest7DetailsEv@PLT
 2123      00
 2124 037f 488D5C24 		leaq	48(%rsp), %rbx
 2124      30
 2125 0384 488B30   		movq	(%rax), %rsi
 2126 0387 BA660000 		movl	$102, %edx
 2126      00
 2127 038c 4889DF   		movq	%rbx, %rdi
 2128 038f E8000000 		call	_ZN8UnitTest11TestDetailsC1ERKS0_i@PLT
 2128      00
 2129 0394 C744240C 		movl	$0, 12(%rsp)
 2129      00000000 
 2130 039c E8000000 		call	_ZN8UnitTest11CurrentTest7ResultsEv@PLT
 2130      00
 2131 03a1 488B38   		movq	(%rax), %rdi
 2132 03a4 488D5424 		leaq	4(%rsp), %rdx
 2132      04
 2133 03a9 488D7424 		leaq	12(%rsp), %rsi
 2133      0C
 2134 03ae 4889D9   		movq	%rbx, %rcx
 2135 03b1 E8000000 		call	_ZN8UnitTest10CheckEqualI12BufferStatusS1_EEvRNS_11TestResultsERKT_RKT0_RKNS_11TestDetailsE
 2135      00
 2136              	.LEHE59:
 2137              	.L142:
 2138 03b6 4883EC08 		subq	$8, %rsp
 2139              		.cfi_def_cfa_offset 136
 2140 03ba 488D3D00 		leaq	.LC9(%rip), %rdi
 2140      000000
 2141 03c1 4889EA   		movq	%rbp, %rdx
 2142 03c4 6A00     		pushq	$0
 2143              		.cfi_def_cfa_offset 144
 2144 03c6 31C9     		xorl	%ecx, %ecx
 2145 03c8 31F6     		xorl	%esi, %esi
 2146 03ca 4C8D4C24 		leaq	19(%rsp), %r9
 2146      13
 2147 03cf 4C8D4424 		leaq	24(%rsp), %r8
 2147      18
 2148              	.LEHB60:
 2149 03d4 E8000000 		call	bufProcessLine@PLT
 2149      00
 2150              	.LEHE60:
 2151 03d9 89442414 		movl	%eax, 20(%rsp)
 2152 03dd 58       		popq	%rax
 2153              		.cfi_def_cfa_offset 136
 2154 03de 5A       		popq	%rdx
 2155              		.cfi_def_cfa_offset 128
 2156              	.LEHB61:
 2157 03df E8000000 		call	_ZN8UnitTest11CurrentTest7DetailsEv@PLT
 2157      00
 2158 03e4 488B30   		movq	(%rax), %rsi
 2159 03e7 BA680000 		movl	$104, %edx
 2159      00
 2160 03ec 4889DF   		movq	%rbx, %rdi
 2161 03ef E8000000 		call	_ZN8UnitTest11TestDetailsC1ERKS0_i@PLT
 2161      00
 2162 03f4 C744240C 		movl	$10, 12(%rsp)
 2162      0A000000 
 2163 03fc E8000000 		call	_ZN8UnitTest11CurrentTest7ResultsEv@PLT
 2163      00
 2164 0401 488B38   		movq	(%rax), %rdi
 2165 0404 488D5424 		leaq	4(%rsp), %rdx
 2165      04
 2166 0409 488D7424 		leaq	12(%rsp), %rsi
 2166      0C
 2167 040e 4889D9   		movq	%rbx, %rcx
 2168 0411 E8000000 		call	_ZN8UnitTest10CheckEqualI12BufferStatusS1_EEvRNS_11TestResultsERKT_RKT0_RKNS_11TestDetailsE
 2168      00
 2169              	.LEHE61:
 2170              	.L145:
 2171 0416 4889EF   		movq	%rbp, %rdi
 2172              	.LEHB62:
 2173 0419 E8000000 		call	bufDestroy@PLT
 2173      00
 2174              	.LEHE62:
 2175 041e 488B4424 		movq	88(%rsp), %rax
 2175      58
 2176 0423 64483304 		xorq	%fs:40, %rax
 2176      25280000 
 2176      00
 2177 042c 7509     		jne	.L154
 2178 042e 4883C460 		addq	$96, %rsp
 2179              		.cfi_remember_state
 2180              		.cfi_def_cfa_offset 32
 2181 0432 5B       		popq	%rbx
 2182              		.cfi_def_cfa_offset 24
 2183 0433 5D       		popq	%rbp
 2184              		.cfi_def_cfa_offset 16
 2185 0434 415C     		popq	%r12
 2186              		.cfi_def_cfa_offset 8
 2187 0436 C3       		ret
 2188              	.L154:
 2189              		.cfi_restore_state
 2190 0437 E8000000 		call	__stack_chk_fail@PLT
 2190      00
 2191              	.L150:
 2192 043c 4889C7   		movq	%rax, %rdi
 2193 043f E8000000 		call	__cxa_begin_catch@PLT
 2193      00
 2194              	.LEHB63:
 2195 0444 E8000000 		call	_ZN8UnitTest11CurrentTest7ResultsEv@PLT
 2195      00
 2196 0449 4C8B20   		movq	(%rax), %r12
 2197 044c E8000000 		call	_ZN8UnitTest11CurrentTest7DetailsEv@PLT
 2197      00
 2198 0451 488B30   		movq	(%rax), %rsi
 2199 0454 BA680000 		movl	$104, %edx
 2199      00
 2200 0459 4889DF   		movq	%rbx, %rdi
 2201 045c E8000000 		call	_ZN8UnitTest11TestDetailsC1ERKS0_i@PLT
 2201      00
 2202 0461 488D1500 		leaq	.LC10(%rip), %rdx
 2202      000000
 2203 0468 4889DE   		movq	%rbx, %rsi
 2204 046b 4C89E7   		movq	%r12, %rdi
 2205 046e E8000000 		call	_ZN8UnitTest11TestResults13OnTestFailureERKNS_11TestDetailsEPKc@PLT
 2205      00
 2206              	.LEHE63:
 2207              	.LEHB64:
 2208 0473 E8000000 		call	__cxa_end_catch@PLT
 2208      00
 2209              	.LEHE64:
 2210 0478 EB9C     		jmp	.L145
 2211              	.L148:
 2212 047a 4889C7   		movq	%rax, %rdi
 2213 047d E8000000 		call	__cxa_begin_catch@PLT
 2213      00
 2214              	.LEHB65:
 2215 0482 E8000000 		call	_ZN8UnitTest11CurrentTest7ResultsEv@PLT
 2215      00
 2216 0487 4C8B20   		movq	(%rax), %r12
 2217 048a E8000000 		call	_ZN8UnitTest11CurrentTest7DetailsEv@PLT
 2217      00
 2218 048f 488D5C24 		leaq	48(%rsp), %rbx
 2218      30
 2219 0494 488B30   		movq	(%rax), %rsi
 2220 0497 BA660000 		movl	$102, %edx
 2220      00
 2221 049c 4889DF   		movq	%rbx, %rdi
 2222 049f E8000000 		call	_ZN8UnitTest11TestDetailsC1ERKS0_i@PLT
 2222      00
 2223 04a4 488D1500 		leaq	.LC5(%rip), %rdx
 2223      000000
 2224 04ab 4889DE   		movq	%rbx, %rsi
 2225 04ae 4C89E7   		movq	%r12, %rdi
 2226 04b1 E8000000 		call	_ZN8UnitTest11TestResults13OnTestFailureERKNS_11TestDetailsEPKc@PLT
 2226      00
 2227              	.LEHE65:
 2228              	.LEHB66:
 2229 04b6 E8000000 		call	__cxa_end_catch@PLT
 2229      00
 2230              	.LEHE66:
 2231 04bb E9F6FEFF 		jmp	.L142
 2231      FF
 2232              	.L151:
 2233 04c0 4889C3   		movq	%rax, %rbx
 2234 04c3 E8000000 		call	__cxa_end_catch@PLT
 2234      00
 2235 04c8 4889DF   		movq	%rbx, %rdi
 2236              	.LEHB67:
 2237 04cb E8000000 		call	_Unwind_Resume@PLT
 2237      00
 2238              	.LEHE67:
 2239              	.L149:
 2240 04d0 4889C3   		movq	%rax, %rbx
 2241 04d3 E8000000 		call	__cxa_end_catch@PLT
 2241      00
 2242 04d8 4889DF   		movq	%rbx, %rdi
 2243              	.LEHB68:
 2244 04db E8000000 		call	_Unwind_Resume@PLT
 2244      00
 2245              	.LEHE68:
 2246              		.cfi_endproc
 2247              	.LFE1260:
 2248              		.section	.gcc_except_table
 2249              		.align 4
 2250              	.LLSDA1260:
 2251 0088 FF       		.byte	0xff
 2252 0089 9B       		.byte	0x9b
 2253 008a 41       		.uleb128 .LLSDATT1260-.LLSDATTD1260
 2254              	.LLSDATTD1260:
 2255 008b 01       		.byte	0x1
 2256 008c 39       		.uleb128 .LLSDACSE1260-.LLSDACSB1260
 2257              	.LLSDACSB1260:
 2258 008d 31       		.uleb128 .LEHB58-.LFB1260
 2259 008e 05       		.uleb128 .LEHE58-.LEHB58
 2260 008f 00       		.uleb128 0
 2261 0090 00       		.uleb128 0
 2262 0091 3A       		.uleb128 .LEHB59-.LFB1260
 2263 0092 3C       		.uleb128 .LEHE59-.LEHB59
 2264 0093 BA02     		.uleb128 .L148-.LFB1260
 2265 0095 01       		.uleb128 0x1
 2266 0096 9401     		.uleb128 .LEHB60-.LFB1260
 2267 0098 05       		.uleb128 .LEHE60-.LEHB60
 2268 0099 00       		.uleb128 0
 2269 009a 00       		.uleb128 0
 2270 009b 9F01     		.uleb128 .LEHB61-.LFB1260
 2271 009d 37       		.uleb128 .LEHE61-.LEHB61
 2272 009e FC01     		.uleb128 .L150-.LFB1260
 2273 00a0 01       		.uleb128 0x1
 2274 00a1 D901     		.uleb128 .LEHB62-.LFB1260
 2275 00a3 05       		.uleb128 .LEHE62-.LEHB62
 2276 00a4 00       		.uleb128 0
 2277 00a5 00       		.uleb128 0
 2278 00a6 8402     		.uleb128 .LEHB63-.LFB1260
 2279 00a8 2F       		.uleb128 .LEHE63-.LEHB63
 2280 00a9 8003     		.uleb128 .L151-.LFB1260
 2281 00ab 00       		.uleb128 0
 2282 00ac B302     		.uleb128 .LEHB64-.LFB1260
 2283 00ae 05       		.uleb128 .LEHE64-.LEHB64
 2284 00af 00       		.uleb128 0
 2285 00b0 00       		.uleb128 0
 2286 00b1 C202     		.uleb128 .LEHB65-.LFB1260
 2287 00b3 34       		.uleb128 .LEHE65-.LEHB65
 2288 00b4 9003     		.uleb128 .L149-.LFB1260
 2289 00b6 00       		.uleb128 0
 2290 00b7 F602     		.uleb128 .LEHB66-.LFB1260
 2291 00b9 05       		.uleb128 .LEHE66-.LEHB66
 2292 00ba 00       		.uleb128 0
 2293 00bb 00       		.uleb128 0
 2294 00bc 8B03     		.uleb128 .LEHB67-.LFB1260
 2295 00be 05       		.uleb128 .LEHE67-.LEHB67
 2296 00bf 00       		.uleb128 0
 2297 00c0 00       		.uleb128 0
 2298 00c1 9B03     		.uleb128 .LEHB68-.LFB1260
 2299 00c3 05       		.uleb128 .LEHE68-.LEHB68
 2300 00c4 00       		.uleb128 0
 2301 00c5 00       		.uleb128 0
 2302              	.LLSDACSE1260:
 2303 00c6 01       		.byte	0x1
 2304 00c7 00       		.byte	0
 2305              		.align 4
 2306 00c8 00000000 		.long	0
 2307              	
 2308              	.LLSDATT1260:
 2309              		.text
 2311              		.section	.rodata.str1.1
 2312              	.LC11:
 2313 003f 3A303430 		.string	":040B..0075820022F7\n"
 2313      422E2E30 
 2313      30373538 
 2313      32303032 
 2313      3246370A 
 2314              		.section	.rodata.str1.8
 2315 00f6 0000     		.align 8
 2316              	.LC12:
 2317 00f8 556E6861 		.string	"Unhandled exception in CHECK_EQUAL(HEX_JUNK_ADDR_LSB, status)"
 2317      6E646C65 
 2317      64206578 
 2317      63657074 
 2317      696F6E20 
 2318              		.text
 2319              		.align 2
 2320              		.p2align 4,,15
 2321              		.globl	_ZNK25TestHexIO_testJunkAddrLsb7RunImplEv
 2323              	_ZNK25TestHexIO_testJunkAddrLsb7RunImplEv:
 2324              	.LFB1264:
 2325              		.cfi_startproc
 2326              		.cfi_personality 0x9b,DW.ref.__gxx_personality_v0
 2327              		.cfi_lsda 0x1b,.LLSDA1264
 2328 04e0 4154     		pushq	%r12
 2329              		.cfi_def_cfa_offset 16
 2330              		.cfi_offset 12, -16
 2331 04e2 55       		pushq	%rbp
 2332              		.cfi_def_cfa_offset 24
 2333              		.cfi_offset 6, -24
 2334 04e3 31C9     		xorl	%ecx, %ecx
 2335 04e5 53       		pushq	%rbx
 2336              		.cfi_def_cfa_offset 32
 2337              		.cfi_offset 3, -32
 2338 04e6 31D2     		xorl	%edx, %edx
 2339 04e8 BE000400 		movl	$1024, %esi
 2339      00
 2340 04ed 4883EC60 		subq	$96, %rsp
 2341              		.cfi_def_cfa_offset 128
 2342 04f1 488D6C24 		leaq	16(%rsp), %rbp
 2342      10
 2343 04f6 C7442408 		movl	$0, 8(%rsp)
 2343      00000000 
 2344 04fe 64488B04 		movq	%fs:40, %rax
 2344      25280000 
 2344      00
 2345 0507 48894424 		movq	%rax, 88(%rsp)
 2345      58
 2346 050c 31C0     		xorl	%eax, %eax
 2347 050e 4889EF   		movq	%rbp, %rdi
 2348              	.LEHB69:
 2349 0511 E8000000 		call	bufInitialise@PLT
 2349      00
 2350              	.LEHE69:
 2351 0516 89442404 		movl	%eax, 4(%rsp)
 2352              	.LEHB70:
 2353 051a E8000000 		call	_ZN8UnitTest11CurrentTest7DetailsEv@PLT
 2353      00
 2354 051f 488D5C24 		leaq	48(%rsp), %rbx
 2354      30
 2355 0524 488B30   		movq	(%rax), %rsi
 2356 0527 BA730000 		movl	$115, %edx
 2356      00
 2357 052c 4889DF   		movq	%rbx, %rdi
 2358 052f E8000000 		call	_ZN8UnitTest11TestDetailsC1ERKS0_i@PLT
 2358      00
 2359 0534 C744240C 		movl	$0, 12(%rsp)
 2359      00000000 
 2360 053c E8000000 		call	_ZN8UnitTest11CurrentTest7ResultsEv@PLT
 2360      00
 2361 0541 488B38   		movq	(%rax), %rdi
 2362 0544 488D5424 		leaq	4(%rsp), %rdx
 2362      04
 2363 0549 488D7424 		leaq	12(%rsp), %rsi
 2363      0C
 2364 054e 4889D9   		movq	%rbx, %rcx
 2365 0551 E8000000 		call	_ZN8UnitTest10CheckEqualI12BufferStatusS1_EEvRNS_11TestResultsERKT_RKT0_RKNS_11TestDetailsE
 2365      00
 2366              	.LEHE70:
 2367              	.L157:
 2368 0556 4883EC08 		subq	$8, %rsp
 2369              		.cfi_def_cfa_offset 136
 2370 055a 488D3D00 		leaq	.LC11(%rip), %rdi
 2370      000000
 2371 0561 4889EA   		movq	%rbp, %rdx
 2372 0564 6A00     		pushq	$0
 2373              		.cfi_def_cfa_offset 144
 2374 0566 31C9     		xorl	%ecx, %ecx
 2375 0568 31F6     		xorl	%esi, %esi
 2376 056a 4C8D4C24 		leaq	19(%rsp), %r9
 2376      13
 2377 056f 4C8D4424 		leaq	24(%rsp), %r8
 2377      18
 2378              	.LEHB71:
 2379 0574 E8000000 		call	bufProcessLine@PLT
 2379      00
 2380              	.LEHE71:
 2381 0579 89442414 		movl	%eax, 20(%rsp)
 2382 057d 58       		popq	%rax
 2383              		.cfi_def_cfa_offset 136
 2384 057e 5A       		popq	%rdx
 2385              		.cfi_def_cfa_offset 128
 2386              	.LEHB72:
 2387 057f E8000000 		call	_ZN8UnitTest11CurrentTest7DetailsEv@PLT
 2387      00
 2388 0584 488B30   		movq	(%rax), %rsi
 2389 0587 BA750000 		movl	$117, %edx
 2389      00
 2390 058c 4889DF   		movq	%rbx, %rdi
 2391 058f E8000000 		call	_ZN8UnitTest11TestDetailsC1ERKS0_i@PLT
 2391      00
 2392 0594 C744240C 		movl	$11, 12(%rsp)
 2392      0B000000 
 2393 059c E8000000 		call	_ZN8UnitTest11CurrentTest7ResultsEv@PLT
 2393      00
 2394 05a1 488B38   		movq	(%rax), %rdi
 2395 05a4 488D5424 		leaq	4(%rsp), %rdx
 2395      04
 2396 05a9 488D7424 		leaq	12(%rsp), %rsi
 2396      0C
 2397 05ae 4889D9   		movq	%rbx, %rcx
 2398 05b1 E8000000 		call	_ZN8UnitTest10CheckEqualI12BufferStatusS1_EEvRNS_11TestResultsERKT_RKT0_RKNS_11TestDetailsE
 2398      00
 2399              	.LEHE72:
 2400              	.L160:
 2401 05b6 4889EF   		movq	%rbp, %rdi
 2402              	.LEHB73:
 2403 05b9 E8000000 		call	bufDestroy@PLT
 2403      00
 2404              	.LEHE73:
 2405 05be 488B4424 		movq	88(%rsp), %rax
 2405      58
 2406 05c3 64483304 		xorq	%fs:40, %rax
 2406      25280000 
 2406      00
 2407 05cc 7509     		jne	.L169
 2408 05ce 4883C460 		addq	$96, %rsp
 2409              		.cfi_remember_state
 2410              		.cfi_def_cfa_offset 32
 2411 05d2 5B       		popq	%rbx
 2412              		.cfi_def_cfa_offset 24
 2413 05d3 5D       		popq	%rbp
 2414              		.cfi_def_cfa_offset 16
 2415 05d4 415C     		popq	%r12
 2416              		.cfi_def_cfa_offset 8
 2417 05d6 C3       		ret
 2418              	.L169:
 2419              		.cfi_restore_state
 2420 05d7 E8000000 		call	__stack_chk_fail@PLT
 2420      00
 2421              	.L165:
 2422 05dc 4889C7   		movq	%rax, %rdi
 2423 05df E8000000 		call	__cxa_begin_catch@PLT
 2423      00
 2424              	.LEHB74:
 2425 05e4 E8000000 		call	_ZN8UnitTest11CurrentTest7ResultsEv@PLT
 2425      00
 2426 05e9 4C8B20   		movq	(%rax), %r12
 2427 05ec E8000000 		call	_ZN8UnitTest11CurrentTest7DetailsEv@PLT
 2427      00
 2428 05f1 488B30   		movq	(%rax), %rsi
 2429 05f4 BA750000 		movl	$117, %edx
 2429      00
 2430 05f9 4889DF   		movq	%rbx, %rdi
 2431 05fc E8000000 		call	_ZN8UnitTest11TestDetailsC1ERKS0_i@PLT
 2431      00
 2432 0601 488D1500 		leaq	.LC12(%rip), %rdx
 2432      000000
 2433 0608 4889DE   		movq	%rbx, %rsi
 2434 060b 4C89E7   		movq	%r12, %rdi
 2435 060e E8000000 		call	_ZN8UnitTest11TestResults13OnTestFailureERKNS_11TestDetailsEPKc@PLT
 2435      00
 2436              	.LEHE74:
 2437              	.LEHB75:
 2438 0613 E8000000 		call	__cxa_end_catch@PLT
 2438      00
 2439              	.LEHE75:
 2440 0618 EB9C     		jmp	.L160
 2441              	.L163:
 2442 061a 4889C7   		movq	%rax, %rdi
 2443 061d E8000000 		call	__cxa_begin_catch@PLT
 2443      00
 2444              	.LEHB76:
 2445 0622 E8000000 		call	_ZN8UnitTest11CurrentTest7ResultsEv@PLT
 2445      00
 2446 0627 4C8B20   		movq	(%rax), %r12
 2447 062a E8000000 		call	_ZN8UnitTest11CurrentTest7DetailsEv@PLT
 2447      00
 2448 062f 488D5C24 		leaq	48(%rsp), %rbx
 2448      30
 2449 0634 488B30   		movq	(%rax), %rsi
 2450 0637 BA730000 		movl	$115, %edx
 2450      00
 2451 063c 4889DF   		movq	%rbx, %rdi
 2452 063f E8000000 		call	_ZN8UnitTest11TestDetailsC1ERKS0_i@PLT
 2452      00
 2453 0644 488D1500 		leaq	.LC5(%rip), %rdx
 2453      000000
 2454 064b 4889DE   		movq	%rbx, %rsi
 2455 064e 4C89E7   		movq	%r12, %rdi
 2456 0651 E8000000 		call	_ZN8UnitTest11TestResults13OnTestFailureERKNS_11TestDetailsEPKc@PLT
 2456      00
 2457              	.LEHE76:
 2458              	.LEHB77:
 2459 0656 E8000000 		call	__cxa_end_catch@PLT
 2459      00
 2460              	.LEHE77:
 2461 065b E9F6FEFF 		jmp	.L157
 2461      FF
 2462              	.L166:
 2463 0660 4889C3   		movq	%rax, %rbx
 2464 0663 E8000000 		call	__cxa_end_catch@PLT
 2464      00
 2465 0668 4889DF   		movq	%rbx, %rdi
 2466              	.LEHB78:
 2467 066b E8000000 		call	_Unwind_Resume@PLT
 2467      00
 2468              	.LEHE78:
 2469              	.L164:
 2470 0670 4889C3   		movq	%rax, %rbx
 2471 0673 E8000000 		call	__cxa_end_catch@PLT
 2471      00
 2472 0678 4889DF   		movq	%rbx, %rdi
 2473              	.LEHB79:
 2474 067b E8000000 		call	_Unwind_Resume@PLT
 2474      00
 2475              	.LEHE79:
 2476              		.cfi_endproc
 2477              	.LFE1264:
 2478              		.section	.gcc_except_table
 2479              		.align 4
 2480              	.LLSDA1264:
 2481 00cc FF       		.byte	0xff
 2482 00cd 9B       		.byte	0x9b
 2483 00ce 41       		.uleb128 .LLSDATT1264-.LLSDATTD1264
 2484              	.LLSDATTD1264:
 2485 00cf 01       		.byte	0x1
 2486 00d0 39       		.uleb128 .LLSDACSE1264-.LLSDACSB1264
 2487              	.LLSDACSB1264:
 2488 00d1 31       		.uleb128 .LEHB69-.LFB1264
 2489 00d2 05       		.uleb128 .LEHE69-.LEHB69
 2490 00d3 00       		.uleb128 0
 2491 00d4 00       		.uleb128 0
 2492 00d5 3A       		.uleb128 .LEHB70-.LFB1264
 2493 00d6 3C       		.uleb128 .LEHE70-.LEHB70
 2494 00d7 BA02     		.uleb128 .L163-.LFB1264
 2495 00d9 01       		.uleb128 0x1
 2496 00da 9401     		.uleb128 .LEHB71-.LFB1264
 2497 00dc 05       		.uleb128 .LEHE71-.LEHB71
 2498 00dd 00       		.uleb128 0
 2499 00de 00       		.uleb128 0
 2500 00df 9F01     		.uleb128 .LEHB72-.LFB1264
 2501 00e1 37       		.uleb128 .LEHE72-.LEHB72
 2502 00e2 FC01     		.uleb128 .L165-.LFB1264
 2503 00e4 01       		.uleb128 0x1
 2504 00e5 D901     		.uleb128 .LEHB73-.LFB1264
 2505 00e7 05       		.uleb128 .LEHE73-.LEHB73
 2506 00e8 00       		.uleb128 0
 2507 00e9 00       		.uleb128 0
 2508 00ea 8402     		.uleb128 .LEHB74-.LFB1264
 2509 00ec 2F       		.uleb128 .LEHE74-.LEHB74
 2510 00ed 8003     		.uleb128 .L166-.LFB1264
 2511 00ef 00       		.uleb128 0
 2512 00f0 B302     		.uleb128 .LEHB75-.LFB1264
 2513 00f2 05       		.uleb128 .LEHE75-.LEHB75
 2514 00f3 00       		.uleb128 0
 2515 00f4 00       		.uleb128 0
 2516 00f5 C202     		.uleb128 .LEHB76-.LFB1264
 2517 00f7 34       		.uleb128 .LEHE76-.LEHB76
 2518 00f8 9003     		.uleb128 .L164-.LFB1264
 2519 00fa 00       		.uleb128 0
 2520 00fb F602     		.uleb128 .LEHB77-.LFB1264
 2521 00fd 05       		.uleb128 .LEHE77-.LEHB77
 2522 00fe 00       		.uleb128 0
 2523 00ff 00       		.uleb128 0
 2524 0100 8B03     		.uleb128 .LEHB78-.LFB1264
 2525 0102 05       		.uleb128 .LEHE78-.LEHB78
 2526 0103 00       		.uleb128 0
 2527 0104 00       		.uleb128 0
 2528 0105 9B03     		.uleb128 .LEHB79-.LFB1264
 2529 0107 05       		.uleb128 .LEHE79-.LEHB79
 2530 0108 00       		.uleb128 0
 2531 0109 00       		.uleb128 0
 2532              	.LLSDACSE1264:
 2533 010a 01       		.byte	0x1
 2534 010b 00       		.byte	0
 2535              		.align 4
 2536 010c 00000000 		.long	0
 2537              	
 2538              	.LLSDATT1264:
 2539              		.text
 2541              		.section	.rodata.str1.1
 2542              	.LC13:
 2543 0054 3A303430 		.string	":040BE1..75820022F7\n"
 2543      4245312E 
 2543      2E373538 
 2543      32303032 
 2543      3246370A 
 2544              		.section	.rodata.str1.8
 2545 0136 0000     		.align 8
 2546              	.LC14:
 2547 0138 556E6861 		.string	"Unhandled exception in CHECK_EQUAL(HEX_JUNK_REC_TYPE, status)"
 2547      6E646C65 
 2547      64206578 
 2547      63657074 
 2547      696F6E20 
 2548              		.text
 2549              		.align 2
 2550              		.p2align 4,,15
 2551              		.globl	_ZNK25TestHexIO_testJunkRecType7RunImplEv
 2553              	_ZNK25TestHexIO_testJunkRecType7RunImplEv:
 2554              	.LFB1268:
 2555              		.cfi_startproc
 2556              		.cfi_personality 0x9b,DW.ref.__gxx_personality_v0
 2557              		.cfi_lsda 0x1b,.LLSDA1268
 2558 0680 4154     		pushq	%r12
 2559              		.cfi_def_cfa_offset 16
 2560              		.cfi_offset 12, -16
 2561 0682 55       		pushq	%rbp
 2562              		.cfi_def_cfa_offset 24
 2563              		.cfi_offset 6, -24
 2564 0683 31C9     		xorl	%ecx, %ecx
 2565 0685 53       		pushq	%rbx
 2566              		.cfi_def_cfa_offset 32
 2567              		.cfi_offset 3, -32
 2568 0686 31D2     		xorl	%edx, %edx
 2569 0688 BE000400 		movl	$1024, %esi
 2569      00
 2570 068d 4883EC60 		subq	$96, %rsp
 2571              		.cfi_def_cfa_offset 128
 2572 0691 488D6C24 		leaq	16(%rsp), %rbp
 2572      10
 2573 0696 C7442408 		movl	$0, 8(%rsp)
 2573      00000000 
 2574 069e 64488B04 		movq	%fs:40, %rax
 2574      25280000 
 2574      00
 2575 06a7 48894424 		movq	%rax, 88(%rsp)
 2575      58
 2576 06ac 31C0     		xorl	%eax, %eax
 2577 06ae 4889EF   		movq	%rbp, %rdi
 2578              	.LEHB80:
 2579 06b1 E8000000 		call	bufInitialise@PLT
 2579      00
 2580              	.LEHE80:
 2581 06b6 89442404 		movl	%eax, 4(%rsp)
 2582              	.LEHB81:
 2583 06ba E8000000 		call	_ZN8UnitTest11CurrentTest7DetailsEv@PLT
 2583      00
 2584 06bf 488D5C24 		leaq	48(%rsp), %rbx
 2584      30
 2585 06c4 488B30   		movq	(%rax), %rsi
 2586 06c7 BA800000 		movl	$128, %edx
 2586      00
 2587 06cc 4889DF   		movq	%rbx, %rdi
 2588 06cf E8000000 		call	_ZN8UnitTest11TestDetailsC1ERKS0_i@PLT
 2588      00
 2589 06d4 C744240C 		movl	$0, 12(%rsp)
 2589      00000000 
 2590 06dc E8000000 		call	_ZN8UnitTest11CurrentTest7ResultsEv@PLT
 2590      00
 2591 06e1 488B38   		movq	(%rax), %rdi
 2592 06e4 488D5424 		leaq	4(%rsp), %rdx
 2592      04
 2593 06e9 488D7424 		leaq	12(%rsp), %rsi
 2593      0C
 2594 06ee 4889D9   		movq	%rbx, %rcx
 2595 06f1 E8000000 		call	_ZN8UnitTest10CheckEqualI12BufferStatusS1_EEvRNS_11TestResultsERKT_RKT0_RKNS_11TestDetailsE
 2595      00
 2596              	.LEHE81:
 2597              	.L172:
 2598 06f6 4883EC08 		subq	$8, %rsp
 2599              		.cfi_def_cfa_offset 136
 2600 06fa 488D3D00 		leaq	.LC13(%rip), %rdi
 2600      000000
 2601 0701 4889EA   		movq	%rbp, %rdx
 2602 0704 6A00     		pushq	$0
 2603              		.cfi_def_cfa_offset 144
 2604 0706 31C9     		xorl	%ecx, %ecx
 2605 0708 31F6     		xorl	%esi, %esi
 2606 070a 4C8D4C24 		leaq	19(%rsp), %r9
 2606      13
 2607 070f 4C8D4424 		leaq	24(%rsp), %r8
 2607      18
 2608              	.LEHB82:
 2609 0714 E8000000 		call	bufProcessLine@PLT
 2609      00
 2610              	.LEHE82:
 2611 0719 89442414 		movl	%eax, 20(%rsp)
 2612 071d 58       		popq	%rax
 2613              		.cfi_def_cfa_offset 136
 2614 071e 5A       		popq	%rdx
 2615              		.cfi_def_cfa_offset 128
 2616              	.LEHB83:
 2617 071f E8000000 		call	_ZN8UnitTest11CurrentTest7DetailsEv@PLT
 2617      00
 2618 0724 488B30   		movq	(%rax), %rsi
 2619 0727 BA820000 		movl	$130, %edx
 2619      00
 2620 072c 4889DF   		movq	%rbx, %rdi
 2621 072f E8000000 		call	_ZN8UnitTest11TestDetailsC1ERKS0_i@PLT
 2621      00
 2622 0734 C744240C 		movl	$12, 12(%rsp)
 2622      0C000000 
 2623 073c E8000000 		call	_ZN8UnitTest11CurrentTest7ResultsEv@PLT
 2623      00
 2624 0741 488B38   		movq	(%rax), %rdi
 2625 0744 488D5424 		leaq	4(%rsp), %rdx
 2625      04
 2626 0749 488D7424 		leaq	12(%rsp), %rsi
 2626      0C
 2627 074e 4889D9   		movq	%rbx, %rcx
 2628 0751 E8000000 		call	_ZN8UnitTest10CheckEqualI12BufferStatusS1_EEvRNS_11TestResultsERKT_RKT0_RKNS_11TestDetailsE
 2628      00
 2629              	.LEHE83:
 2630              	.L175:
 2631 0756 4889EF   		movq	%rbp, %rdi
 2632              	.LEHB84:
 2633 0759 E8000000 		call	bufDestroy@PLT
 2633      00
 2634              	.LEHE84:
 2635 075e 488B4424 		movq	88(%rsp), %rax
 2635      58
 2636 0763 64483304 		xorq	%fs:40, %rax
 2636      25280000 
 2636      00
 2637 076c 7509     		jne	.L184
 2638 076e 4883C460 		addq	$96, %rsp
 2639              		.cfi_remember_state
 2640              		.cfi_def_cfa_offset 32
 2641 0772 5B       		popq	%rbx
 2642              		.cfi_def_cfa_offset 24
 2643 0773 5D       		popq	%rbp
 2644              		.cfi_def_cfa_offset 16
 2645 0774 415C     		popq	%r12
 2646              		.cfi_def_cfa_offset 8
 2647 0776 C3       		ret
 2648              	.L184:
 2649              		.cfi_restore_state
 2650 0777 E8000000 		call	__stack_chk_fail@PLT
 2650      00
 2651              	.L180:
 2652 077c 4889C7   		movq	%rax, %rdi
 2653 077f E8000000 		call	__cxa_begin_catch@PLT
 2653      00
 2654              	.LEHB85:
 2655 0784 E8000000 		call	_ZN8UnitTest11CurrentTest7ResultsEv@PLT
 2655      00
 2656 0789 4C8B20   		movq	(%rax), %r12
 2657 078c E8000000 		call	_ZN8UnitTest11CurrentTest7DetailsEv@PLT
 2657      00
 2658 0791 488B30   		movq	(%rax), %rsi
 2659 0794 BA820000 		movl	$130, %edx
 2659      00
 2660 0799 4889DF   		movq	%rbx, %rdi
 2661 079c E8000000 		call	_ZN8UnitTest11TestDetailsC1ERKS0_i@PLT
 2661      00
 2662 07a1 488D1500 		leaq	.LC14(%rip), %rdx
 2662      000000
 2663 07a8 4889DE   		movq	%rbx, %rsi
 2664 07ab 4C89E7   		movq	%r12, %rdi
 2665 07ae E8000000 		call	_ZN8UnitTest11TestResults13OnTestFailureERKNS_11TestDetailsEPKc@PLT
 2665      00
 2666              	.LEHE85:
 2667              	.LEHB86:
 2668 07b3 E8000000 		call	__cxa_end_catch@PLT
 2668      00
 2669              	.LEHE86:
 2670 07b8 EB9C     		jmp	.L175
 2671              	.L178:
 2672 07ba 4889C7   		movq	%rax, %rdi
 2673 07bd E8000000 		call	__cxa_begin_catch@PLT
 2673      00
 2674              	.LEHB87:
 2675 07c2 E8000000 		call	_ZN8UnitTest11CurrentTest7ResultsEv@PLT
 2675      00
 2676 07c7 4C8B20   		movq	(%rax), %r12
 2677 07ca E8000000 		call	_ZN8UnitTest11CurrentTest7DetailsEv@PLT
 2677      00
 2678 07cf 488D5C24 		leaq	48(%rsp), %rbx
 2678      30
 2679 07d4 488B30   		movq	(%rax), %rsi
 2680 07d7 BA800000 		movl	$128, %edx
 2680      00
 2681 07dc 4889DF   		movq	%rbx, %rdi
 2682 07df E8000000 		call	_ZN8UnitTest11TestDetailsC1ERKS0_i@PLT
 2682      00
 2683 07e4 488D1500 		leaq	.LC5(%rip), %rdx
 2683      000000
 2684 07eb 4889DE   		movq	%rbx, %rsi
 2685 07ee 4C89E7   		movq	%r12, %rdi
 2686 07f1 E8000000 		call	_ZN8UnitTest11TestResults13OnTestFailureERKNS_11TestDetailsEPKc@PLT
 2686      00
 2687              	.LEHE87:
 2688              	.LEHB88:
 2689 07f6 E8000000 		call	__cxa_end_catch@PLT
 2689      00
 2690              	.LEHE88:
 2691 07fb E9F6FEFF 		jmp	.L172
 2691      FF
 2692              	.L181:
 2693 0800 4889C3   		movq	%rax, %rbx
 2694 0803 E8000000 		call	__cxa_end_catch@PLT
 2694      00
 2695 0808 4889DF   		movq	%rbx, %rdi
 2696              	.LEHB89:
 2697 080b E8000000 		call	_Unwind_Resume@PLT
 2697      00
 2698              	.LEHE89:
 2699              	.L179:
 2700 0810 4889C3   		movq	%rax, %rbx
 2701 0813 E8000000 		call	__cxa_end_catch@PLT
 2701      00
 2702 0818 4889DF   		movq	%rbx, %rdi
 2703              	.LEHB90:
 2704 081b E8000000 		call	_Unwind_Resume@PLT
 2704      00
 2705              	.LEHE90:
 2706              		.cfi_endproc
 2707              	.LFE1268:
 2708              		.section	.gcc_except_table
 2709              		.align 4
 2710              	.LLSDA1268:
 2711 0110 FF       		.byte	0xff
 2712 0111 9B       		.byte	0x9b
 2713 0112 41       		.uleb128 .LLSDATT1268-.LLSDATTD1268
 2714              	.LLSDATTD1268:
 2715 0113 01       		.byte	0x1
 2716 0114 39       		.uleb128 .LLSDACSE1268-.LLSDACSB1268
 2717              	.LLSDACSB1268:
 2718 0115 31       		.uleb128 .LEHB80-.LFB1268
 2719 0116 05       		.uleb128 .LEHE80-.LEHB80
 2720 0117 00       		.uleb128 0
 2721 0118 00       		.uleb128 0
 2722 0119 3A       		.uleb128 .LEHB81-.LFB1268
 2723 011a 3C       		.uleb128 .LEHE81-.LEHB81
 2724 011b BA02     		.uleb128 .L178-.LFB1268
 2725 011d 01       		.uleb128 0x1
 2726 011e 9401     		.uleb128 .LEHB82-.LFB1268
 2727 0120 05       		.uleb128 .LEHE82-.LEHB82
 2728 0121 00       		.uleb128 0
 2729 0122 00       		.uleb128 0
 2730 0123 9F01     		.uleb128 .LEHB83-.LFB1268
 2731 0125 37       		.uleb128 .LEHE83-.LEHB83
 2732 0126 FC01     		.uleb128 .L180-.LFB1268
 2733 0128 01       		.uleb128 0x1
 2734 0129 D901     		.uleb128 .LEHB84-.LFB1268
 2735 012b 05       		.uleb128 .LEHE84-.LEHB84
 2736 012c 00       		.uleb128 0
 2737 012d 00       		.uleb128 0
 2738 012e 8402     		.uleb128 .LEHB85-.LFB1268
 2739 0130 2F       		.uleb128 .LEHE85-.LEHB85
 2740 0131 8003     		.uleb128 .L181-.LFB1268
 2741 0133 00       		.uleb128 0
 2742 0134 B302     		.uleb128 .LEHB86-.LFB1268
 2743 0136 05       		.uleb128 .LEHE86-.LEHB86
 2744 0137 00       		.uleb128 0
 2745 0138 00       		.uleb128 0
 2746 0139 C202     		.uleb128 .LEHB87-.LFB1268
 2747 013b 34       		.uleb128 .LEHE87-.LEHB87
 2748 013c 9003     		.uleb128 .L179-.LFB1268
 2749 013e 00       		.uleb128 0
 2750 013f F602     		.uleb128 .LEHB88-.LFB1268
 2751 0141 05       		.uleb128 .LEHE88-.LEHB88
 2752 0142 00       		.uleb128 0
 2753 0143 00       		.uleb128 0
 2754 0144 8B03     		.uleb128 .LEHB89-.LFB1268
 2755 0146 05       		.uleb128 .LEHE89-.LEHB89
 2756 0147 00       		.uleb128 0
 2757 0148 00       		.uleb128 0
 2758 0149 9B03     		.uleb128 .LEHB90-.LFB1268
 2759 014b 05       		.uleb128 .LEHE90-.LEHB90
 2760 014c 00       		.uleb128 0
 2761 014d 00       		.uleb128 0
 2762              	.LLSDACSE1268:
 2763 014e 01       		.byte	0x1
 2764 014f 00       		.byte	0
 2765              		.align 4
 2766 0150 00000000 		.long	0
 2767              	
 2768              	.LLSDATT1268:
 2769              		.text
 2771              		.section	.rodata.str1.1
 2772              	.LC15:
 2773 0069 3A303430 		.string	":040BE100..820022F7\n"
 2773      42453130 
 2773      302E2E38 
 2773      32303032 
 2773      3246370A 
 2774              		.section	.rodata.str1.8
 2775 0176 0000     		.align 8
 2776              	.LC16:
 2777 0178 556E6861 		.string	"Unhandled exception in CHECK_EQUAL(HEX_JUNK_DATA_BYTE, status)"
 2777      6E646C65 
 2777      64206578 
 2777      63657074 
 2777      696F6E20 
 2778              		.text
 2779              		.align 2
 2780              		.p2align 4,,15
 2781              		.globl	_ZNK26TestHexIO_testJunkDataByte7RunImplEv
 2783              	_ZNK26TestHexIO_testJunkDataByte7RunImplEv:
 2784              	.LFB1272:
 2785              		.cfi_startproc
 2786              		.cfi_personality 0x9b,DW.ref.__gxx_personality_v0
 2787              		.cfi_lsda 0x1b,.LLSDA1272
 2788 0820 4154     		pushq	%r12
 2789              		.cfi_def_cfa_offset 16
 2790              		.cfi_offset 12, -16
 2791 0822 55       		pushq	%rbp
 2792              		.cfi_def_cfa_offset 24
 2793              		.cfi_offset 6, -24
 2794 0823 31C9     		xorl	%ecx, %ecx
 2795 0825 53       		pushq	%rbx
 2796              		.cfi_def_cfa_offset 32
 2797              		.cfi_offset 3, -32
 2798 0826 31D2     		xorl	%edx, %edx
 2799 0828 BE000400 		movl	$1024, %esi
 2799      00
 2800 082d 4883EC60 		subq	$96, %rsp
 2801              		.cfi_def_cfa_offset 128
 2802 0831 488D6C24 		leaq	16(%rsp), %rbp
 2802      10
 2803 0836 C7442408 		movl	$0, 8(%rsp)
 2803      00000000 
 2804 083e 64488B04 		movq	%fs:40, %rax
 2804      25280000 
 2804      00
 2805 0847 48894424 		movq	%rax, 88(%rsp)
 2805      58
 2806 084c 31C0     		xorl	%eax, %eax
 2807 084e 4889EF   		movq	%rbp, %rdi
 2808              	.LEHB91:
 2809 0851 E8000000 		call	bufInitialise@PLT
 2809      00
 2810              	.LEHE91:
 2811 0856 89442404 		movl	%eax, 4(%rsp)
 2812              	.LEHB92:
 2813 085a E8000000 		call	_ZN8UnitTest11CurrentTest7DetailsEv@PLT
 2813      00
 2814 085f 488D5C24 		leaq	48(%rsp), %rbx
 2814      30
 2815 0864 488B30   		movq	(%rax), %rsi
 2816 0867 BA8D0000 		movl	$141, %edx
 2816      00
 2817 086c 4889DF   		movq	%rbx, %rdi
 2818 086f E8000000 		call	_ZN8UnitTest11TestDetailsC1ERKS0_i@PLT
 2818      00
 2819 0874 C744240C 		movl	$0, 12(%rsp)
 2819      00000000 
 2820 087c E8000000 		call	_ZN8UnitTest11CurrentTest7ResultsEv@PLT
 2820      00
 2821 0881 488B38   		movq	(%rax), %rdi
 2822 0884 488D5424 		leaq	4(%rsp), %rdx
 2822      04
 2823 0889 488D7424 		leaq	12(%rsp), %rsi
 2823      0C
 2824 088e 4889D9   		movq	%rbx, %rcx
 2825 0891 E8000000 		call	_ZN8UnitTest10CheckEqualI12BufferStatusS1_EEvRNS_11TestResultsERKT_RKT0_RKNS_11TestDetailsE
 2825      00
 2826              	.LEHE92:
 2827              	.L187:
 2828 0896 4883EC08 		subq	$8, %rsp
 2829              		.cfi_def_cfa_offset 136
 2830 089a 488D3D00 		leaq	.LC15(%rip), %rdi
 2830      000000
 2831 08a1 4889EA   		movq	%rbp, %rdx
 2832 08a4 6A00     		pushq	$0
 2833              		.cfi_def_cfa_offset 144
 2834 08a6 31C9     		xorl	%ecx, %ecx
 2835 08a8 31F6     		xorl	%esi, %esi
 2836 08aa 4C8D4C24 		leaq	19(%rsp), %r9
 2836      13
 2837 08af 4C8D4424 		leaq	24(%rsp), %r8
 2837      18
 2838              	.LEHB93:
 2839 08b4 E8000000 		call	bufProcessLine@PLT
 2839      00
 2840              	.LEHE93:
 2841 08b9 89442414 		movl	%eax, 20(%rsp)
 2842 08bd 58       		popq	%rax
 2843              		.cfi_def_cfa_offset 136
 2844 08be 5A       		popq	%rdx
 2845              		.cfi_def_cfa_offset 128
 2846              	.LEHB94:
 2847 08bf E8000000 		call	_ZN8UnitTest11CurrentTest7DetailsEv@PLT
 2847      00
 2848 08c4 488B30   		movq	(%rax), %rsi
 2849 08c7 BA8F0000 		movl	$143, %edx
 2849      00
 2850 08cc 4889DF   		movq	%rbx, %rdi
 2851 08cf E8000000 		call	_ZN8UnitTest11TestDetailsC1ERKS0_i@PLT
 2851      00
 2852 08d4 C744240C 		movl	$14, 12(%rsp)
 2852      0E000000 
 2853 08dc E8000000 		call	_ZN8UnitTest11CurrentTest7ResultsEv@PLT
 2853      00
 2854 08e1 488B38   		movq	(%rax), %rdi
 2855 08e4 488D5424 		leaq	4(%rsp), %rdx
 2855      04
 2856 08e9 488D7424 		leaq	12(%rsp), %rsi
 2856      0C
 2857 08ee 4889D9   		movq	%rbx, %rcx
 2858 08f1 E8000000 		call	_ZN8UnitTest10CheckEqualI12BufferStatusS1_EEvRNS_11TestResultsERKT_RKT0_RKNS_11TestDetailsE
 2858      00
 2859              	.LEHE94:
 2860              	.L190:
 2861 08f6 4889EF   		movq	%rbp, %rdi
 2862              	.LEHB95:
 2863 08f9 E8000000 		call	bufDestroy@PLT
 2863      00
 2864              	.LEHE95:
 2865 08fe 488B4424 		movq	88(%rsp), %rax
 2865      58
 2866 0903 64483304 		xorq	%fs:40, %rax
 2866      25280000 
 2866      00
 2867 090c 7509     		jne	.L199
 2868 090e 4883C460 		addq	$96, %rsp
 2869              		.cfi_remember_state
 2870              		.cfi_def_cfa_offset 32
 2871 0912 5B       		popq	%rbx
 2872              		.cfi_def_cfa_offset 24
 2873 0913 5D       		popq	%rbp
 2874              		.cfi_def_cfa_offset 16
 2875 0914 415C     		popq	%r12
 2876              		.cfi_def_cfa_offset 8
 2877 0916 C3       		ret
 2878              	.L199:
 2879              		.cfi_restore_state
 2880 0917 E8000000 		call	__stack_chk_fail@PLT
 2880      00
 2881              	.L195:
 2882 091c 4889C7   		movq	%rax, %rdi
 2883 091f E8000000 		call	__cxa_begin_catch@PLT
 2883      00
 2884              	.LEHB96:
 2885 0924 E8000000 		call	_ZN8UnitTest11CurrentTest7ResultsEv@PLT
 2885      00
 2886 0929 4C8B20   		movq	(%rax), %r12
 2887 092c E8000000 		call	_ZN8UnitTest11CurrentTest7DetailsEv@PLT
 2887      00
 2888 0931 488B30   		movq	(%rax), %rsi
 2889 0934 BA8F0000 		movl	$143, %edx
 2889      00
 2890 0939 4889DF   		movq	%rbx, %rdi
 2891 093c E8000000 		call	_ZN8UnitTest11TestDetailsC1ERKS0_i@PLT
 2891      00
 2892 0941 488D1500 		leaq	.LC16(%rip), %rdx
 2892      000000
 2893 0948 4889DE   		movq	%rbx, %rsi
 2894 094b 4C89E7   		movq	%r12, %rdi
 2895 094e E8000000 		call	_ZN8UnitTest11TestResults13OnTestFailureERKNS_11TestDetailsEPKc@PLT
 2895      00
 2896              	.LEHE96:
 2897              	.LEHB97:
 2898 0953 E8000000 		call	__cxa_end_catch@PLT
 2898      00
 2899              	.LEHE97:
 2900 0958 EB9C     		jmp	.L190
 2901              	.L193:
 2902 095a 4889C7   		movq	%rax, %rdi
 2903 095d E8000000 		call	__cxa_begin_catch@PLT
 2903      00
 2904              	.LEHB98:
 2905 0962 E8000000 		call	_ZN8UnitTest11CurrentTest7ResultsEv@PLT
 2905      00
 2906 0967 4C8B20   		movq	(%rax), %r12
 2907 096a E8000000 		call	_ZN8UnitTest11CurrentTest7DetailsEv@PLT
 2907      00
 2908 096f 488D5C24 		leaq	48(%rsp), %rbx
 2908      30
 2909 0974 488B30   		movq	(%rax), %rsi
 2910 0977 BA8D0000 		movl	$141, %edx
 2910      00
 2911 097c 4889DF   		movq	%rbx, %rdi
 2912 097f E8000000 		call	_ZN8UnitTest11TestDetailsC1ERKS0_i@PLT
 2912      00
 2913 0984 488D1500 		leaq	.LC5(%rip), %rdx
 2913      000000
 2914 098b 4889DE   		movq	%rbx, %rsi
 2915 098e 4C89E7   		movq	%r12, %rdi
 2916 0991 E8000000 		call	_ZN8UnitTest11TestResults13OnTestFailureERKNS_11TestDetailsEPKc@PLT
 2916      00
 2917              	.LEHE98:
 2918              	.LEHB99:
 2919 0996 E8000000 		call	__cxa_end_catch@PLT
 2919      00
 2920              	.LEHE99:
 2921 099b E9F6FEFF 		jmp	.L187
 2921      FF
 2922              	.L196:
 2923 09a0 4889C3   		movq	%rax, %rbx
 2924 09a3 E8000000 		call	__cxa_end_catch@PLT
 2924      00
 2925 09a8 4889DF   		movq	%rbx, %rdi
 2926              	.LEHB100:
 2927 09ab E8000000 		call	_Unwind_Resume@PLT
 2927      00
 2928              	.LEHE100:
 2929              	.L194:
 2930 09b0 4889C3   		movq	%rax, %rbx
 2931 09b3 E8000000 		call	__cxa_end_catch@PLT
 2931      00
 2932 09b8 4889DF   		movq	%rbx, %rdi
 2933              	.LEHB101:
 2934 09bb E8000000 		call	_Unwind_Resume@PLT
 2934      00
 2935              	.LEHE101:
 2936              		.cfi_endproc
 2937              	.LFE1272:
 2938              		.section	.gcc_except_table
 2939              		.align 4
 2940              	.LLSDA1272:
 2941 0154 FF       		.byte	0xff
 2942 0155 9B       		.byte	0x9b
 2943 0156 41       		.uleb128 .LLSDATT1272-.LLSDATTD1272
 2944              	.LLSDATTD1272:
 2945 0157 01       		.byte	0x1
 2946 0158 39       		.uleb128 .LLSDACSE1272-.LLSDACSB1272
 2947              	.LLSDACSB1272:
 2948 0159 31       		.uleb128 .LEHB91-.LFB1272
 2949 015a 05       		.uleb128 .LEHE91-.LEHB91
 2950 015b 00       		.uleb128 0
 2951 015c 00       		.uleb128 0
 2952 015d 3A       		.uleb128 .LEHB92-.LFB1272
 2953 015e 3C       		.uleb128 .LEHE92-.LEHB92
 2954 015f BA02     		.uleb128 .L193-.LFB1272
 2955 0161 01       		.uleb128 0x1
 2956 0162 9401     		.uleb128 .LEHB93-.LFB1272
 2957 0164 05       		.uleb128 .LEHE93-.LEHB93
 2958 0165 00       		.uleb128 0
 2959 0166 00       		.uleb128 0
 2960 0167 9F01     		.uleb128 .LEHB94-.LFB1272
 2961 0169 37       		.uleb128 .LEHE94-.LEHB94
 2962 016a FC01     		.uleb128 .L195-.LFB1272
 2963 016c 01       		.uleb128 0x1
 2964 016d D901     		.uleb128 .LEHB95-.LFB1272
 2965 016f 05       		.uleb128 .LEHE95-.LEHB95
 2966 0170 00       		.uleb128 0
 2967 0171 00       		.uleb128 0
 2968 0172 8402     		.uleb128 .LEHB96-.LFB1272
 2969 0174 2F       		.uleb128 .LEHE96-.LEHB96
 2970 0175 8003     		.uleb128 .L196-.LFB1272
 2971 0177 00       		.uleb128 0
 2972 0178 B302     		.uleb128 .LEHB97-.LFB1272
 2973 017a 05       		.uleb128 .LEHE97-.LEHB97
 2974 017b 00       		.uleb128 0
 2975 017c 00       		.uleb128 0
 2976 017d C202     		.uleb128 .LEHB98-.LFB1272
 2977 017f 34       		.uleb128 .LEHE98-.LEHB98
 2978 0180 9003     		.uleb128 .L194-.LFB1272
 2979 0182 00       		.uleb128 0
 2980 0183 F602     		.uleb128 .LEHB99-.LFB1272
 2981 0185 05       		.uleb128 .LEHE99-.LEHB99
 2982 0186 00       		.uleb128 0
 2983 0187 00       		.uleb128 0
 2984 0188 8B03     		.uleb128 .LEHB100-.LFB1272
 2985 018a 05       		.uleb128 .LEHE100-.LEHB100
 2986 018b 00       		.uleb128 0
 2987 018c 00       		.uleb128 0
 2988 018d 9B03     		.uleb128 .LEHB101-.LFB1272
 2989 018f 05       		.uleb128 .LEHE101-.LEHB101
 2990 0190 00       		.uleb128 0
 2991 0191 00       		.uleb128 0
 2992              	.LLSDACSE1272:
 2993 0192 01       		.byte	0x1
 2994 0193 00       		.byte	0
 2995              		.align 4
 2996 0194 00000000 		.long	0
 2997              	
 2998              	.LLSDATT1272:
 2999              		.text
 3001              		.section	.rodata.str1.1
 3002              	.LC17:
 3003 007e 3A303430 		.string	":040BE10075820022..\n"
 3003      42453130 
 3003      30373538 
 3003      32303032 
 3003      322E2E0A 
 3004              		.section	.rodata.str1.8
 3005 01b7 00       		.align 8
 3006              	.LC18:
 3007 01b8 556E6861 		.string	"Unhandled exception in CHECK_EQUAL(HEX_JUNK_CHECKSUM, status)"
 3007      6E646C65 
 3007      64206578 
 3007      63657074 
 3007      696F6E20 
 3008              		.text
 3009              		.align 2
 3010              		.p2align 4,,15
 3011              		.globl	_ZNK26TestHexIO_testJunkChecksum7RunImplEv
 3013              	_ZNK26TestHexIO_testJunkChecksum7RunImplEv:
 3014              	.LFB1276:
 3015              		.cfi_startproc
 3016              		.cfi_personality 0x9b,DW.ref.__gxx_personality_v0
 3017              		.cfi_lsda 0x1b,.LLSDA1276
 3018 09c0 4154     		pushq	%r12
 3019              		.cfi_def_cfa_offset 16
 3020              		.cfi_offset 12, -16
 3021 09c2 55       		pushq	%rbp
 3022              		.cfi_def_cfa_offset 24
 3023              		.cfi_offset 6, -24
 3024 09c3 31C9     		xorl	%ecx, %ecx
 3025 09c5 53       		pushq	%rbx
 3026              		.cfi_def_cfa_offset 32
 3027              		.cfi_offset 3, -32
 3028 09c6 31D2     		xorl	%edx, %edx
 3029 09c8 BE000400 		movl	$1024, %esi
 3029      00
 3030 09cd 4883EC60 		subq	$96, %rsp
 3031              		.cfi_def_cfa_offset 128
 3032 09d1 488D6C24 		leaq	16(%rsp), %rbp
 3032      10
 3033 09d6 C7442408 		movl	$0, 8(%rsp)
 3033      00000000 
 3034 09de 64488B04 		movq	%fs:40, %rax
 3034      25280000 
 3034      00
 3035 09e7 48894424 		movq	%rax, 88(%rsp)
 3035      58
 3036 09ec 31C0     		xorl	%eax, %eax
 3037 09ee 4889EF   		movq	%rbp, %rdi
 3038              	.LEHB102:
 3039 09f1 E8000000 		call	bufInitialise@PLT
 3039      00
 3040              	.LEHE102:
 3041 09f6 89442404 		movl	%eax, 4(%rsp)
 3042              	.LEHB103:
 3043 09fa E8000000 		call	_ZN8UnitTest11CurrentTest7DetailsEv@PLT
 3043      00
 3044 09ff 488D5C24 		leaq	48(%rsp), %rbx
 3044      30
 3045 0a04 488B30   		movq	(%rax), %rsi
 3046 0a07 BA9A0000 		movl	$154, %edx
 3046      00
 3047 0a0c 4889DF   		movq	%rbx, %rdi
 3048 0a0f E8000000 		call	_ZN8UnitTest11TestDetailsC1ERKS0_i@PLT
 3048      00
 3049 0a14 C744240C 		movl	$0, 12(%rsp)
 3049      00000000 
 3050 0a1c E8000000 		call	_ZN8UnitTest11CurrentTest7ResultsEv@PLT
 3050      00
 3051 0a21 488B38   		movq	(%rax), %rdi
 3052 0a24 488D5424 		leaq	4(%rsp), %rdx
 3052      04
 3053 0a29 488D7424 		leaq	12(%rsp), %rsi
 3053      0C
 3054 0a2e 4889D9   		movq	%rbx, %rcx
 3055 0a31 E8000000 		call	_ZN8UnitTest10CheckEqualI12BufferStatusS1_EEvRNS_11TestResultsERKT_RKT0_RKNS_11TestDetailsE
 3055      00
 3056              	.LEHE103:
 3057              	.L202:
 3058 0a36 4883EC08 		subq	$8, %rsp
 3059              		.cfi_def_cfa_offset 136
 3060 0a3a 488D3D00 		leaq	.LC17(%rip), %rdi
 3060      000000
 3061 0a41 4889EA   		movq	%rbp, %rdx
 3062 0a44 6A00     		pushq	$0
 3063              		.cfi_def_cfa_offset 144
 3064 0a46 31C9     		xorl	%ecx, %ecx
 3065 0a48 31F6     		xorl	%esi, %esi
 3066 0a4a 4C8D4C24 		leaq	19(%rsp), %r9
 3066      13
 3067 0a4f 4C8D4424 		leaq	24(%rsp), %r8
 3067      18
 3068              	.LEHB104:
 3069 0a54 E8000000 		call	bufProcessLine@PLT
 3069      00
 3070              	.LEHE104:
 3071 0a59 89442414 		movl	%eax, 20(%rsp)
 3072 0a5d 58       		popq	%rax
 3073              		.cfi_def_cfa_offset 136
 3074 0a5e 5A       		popq	%rdx
 3075              		.cfi_def_cfa_offset 128
 3076              	.LEHB105:
 3077 0a5f E8000000 		call	_ZN8UnitTest11CurrentTest7DetailsEv@PLT
 3077      00
 3078 0a64 488B30   		movq	(%rax), %rsi
 3079 0a67 BA9C0000 		movl	$156, %edx
 3079      00
 3080 0a6c 4889DF   		movq	%rbx, %rdi
 3081 0a6f E8000000 		call	_ZN8UnitTest11TestDetailsC1ERKS0_i@PLT
 3081      00
 3082 0a74 C744240C 		movl	$15, 12(%rsp)
 3082      0F000000 
 3083 0a7c E8000000 		call	_ZN8UnitTest11CurrentTest7ResultsEv@PLT
 3083      00
 3084 0a81 488B38   		movq	(%rax), %rdi
 3085 0a84 488D5424 		leaq	4(%rsp), %rdx
 3085      04
 3086 0a89 488D7424 		leaq	12(%rsp), %rsi
 3086      0C
 3087 0a8e 4889D9   		movq	%rbx, %rcx
 3088 0a91 E8000000 		call	_ZN8UnitTest10CheckEqualI12BufferStatusS1_EEvRNS_11TestResultsERKT_RKT0_RKNS_11TestDetailsE
 3088      00
 3089              	.LEHE105:
 3090              	.L205:
 3091 0a96 4889EF   		movq	%rbp, %rdi
 3092              	.LEHB106:
 3093 0a99 E8000000 		call	bufDestroy@PLT
 3093      00
 3094              	.LEHE106:
 3095 0a9e 488B4424 		movq	88(%rsp), %rax
 3095      58
 3096 0aa3 64483304 		xorq	%fs:40, %rax
 3096      25280000 
 3096      00
 3097 0aac 7509     		jne	.L214
 3098 0aae 4883C460 		addq	$96, %rsp
 3099              		.cfi_remember_state
 3100              		.cfi_def_cfa_offset 32
 3101 0ab2 5B       		popq	%rbx
 3102              		.cfi_def_cfa_offset 24
 3103 0ab3 5D       		popq	%rbp
 3104              		.cfi_def_cfa_offset 16
 3105 0ab4 415C     		popq	%r12
 3106              		.cfi_def_cfa_offset 8
 3107 0ab6 C3       		ret
 3108              	.L214:
 3109              		.cfi_restore_state
 3110 0ab7 E8000000 		call	__stack_chk_fail@PLT
 3110      00
 3111              	.L210:
 3112 0abc 4889C7   		movq	%rax, %rdi
 3113 0abf E8000000 		call	__cxa_begin_catch@PLT
 3113      00
 3114              	.LEHB107:
 3115 0ac4 E8000000 		call	_ZN8UnitTest11CurrentTest7ResultsEv@PLT
 3115      00
 3116 0ac9 4C8B20   		movq	(%rax), %r12
 3117 0acc E8000000 		call	_ZN8UnitTest11CurrentTest7DetailsEv@PLT
 3117      00
 3118 0ad1 488B30   		movq	(%rax), %rsi
 3119 0ad4 BA9C0000 		movl	$156, %edx
 3119      00
 3120 0ad9 4889DF   		movq	%rbx, %rdi
 3121 0adc E8000000 		call	_ZN8UnitTest11TestDetailsC1ERKS0_i@PLT
 3121      00
 3122 0ae1 488D1500 		leaq	.LC18(%rip), %rdx
 3122      000000
 3123 0ae8 4889DE   		movq	%rbx, %rsi
 3124 0aeb 4C89E7   		movq	%r12, %rdi
 3125 0aee E8000000 		call	_ZN8UnitTest11TestResults13OnTestFailureERKNS_11TestDetailsEPKc@PLT
 3125      00
 3126              	.LEHE107:
 3127              	.LEHB108:
 3128 0af3 E8000000 		call	__cxa_end_catch@PLT
 3128      00
 3129              	.LEHE108:
 3130 0af8 EB9C     		jmp	.L205
 3131              	.L208:
 3132 0afa 4889C7   		movq	%rax, %rdi
 3133 0afd E8000000 		call	__cxa_begin_catch@PLT
 3133      00
 3134              	.LEHB109:
 3135 0b02 E8000000 		call	_ZN8UnitTest11CurrentTest7ResultsEv@PLT
 3135      00
 3136 0b07 4C8B20   		movq	(%rax), %r12
 3137 0b0a E8000000 		call	_ZN8UnitTest11CurrentTest7DetailsEv@PLT
 3137      00
 3138 0b0f 488D5C24 		leaq	48(%rsp), %rbx
 3138      30
 3139 0b14 488B30   		movq	(%rax), %rsi
 3140 0b17 BA9A0000 		movl	$154, %edx
 3140      00
 3141 0b1c 4889DF   		movq	%rbx, %rdi
 3142 0b1f E8000000 		call	_ZN8UnitTest11TestDetailsC1ERKS0_i@PLT
 3142      00
 3143 0b24 488D1500 		leaq	.LC5(%rip), %rdx
 3143      000000
 3144 0b2b 4889DE   		movq	%rbx, %rsi
 3145 0b2e 4C89E7   		movq	%r12, %rdi
 3146 0b31 E8000000 		call	_ZN8UnitTest11TestResults13OnTestFailureERKNS_11TestDetailsEPKc@PLT
 3146      00
 3147              	.LEHE109:
 3148              	.LEHB110:
 3149 0b36 E8000000 		call	__cxa_end_catch@PLT
 3149      00
 3150              	.LEHE110:
 3151 0b3b E9F6FEFF 		jmp	.L202
 3151      FF
 3152              	.L211:
 3153 0b40 4889C3   		movq	%rax, %rbx
 3154 0b43 E8000000 		call	__cxa_end_catch@PLT
 3154      00
 3155 0b48 4889DF   		movq	%rbx, %rdi
 3156              	.LEHB111:
 3157 0b4b E8000000 		call	_Unwind_Resume@PLT
 3157      00
 3158              	.LEHE111:
 3159              	.L209:
 3160 0b50 4889C3   		movq	%rax, %rbx
 3161 0b53 E8000000 		call	__cxa_end_catch@PLT
 3161      00
 3162 0b58 4889DF   		movq	%rbx, %rdi
 3163              	.LEHB112:
 3164 0b5b E8000000 		call	_Unwind_Resume@PLT
 3164      00
 3165              	.LEHE112:
 3166              		.cfi_endproc
 3167              	.LFE1276:
 3168              		.section	.gcc_except_table
 3169              		.align 4
 3170              	.LLSDA1276:
 3171 0198 FF       		.byte	0xff
 3172 0199 9B       		.byte	0x9b
 3173 019a 41       		.uleb128 .LLSDATT1276-.LLSDATTD1276
 3174              	.LLSDATTD1276:
 3175 019b 01       		.byte	0x1
 3176 019c 39       		.uleb128 .LLSDACSE1276-.LLSDACSB1276
 3177              	.LLSDACSB1276:
 3178 019d 31       		.uleb128 .LEHB102-.LFB1276
 3179 019e 05       		.uleb128 .LEHE102-.LEHB102
 3180 019f 00       		.uleb128 0
 3181 01a0 00       		.uleb128 0
 3182 01a1 3A       		.uleb128 .LEHB103-.LFB1276
 3183 01a2 3C       		.uleb128 .LEHE103-.LEHB103
 3184 01a3 BA02     		.uleb128 .L208-.LFB1276
 3185 01a5 01       		.uleb128 0x1
 3186 01a6 9401     		.uleb128 .LEHB104-.LFB1276
 3187 01a8 05       		.uleb128 .LEHE104-.LEHB104
 3188 01a9 00       		.uleb128 0
 3189 01aa 00       		.uleb128 0
 3190 01ab 9F01     		.uleb128 .LEHB105-.LFB1276
 3191 01ad 37       		.uleb128 .LEHE105-.LEHB105
 3192 01ae FC01     		.uleb128 .L210-.LFB1276
 3193 01b0 01       		.uleb128 0x1
 3194 01b1 D901     		.uleb128 .LEHB106-.LFB1276
 3195 01b3 05       		.uleb128 .LEHE106-.LEHB106
 3196 01b4 00       		.uleb128 0
 3197 01b5 00       		.uleb128 0
 3198 01b6 8402     		.uleb128 .LEHB107-.LFB1276
 3199 01b8 2F       		.uleb128 .LEHE107-.LEHB107
 3200 01b9 8003     		.uleb128 .L211-.LFB1276
 3201 01bb 00       		.uleb128 0
 3202 01bc B302     		.uleb128 .LEHB108-.LFB1276
 3203 01be 05       		.uleb128 .LEHE108-.LEHB108
 3204 01bf 00       		.uleb128 0
 3205 01c0 00       		.uleb128 0
 3206 01c1 C202     		.uleb128 .LEHB109-.LFB1276
 3207 01c3 34       		.uleb128 .LEHE109-.LEHB109
 3208 01c4 9003     		.uleb128 .L209-.LFB1276
 3209 01c6 00       		.uleb128 0
 3210 01c7 F602     		.uleb128 .LEHB110-.LFB1276
 3211 01c9 05       		.uleb128 .LEHE110-.LEHB110
 3212 01ca 00       		.uleb128 0
 3213 01cb 00       		.uleb128 0
 3214 01cc 8B03     		.uleb128 .LEHB111-.LFB1276
 3215 01ce 05       		.uleb128 .LEHE111-.LEHB111
 3216 01cf 00       		.uleb128 0
 3217 01d0 00       		.uleb128 0
 3218 01d1 9B03     		.uleb128 .LEHB112-.LFB1276
 3219 01d3 05       		.uleb128 .LEHE112-.LEHB112
 3220 01d4 00       		.uleb128 0
 3221 01d5 00       		.uleb128 0
 3222              	.LLSDACSE1276:
 3223 01d6 01       		.byte	0x1
 3224 01d7 00       		.byte	0
 3225              		.align 4
 3226 01d8 00000000 		.long	0
 3227              	
 3228              	.LLSDATT1276:
 3229              		.text
 3231              		.section	.rodata.str1.1
 3232              	.LC19:
 3233 0093 3A303430 		.string	":040BE10075820022F8\n"
 3233      42453130 
 3233      30373538 
 3233      32303032 
 3233      3246380A 
 3234              		.section	.rodata.str1.8
 3235 01f6 0000     		.align 8
 3236              	.LC20:
 3237 01f8 556E6861 		.string	"Unhandled exception in CHECK_EQUAL(HEX_BAD_CHECKSUM, status)"
 3237      6E646C65 
 3237      64206578 
 3237      63657074 
 3237      696F6E20 
 3238              		.text
 3239              		.align 2
 3240              		.p2align 4,,15
 3241              		.globl	_ZNK25TestHexIO_testBadChecksum7RunImplEv
 3243              	_ZNK25TestHexIO_testBadChecksum7RunImplEv:
 3244              	.LFB1280:
 3245              		.cfi_startproc
 3246              		.cfi_personality 0x9b,DW.ref.__gxx_personality_v0
 3247              		.cfi_lsda 0x1b,.LLSDA1280
 3248 0b60 4154     		pushq	%r12
 3249              		.cfi_def_cfa_offset 16
 3250              		.cfi_offset 12, -16
 3251 0b62 55       		pushq	%rbp
 3252              		.cfi_def_cfa_offset 24
 3253              		.cfi_offset 6, -24
 3254 0b63 31C9     		xorl	%ecx, %ecx
 3255 0b65 53       		pushq	%rbx
 3256              		.cfi_def_cfa_offset 32
 3257              		.cfi_offset 3, -32
 3258 0b66 31D2     		xorl	%edx, %edx
 3259 0b68 BE000400 		movl	$1024, %esi
 3259      00
 3260 0b6d 4883EC60 		subq	$96, %rsp
 3261              		.cfi_def_cfa_offset 128
 3262 0b71 488D6C24 		leaq	16(%rsp), %rbp
 3262      10
 3263 0b76 C7442408 		movl	$0, 8(%rsp)
 3263      00000000 
 3264 0b7e 64488B04 		movq	%fs:40, %rax
 3264      25280000 
 3264      00
 3265 0b87 48894424 		movq	%rax, 88(%rsp)
 3265      58
 3266 0b8c 31C0     		xorl	%eax, %eax
 3267 0b8e 4889EF   		movq	%rbp, %rdi
 3268              	.LEHB113:
 3269 0b91 E8000000 		call	bufInitialise@PLT
 3269      00
 3270              	.LEHE113:
 3271 0b96 89442404 		movl	%eax, 4(%rsp)
 3272              	.LEHB114:
 3273 0b9a E8000000 		call	_ZN8UnitTest11CurrentTest7DetailsEv@PLT
 3273      00
 3274 0b9f 488D5C24 		leaq	48(%rsp), %rbx
 3274      30
 3275 0ba4 488B30   		movq	(%rax), %rsi
 3276 0ba7 BAA70000 		movl	$167, %edx
 3276      00
 3277 0bac 4889DF   		movq	%rbx, %rdi
 3278 0baf E8000000 		call	_ZN8UnitTest11TestDetailsC1ERKS0_i@PLT
 3278      00
 3279 0bb4 C744240C 		movl	$0, 12(%rsp)
 3279      00000000 
 3280 0bbc E8000000 		call	_ZN8UnitTest11CurrentTest7ResultsEv@PLT
 3280      00
 3281 0bc1 488B38   		movq	(%rax), %rdi
 3282 0bc4 488D5424 		leaq	4(%rsp), %rdx
 3282      04
 3283 0bc9 488D7424 		leaq	12(%rsp), %rsi
 3283      0C
 3284 0bce 4889D9   		movq	%rbx, %rcx
 3285 0bd1 E8000000 		call	_ZN8UnitTest10CheckEqualI12BufferStatusS1_EEvRNS_11TestResultsERKT_RKT0_RKNS_11TestDetailsE
 3285      00
 3286              	.LEHE114:
 3287              	.L217:
 3288 0bd6 4883EC08 		subq	$8, %rsp
 3289              		.cfi_def_cfa_offset 136
 3290 0bda 488D3D00 		leaq	.LC19(%rip), %rdi
 3290      000000
 3291 0be1 4889EA   		movq	%rbp, %rdx
 3292 0be4 6A00     		pushq	$0
 3293              		.cfi_def_cfa_offset 144
 3294 0be6 31C9     		xorl	%ecx, %ecx
 3295 0be8 31F6     		xorl	%esi, %esi
 3296 0bea 4C8D4C24 		leaq	19(%rsp), %r9
 3296      13
 3297 0bef 4C8D4424 		leaq	24(%rsp), %r8
 3297      18
 3298              	.LEHB115:
 3299 0bf4 E8000000 		call	bufProcessLine@PLT
 3299      00
 3300              	.LEHE115:
 3301 0bf9 89442414 		movl	%eax, 20(%rsp)
 3302 0bfd 58       		popq	%rax
 3303              		.cfi_def_cfa_offset 136
 3304 0bfe 5A       		popq	%rdx
 3305              		.cfi_def_cfa_offset 128
 3306              	.LEHB116:
 3307 0bff E8000000 		call	_ZN8UnitTest11CurrentTest7DetailsEv@PLT
 3307      00
 3308 0c04 488B30   		movq	(%rax), %rsi
 3309 0c07 BAA90000 		movl	$169, %edx
 3309      00
 3310 0c0c 4889DF   		movq	%rbx, %rdi
 3311 0c0f E8000000 		call	_ZN8UnitTest11TestDetailsC1ERKS0_i@PLT
 3311      00
 3312 0c14 C744240C 		movl	$16, 12(%rsp)
 3312      10000000 
 3313 0c1c E8000000 		call	_ZN8UnitTest11CurrentTest7ResultsEv@PLT
 3313      00
 3314 0c21 488B38   		movq	(%rax), %rdi
 3315 0c24 488D5424 		leaq	4(%rsp), %rdx
 3315      04
 3316 0c29 488D7424 		leaq	12(%rsp), %rsi
 3316      0C
 3317 0c2e 4889D9   		movq	%rbx, %rcx
 3318 0c31 E8000000 		call	_ZN8UnitTest10CheckEqualI12BufferStatusS1_EEvRNS_11TestResultsERKT_RKT0_RKNS_11TestDetailsE
 3318      00
 3319              	.LEHE116:
 3320              	.L220:
 3321 0c36 4889EF   		movq	%rbp, %rdi
 3322              	.LEHB117:
 3323 0c39 E8000000 		call	bufDestroy@PLT
 3323      00
 3324              	.LEHE117:
 3325 0c3e 488B4424 		movq	88(%rsp), %rax
 3325      58
 3326 0c43 64483304 		xorq	%fs:40, %rax
 3326      25280000 
 3326      00
 3327 0c4c 7509     		jne	.L229
 3328 0c4e 4883C460 		addq	$96, %rsp
 3329              		.cfi_remember_state
 3330              		.cfi_def_cfa_offset 32
 3331 0c52 5B       		popq	%rbx
 3332              		.cfi_def_cfa_offset 24
 3333 0c53 5D       		popq	%rbp
 3334              		.cfi_def_cfa_offset 16
 3335 0c54 415C     		popq	%r12
 3336              		.cfi_def_cfa_offset 8
 3337 0c56 C3       		ret
 3338              	.L229:
 3339              		.cfi_restore_state
 3340 0c57 E8000000 		call	__stack_chk_fail@PLT
 3340      00
 3341              	.L225:
 3342 0c5c 4889C7   		movq	%rax, %rdi
 3343 0c5f E8000000 		call	__cxa_begin_catch@PLT
 3343      00
 3344              	.LEHB118:
 3345 0c64 E8000000 		call	_ZN8UnitTest11CurrentTest7ResultsEv@PLT
 3345      00
 3346 0c69 4C8B20   		movq	(%rax), %r12
 3347 0c6c E8000000 		call	_ZN8UnitTest11CurrentTest7DetailsEv@PLT
 3347      00
 3348 0c71 488B30   		movq	(%rax), %rsi
 3349 0c74 BAA90000 		movl	$169, %edx
 3349      00
 3350 0c79 4889DF   		movq	%rbx, %rdi
 3351 0c7c E8000000 		call	_ZN8UnitTest11TestDetailsC1ERKS0_i@PLT
 3351      00
 3352 0c81 488D1500 		leaq	.LC20(%rip), %rdx
 3352      000000
 3353 0c88 4889DE   		movq	%rbx, %rsi
 3354 0c8b 4C89E7   		movq	%r12, %rdi
 3355 0c8e E8000000 		call	_ZN8UnitTest11TestResults13OnTestFailureERKNS_11TestDetailsEPKc@PLT
 3355      00
 3356              	.LEHE118:
 3357              	.LEHB119:
 3358 0c93 E8000000 		call	__cxa_end_catch@PLT
 3358      00
 3359              	.LEHE119:
 3360 0c98 EB9C     		jmp	.L220
 3361              	.L223:
 3362 0c9a 4889C7   		movq	%rax, %rdi
 3363 0c9d E8000000 		call	__cxa_begin_catch@PLT
 3363      00
 3364              	.LEHB120:
 3365 0ca2 E8000000 		call	_ZN8UnitTest11CurrentTest7ResultsEv@PLT
 3365      00
 3366 0ca7 4C8B20   		movq	(%rax), %r12
 3367 0caa E8000000 		call	_ZN8UnitTest11CurrentTest7DetailsEv@PLT
 3367      00
 3368 0caf 488D5C24 		leaq	48(%rsp), %rbx
 3368      30
 3369 0cb4 488B30   		movq	(%rax), %rsi
 3370 0cb7 BAA70000 		movl	$167, %edx
 3370      00
 3371 0cbc 4889DF   		movq	%rbx, %rdi
 3372 0cbf E8000000 		call	_ZN8UnitTest11TestDetailsC1ERKS0_i@PLT
 3372      00
 3373 0cc4 488D1500 		leaq	.LC5(%rip), %rdx
 3373      000000
 3374 0ccb 4889DE   		movq	%rbx, %rsi
 3375 0cce 4C89E7   		movq	%r12, %rdi
 3376 0cd1 E8000000 		call	_ZN8UnitTest11TestResults13OnTestFailureERKNS_11TestDetailsEPKc@PLT
 3376      00
 3377              	.LEHE120:
 3378              	.LEHB121:
 3379 0cd6 E8000000 		call	__cxa_end_catch@PLT
 3379      00
 3380              	.LEHE121:
 3381 0cdb E9F6FEFF 		jmp	.L217
 3381      FF
 3382              	.L226:
 3383 0ce0 4889C3   		movq	%rax, %rbx
 3384 0ce3 E8000000 		call	__cxa_end_catch@PLT
 3384      00
 3385 0ce8 4889DF   		movq	%rbx, %rdi
 3386              	.LEHB122:
 3387 0ceb E8000000 		call	_Unwind_Resume@PLT
 3387      00
 3388              	.LEHE122:
 3389              	.L224:
 3390 0cf0 4889C3   		movq	%rax, %rbx
 3391 0cf3 E8000000 		call	__cxa_end_catch@PLT
 3391      00
 3392 0cf8 4889DF   		movq	%rbx, %rdi
 3393              	.LEHB123:
 3394 0cfb E8000000 		call	_Unwind_Resume@PLT
 3394      00
 3395              	.LEHE123:
 3396              		.cfi_endproc
 3397              	.LFE1280:
 3398              		.section	.gcc_except_table
 3399              		.align 4
 3400              	.LLSDA1280:
 3401 01dc FF       		.byte	0xff
 3402 01dd 9B       		.byte	0x9b
 3403 01de 41       		.uleb128 .LLSDATT1280-.LLSDATTD1280
 3404              	.LLSDATTD1280:
 3405 01df 01       		.byte	0x1
 3406 01e0 39       		.uleb128 .LLSDACSE1280-.LLSDACSB1280
 3407              	.LLSDACSB1280:
 3408 01e1 31       		.uleb128 .LEHB113-.LFB1280
 3409 01e2 05       		.uleb128 .LEHE113-.LEHB113
 3410 01e3 00       		.uleb128 0
 3411 01e4 00       		.uleb128 0
 3412 01e5 3A       		.uleb128 .LEHB114-.LFB1280
 3413 01e6 3C       		.uleb128 .LEHE114-.LEHB114
 3414 01e7 BA02     		.uleb128 .L223-.LFB1280
 3415 01e9 01       		.uleb128 0x1
 3416 01ea 9401     		.uleb128 .LEHB115-.LFB1280
 3417 01ec 05       		.uleb128 .LEHE115-.LEHB115
 3418 01ed 00       		.uleb128 0
 3419 01ee 00       		.uleb128 0
 3420 01ef 9F01     		.uleb128 .LEHB116-.LFB1280
 3421 01f1 37       		.uleb128 .LEHE116-.LEHB116
 3422 01f2 FC01     		.uleb128 .L225-.LFB1280
 3423 01f4 01       		.uleb128 0x1
 3424 01f5 D901     		.uleb128 .LEHB117-.LFB1280
 3425 01f7 05       		.uleb128 .LEHE117-.LEHB117
 3426 01f8 00       		.uleb128 0
 3427 01f9 00       		.uleb128 0
 3428 01fa 8402     		.uleb128 .LEHB118-.LFB1280
 3429 01fc 2F       		.uleb128 .LEHE118-.LEHB118
 3430 01fd 8003     		.uleb128 .L226-.LFB1280
 3431 01ff 00       		.uleb128 0
 3432 0200 B302     		.uleb128 .LEHB119-.LFB1280
 3433 0202 05       		.uleb128 .LEHE119-.LEHB119
 3434 0203 00       		.uleb128 0
 3435 0204 00       		.uleb128 0
 3436 0205 C202     		.uleb128 .LEHB120-.LFB1280
 3437 0207 34       		.uleb128 .LEHE120-.LEHB120
 3438 0208 9003     		.uleb128 .L224-.LFB1280
 3439 020a 00       		.uleb128 0
 3440 020b F602     		.uleb128 .LEHB121-.LFB1280
 3441 020d 05       		.uleb128 .LEHE121-.LEHB121
 3442 020e 00       		.uleb128 0
 3443 020f 00       		.uleb128 0
 3444 0210 8B03     		.uleb128 .LEHB122-.LFB1280
 3445 0212 05       		.uleb128 .LEHE122-.LEHB122
 3446 0213 00       		.uleb128 0
 3447 0214 00       		.uleb128 0
 3448 0215 9B03     		.uleb128 .LEHB123-.LFB1280
 3449 0217 05       		.uleb128 .LEHE123-.LEHB123
 3450 0218 00       		.uleb128 0
 3451 0219 00       		.uleb128 0
 3452              	.LLSDACSE1280:
 3453 021a 01       		.byte	0x1
 3454 021b 00       		.byte	0
 3455              		.align 4
 3456 021c 00000000 		.long	0
 3457              	
 3458              	.LLSDATT1280:
 3459              		.text
 3461              		.section	.rodata.str1.1
 3462              	.LC21:
 3463 00a8 3A303430 		.string	":040BE10075820022F7 \n"
 3463      42453130 
 3463      30373538 
 3463      32303032 
 3463      32463720 
 3464              		.section	.rodata.str1.8
 3465 0235 000000   		.align 8
 3466              	.LC22:
 3467 0238 556E6861 		.string	"Unhandled exception in CHECK_EQUAL(HEX_CORRUPT_LINE, status)"
 3467      6E646C65 
 3467      64206578 
 3467      63657074 
 3467      696F6E20 
 3468              		.text
 3469              		.align 2
 3470              		.p2align 4,,15
 3471              		.globl	_ZNK25TestHexIO_testCorruptLine7RunImplEv
 3473              	_ZNK25TestHexIO_testCorruptLine7RunImplEv:
 3474              	.LFB1284:
 3475              		.cfi_startproc
 3476              		.cfi_personality 0x9b,DW.ref.__gxx_personality_v0
 3477              		.cfi_lsda 0x1b,.LLSDA1284
 3478 0d00 4154     		pushq	%r12
 3479              		.cfi_def_cfa_offset 16
 3480              		.cfi_offset 12, -16
 3481 0d02 55       		pushq	%rbp
 3482              		.cfi_def_cfa_offset 24
 3483              		.cfi_offset 6, -24
 3484 0d03 31C9     		xorl	%ecx, %ecx
 3485 0d05 53       		pushq	%rbx
 3486              		.cfi_def_cfa_offset 32
 3487              		.cfi_offset 3, -32
 3488 0d06 31D2     		xorl	%edx, %edx
 3489 0d08 BE000400 		movl	$1024, %esi
 3489      00
 3490 0d0d 4883EC60 		subq	$96, %rsp
 3491              		.cfi_def_cfa_offset 128
 3492 0d11 488D6C24 		leaq	16(%rsp), %rbp
 3492      10
 3493 0d16 C7442408 		movl	$0, 8(%rsp)
 3493      00000000 
 3494 0d1e 64488B04 		movq	%fs:40, %rax
 3494      25280000 
 3494      00
 3495 0d27 48894424 		movq	%rax, 88(%rsp)
 3495      58
 3496 0d2c 31C0     		xorl	%eax, %eax
 3497 0d2e 4889EF   		movq	%rbp, %rdi
 3498              	.LEHB124:
 3499 0d31 E8000000 		call	bufInitialise@PLT
 3499      00
 3500              	.LEHE124:
 3501 0d36 89442404 		movl	%eax, 4(%rsp)
 3502              	.LEHB125:
 3503 0d3a E8000000 		call	_ZN8UnitTest11CurrentTest7DetailsEv@PLT
 3503      00
 3504 0d3f 488D5C24 		leaq	48(%rsp), %rbx
 3504      30
 3505 0d44 488B30   		movq	(%rax), %rsi
 3506 0d47 BAB40000 		movl	$180, %edx
 3506      00
 3507 0d4c 4889DF   		movq	%rbx, %rdi
 3508 0d4f E8000000 		call	_ZN8UnitTest11TestDetailsC1ERKS0_i@PLT
 3508      00
 3509 0d54 C744240C 		movl	$0, 12(%rsp)
 3509      00000000 
 3510 0d5c E8000000 		call	_ZN8UnitTest11CurrentTest7ResultsEv@PLT
 3510      00
 3511 0d61 488B38   		movq	(%rax), %rdi
 3512 0d64 488D5424 		leaq	4(%rsp), %rdx
 3512      04
 3513 0d69 488D7424 		leaq	12(%rsp), %rsi
 3513      0C
 3514 0d6e 4889D9   		movq	%rbx, %rcx
 3515 0d71 E8000000 		call	_ZN8UnitTest10CheckEqualI12BufferStatusS1_EEvRNS_11TestResultsERKT_RKT0_RKNS_11TestDetailsE
 3515      00
 3516              	.LEHE125:
 3517              	.L232:
 3518 0d76 4883EC08 		subq	$8, %rsp
 3519              		.cfi_def_cfa_offset 136
 3520 0d7a 488D3D00 		leaq	.LC21(%rip), %rdi
 3520      000000
 3521 0d81 4889EA   		movq	%rbp, %rdx
 3522 0d84 6A00     		pushq	$0
 3523              		.cfi_def_cfa_offset 144
 3524 0d86 31C9     		xorl	%ecx, %ecx
 3525 0d88 31F6     		xorl	%esi, %esi
 3526 0d8a 4C8D4C24 		leaq	19(%rsp), %r9
 3526      13
 3527 0d8f 4C8D4424 		leaq	24(%rsp), %r8
 3527      18
 3528              	.LEHB126:
 3529 0d94 E8000000 		call	bufProcessLine@PLT
 3529      00
 3530              	.LEHE126:
 3531 0d99 89442414 		movl	%eax, 20(%rsp)
 3532 0d9d 58       		popq	%rax
 3533              		.cfi_def_cfa_offset 136
 3534 0d9e 5A       		popq	%rdx
 3535              		.cfi_def_cfa_offset 128
 3536              	.LEHB127:
 3537 0d9f E8000000 		call	_ZN8UnitTest11CurrentTest7DetailsEv@PLT
 3537      00
 3538 0da4 488B30   		movq	(%rax), %rsi
 3539 0da7 BAB60000 		movl	$182, %edx
 3539      00
 3540 0dac 4889DF   		movq	%rbx, %rdi
 3541 0daf E8000000 		call	_ZN8UnitTest11TestDetailsC1ERKS0_i@PLT
 3541      00
 3542 0db4 C744240C 		movl	$17, 12(%rsp)
 3542      11000000 
 3543 0dbc E8000000 		call	_ZN8UnitTest11CurrentTest7ResultsEv@PLT
 3543      00
 3544 0dc1 488B38   		movq	(%rax), %rdi
 3545 0dc4 488D5424 		leaq	4(%rsp), %rdx
 3545      04
 3546 0dc9 488D7424 		leaq	12(%rsp), %rsi
 3546      0C
 3547 0dce 4889D9   		movq	%rbx, %rcx
 3548 0dd1 E8000000 		call	_ZN8UnitTest10CheckEqualI12BufferStatusS1_EEvRNS_11TestResultsERKT_RKT0_RKNS_11TestDetailsE
 3548      00
 3549              	.LEHE127:
 3550              	.L235:
 3551 0dd6 4889EF   		movq	%rbp, %rdi
 3552              	.LEHB128:
 3553 0dd9 E8000000 		call	bufDestroy@PLT
 3553      00
 3554              	.LEHE128:
 3555 0dde 488B4424 		movq	88(%rsp), %rax
 3555      58
 3556 0de3 64483304 		xorq	%fs:40, %rax
 3556      25280000 
 3556      00
 3557 0dec 7509     		jne	.L244
 3558 0dee 4883C460 		addq	$96, %rsp
 3559              		.cfi_remember_state
 3560              		.cfi_def_cfa_offset 32
 3561 0df2 5B       		popq	%rbx
 3562              		.cfi_def_cfa_offset 24
 3563 0df3 5D       		popq	%rbp
 3564              		.cfi_def_cfa_offset 16
 3565 0df4 415C     		popq	%r12
 3566              		.cfi_def_cfa_offset 8
 3567 0df6 C3       		ret
 3568              	.L244:
 3569              		.cfi_restore_state
 3570 0df7 E8000000 		call	__stack_chk_fail@PLT
 3570      00
 3571              	.L240:
 3572 0dfc 4889C7   		movq	%rax, %rdi
 3573 0dff E8000000 		call	__cxa_begin_catch@PLT
 3573      00
 3574              	.LEHB129:
 3575 0e04 E8000000 		call	_ZN8UnitTest11CurrentTest7ResultsEv@PLT
 3575      00
 3576 0e09 4C8B20   		movq	(%rax), %r12
 3577 0e0c E8000000 		call	_ZN8UnitTest11CurrentTest7DetailsEv@PLT
 3577      00
 3578 0e11 488B30   		movq	(%rax), %rsi
 3579 0e14 BAB60000 		movl	$182, %edx
 3579      00
 3580 0e19 4889DF   		movq	%rbx, %rdi
 3581 0e1c E8000000 		call	_ZN8UnitTest11TestDetailsC1ERKS0_i@PLT
 3581      00
 3582 0e21 488D1500 		leaq	.LC22(%rip), %rdx
 3582      000000
 3583 0e28 4889DE   		movq	%rbx, %rsi
 3584 0e2b 4C89E7   		movq	%r12, %rdi
 3585 0e2e E8000000 		call	_ZN8UnitTest11TestResults13OnTestFailureERKNS_11TestDetailsEPKc@PLT
 3585      00
 3586              	.LEHE129:
 3587              	.LEHB130:
 3588 0e33 E8000000 		call	__cxa_end_catch@PLT
 3588      00
 3589              	.LEHE130:
 3590 0e38 EB9C     		jmp	.L235
 3591              	.L238:
 3592 0e3a 4889C7   		movq	%rax, %rdi
 3593 0e3d E8000000 		call	__cxa_begin_catch@PLT
 3593      00
 3594              	.LEHB131:
 3595 0e42 E8000000 		call	_ZN8UnitTest11CurrentTest7ResultsEv@PLT
 3595      00
 3596 0e47 4C8B20   		movq	(%rax), %r12
 3597 0e4a E8000000 		call	_ZN8UnitTest11CurrentTest7DetailsEv@PLT
 3597      00
 3598 0e4f 488D5C24 		leaq	48(%rsp), %rbx
 3598      30
 3599 0e54 488B30   		movq	(%rax), %rsi
 3600 0e57 BAB40000 		movl	$180, %edx
 3600      00
 3601 0e5c 4889DF   		movq	%rbx, %rdi
 3602 0e5f E8000000 		call	_ZN8UnitTest11TestDetailsC1ERKS0_i@PLT
 3602      00
 3603 0e64 488D1500 		leaq	.LC5(%rip), %rdx
 3603      000000
 3604 0e6b 4889DE   		movq	%rbx, %rsi
 3605 0e6e 4C89E7   		movq	%r12, %rdi
 3606 0e71 E8000000 		call	_ZN8UnitTest11TestResults13OnTestFailureERKNS_11TestDetailsEPKc@PLT
 3606      00
 3607              	.LEHE131:
 3608              	.LEHB132:
 3609 0e76 E8000000 		call	__cxa_end_catch@PLT
 3609      00
 3610              	.LEHE132:
 3611 0e7b E9F6FEFF 		jmp	.L232
 3611      FF
 3612              	.L241:
 3613 0e80 4889C3   		movq	%rax, %rbx
 3614 0e83 E8000000 		call	__cxa_end_catch@PLT
 3614      00
 3615 0e88 4889DF   		movq	%rbx, %rdi
 3616              	.LEHB133:
 3617 0e8b E8000000 		call	_Unwind_Resume@PLT
 3617      00
 3618              	.LEHE133:
 3619              	.L239:
 3620 0e90 4889C3   		movq	%rax, %rbx
 3621 0e93 E8000000 		call	__cxa_end_catch@PLT
 3621      00
 3622 0e98 4889DF   		movq	%rbx, %rdi
 3623              	.LEHB134:
 3624 0e9b E8000000 		call	_Unwind_Resume@PLT
 3624      00
 3625              	.LEHE134:
 3626              		.cfi_endproc
 3627              	.LFE1284:
 3628              		.section	.gcc_except_table
 3629              		.align 4
 3630              	.LLSDA1284:
 3631 0220 FF       		.byte	0xff
 3632 0221 9B       		.byte	0x9b
 3633 0222 41       		.uleb128 .LLSDATT1284-.LLSDATTD1284
 3634              	.LLSDATTD1284:
 3635 0223 01       		.byte	0x1
 3636 0224 39       		.uleb128 .LLSDACSE1284-.LLSDACSB1284
 3637              	.LLSDACSB1284:
 3638 0225 31       		.uleb128 .LEHB124-.LFB1284
 3639 0226 05       		.uleb128 .LEHE124-.LEHB124
 3640 0227 00       		.uleb128 0
 3641 0228 00       		.uleb128 0
 3642 0229 3A       		.uleb128 .LEHB125-.LFB1284
 3643 022a 3C       		.uleb128 .LEHE125-.LEHB125
 3644 022b BA02     		.uleb128 .L238-.LFB1284
 3645 022d 01       		.uleb128 0x1
 3646 022e 9401     		.uleb128 .LEHB126-.LFB1284
 3647 0230 05       		.uleb128 .LEHE126-.LEHB126
 3648 0231 00       		.uleb128 0
 3649 0232 00       		.uleb128 0
 3650 0233 9F01     		.uleb128 .LEHB127-.LFB1284
 3651 0235 37       		.uleb128 .LEHE127-.LEHB127
 3652 0236 FC01     		.uleb128 .L240-.LFB1284
 3653 0238 01       		.uleb128 0x1
 3654 0239 D901     		.uleb128 .LEHB128-.LFB1284
 3655 023b 05       		.uleb128 .LEHE128-.LEHB128
 3656 023c 00       		.uleb128 0
 3657 023d 00       		.uleb128 0
 3658 023e 8402     		.uleb128 .LEHB129-.LFB1284
 3659 0240 2F       		.uleb128 .LEHE129-.LEHB129
 3660 0241 8003     		.uleb128 .L241-.LFB1284
 3661 0243 00       		.uleb128 0
 3662 0244 B302     		.uleb128 .LEHB130-.LFB1284
 3663 0246 05       		.uleb128 .LEHE130-.LEHB130
 3664 0247 00       		.uleb128 0
 3665 0248 00       		.uleb128 0
 3666 0249 C202     		.uleb128 .LEHB131-.LFB1284
 3667 024b 34       		.uleb128 .LEHE131-.LEHB131
 3668 024c 9003     		.uleb128 .L239-.LFB1284
 3669 024e 00       		.uleb128 0
 3670 024f F602     		.uleb128 .LEHB132-.LFB1284
 3671 0251 05       		.uleb128 .LEHE132-.LEHB132
 3672 0252 00       		.uleb128 0
 3673 0253 00       		.uleb128 0
 3674 0254 8B03     		.uleb128 .LEHB133-.LFB1284
 3675 0256 05       		.uleb128 .LEHE133-.LEHB133
 3676 0257 00       		.uleb128 0
 3677 0258 00       		.uleb128 0
 3678 0259 9B03     		.uleb128 .LEHB134-.LFB1284
 3679 025b 05       		.uleb128 .LEHE134-.LEHB134
 3680 025c 00       		.uleb128 0
 3681 025d 00       		.uleb128 0
 3682              	.LLSDACSE1284:
 3683 025e 01       		.byte	0x1
 3684 025f 00       		.byte	0
 3685              		.align 4
 3686 0260 00000000 		.long	0
 3687              	
 3688              	.LLSDATT1284:
 3689              		.text
 3691              		.section	.text._ZN8UnitTest10CheckEqualIihEEvRNS_11TestResultsERKT_RKT0_RKNS_11TestDetailsE,"axG",
 3692              		.p2align 4,,15
 3693              		.weak	_ZN8UnitTest10CheckEqualIihEEvRNS_11TestResultsERKT_RKT0_RKNS_11TestDetailsE
 3695              	_ZN8UnitTest10CheckEqualIihEEvRNS_11TestResultsERKT_RKT0_RKNS_11TestDetailsE:
 3696              	.LFB1327:
 3697              		.cfi_startproc
 3698              		.cfi_personality 0x9b,DW.ref.__gxx_personality_v0
 3699              		.cfi_lsda 0x1b,.LLSDA1327
 3700 0000 4157     		pushq	%r15
 3701              		.cfi_def_cfa_offset 16
 3702              		.cfi_offset 15, -16
 3703 0002 4156     		pushq	%r14
 3704              		.cfi_def_cfa_offset 24
 3705              		.cfi_offset 14, -24
 3706 0004 4155     		pushq	%r13
 3707              		.cfi_def_cfa_offset 32
 3708              		.cfi_offset 13, -32
 3709 0006 4154     		pushq	%r12
 3710              		.cfi_def_cfa_offset 40
 3711              		.cfi_offset 12, -40
 3712 0008 55       		pushq	%rbp
 3713              		.cfi_def_cfa_offset 48
 3714              		.cfi_offset 6, -48
 3715 0009 53       		pushq	%rbx
 3716              		.cfi_def_cfa_offset 56
 3717              		.cfi_offset 3, -56
 3718 000a 4881ECC8 		subq	$456, %rsp
 3718      010000
 3719              		.cfi_def_cfa_offset 512
 3720 0011 64488B04 		movq	%fs:40, %rax
 3720      25280000 
 3720      00
 3721 001a 48898424 		movq	%rax, 440(%rsp)
 3721      B8010000 
 3722 0022 31C0     		xorl	%eax, %eax
 3723 0024 0FB602   		movzbl	(%rdx), %eax
 3724 0027 48893C24 		movq	%rdi, (%rsp)
 3725 002b 3906     		cmpl	%eax, (%rsi)
 3726 002d 48894C24 		movq	%rcx, 8(%rsp)
 3726      08
 3727 0032 0F844102 		je	.L245
 3727      0000
 3728 0038 488D5C24 		leaq	32(%rsp), %rbx
 3728      20
 3729 003d 4C8D2D00 		leaq	24+_ZTCN8UnitTest15MemoryOutStreamE0_So(%rip), %r13
 3729      000000
 3730 0044 4989F4   		movq	%rsi, %r12
 3731 0047 4889D5   		movq	%rdx, %rbp
 3732 004a 4C8DB390 		leaq	144(%rbx), %r14
 3732      000000
 3733 0051 4C89F7   		movq	%r14, %rdi
 3734 0054 E8000000 		call	_ZNSt8ios_baseC2Ev@PLT
 3734      00
 3735 0059 498D4528 		leaq	40(%r13), %rax
 3736 005d 31F6     		xorl	%esi, %esi
 3737 005f 4C89F7   		movq	%r14, %rdi
 3738 0062 48C78424 		movq	$0, 392(%rsp)
 3738      88010000 
 3738      00000000 
 3739 006e C6842490 		movb	$0, 400(%rsp)
 3739      01000000 
 3740 0076 C6842491 		movb	$0, 401(%rsp)
 3740      01000000 
 3741 007e 48C78424 		movq	$0, 408(%rsp)
 3741      98010000 
 3741      00000000 
 3742 008a 48C78424 		movq	$0, 416(%rsp)
 3742      A0010000 
 3742      00000000 
 3743 0096 48C78424 		movq	$0, 424(%rsp)
 3743      A8010000 
 3743      00000000 
 3744 00a2 48C78424 		movq	$0, 432(%rsp)
 3744      B0010000 
 3744      00000000 
 3745 00ae 4C896C24 		movq	%r13, 32(%rsp)
 3745      20
 3746 00b3 48898424 		movq	%rax, 176(%rsp)
 3746      B0000000 
 3747              	.LEHB135:
 3748 00bb E8000000 		call	_ZNSt9basic_iosIcSt11char_traitsIcEE4initEPSt15basic_streambufIcS1_E@PLT
 3748      00
 3749              	.LEHE135:
 3750 00c0 488D0500 		leaq	24+_ZTCN8UnitTest15MemoryOutStreamE0_NSt7__cxx1119basic_ostringstreamIcSt11char_traitsIcESaIc
 3750      000000
 3751 00c7 660FEFC0 		pxor	%xmm0, %xmm0
 3752 00cb 488D7B40 		leaq	64(%rbx), %rdi
 3753 00cf 48894424 		movq	%rax, 32(%rsp)
 3753      20
 3754 00d4 4883C028 		addq	$40, %rax
 3755 00d8 48898424 		movq	%rax, 176(%rsp)
 3755      B0000000 
 3756 00e0 488D0500 		leaq	16+_ZTVSt15basic_streambufIcSt11char_traitsIcEE(%rip), %rax
 3756      000000
 3757 00e7 0F294424 		movaps	%xmm0, 48(%rsp)
 3757      30
 3758 00ec 48894424 		movq	%rax, 40(%rsp)
 3758      28
 3759 00f1 0F294424 		movaps	%xmm0, 64(%rsp)
 3759      40
 3760 00f6 0F294424 		movaps	%xmm0, 80(%rsp)
 3760      50
 3761 00fb E8000000 		call	_ZNSt6localeC1Ev@PLT
 3761      00
 3762 0100 488D0500 		leaq	16+_ZTVNSt7__cxx1115basic_stringbufIcSt11char_traitsIcESaIcEEE(%rip), %rax
 3762      000000
 3763 0107 488D7308 		leaq	8(%rbx), %rsi
 3764 010b 48894424 		movq	%rax, 40(%rsp)
 3764      28
 3765 0110 488D4360 		leaq	96(%rbx), %rax
 3766 0114 C7442468 		movl	$16, 104(%rsp)
 3766      10000000 
 3767 011c 48C74424 		movq	$0, 120(%rsp)
 3767      78000000 
 3767      00
 3768 0125 C6842480 		movb	$0, 128(%rsp)
 3768      00000000 
 3769 012d 48894424 		movq	%rax, 112(%rsp)
 3769      70
 3770 0132 488B4424 		movq	32(%rsp), %rax
 3770      20
 3771 0137 488B78E8 		movq	-24(%rax), %rdi
 3772 013b 4801DF   		addq	%rbx, %rdi
 3773              	.LEHB136:
 3774 013e E8000000 		call	_ZNSt9basic_iosIcSt11char_traitsIcEE4initEPSt15basic_streambufIcS1_E@PLT
 3774      00
 3775              	.LEHE136:
 3776 0143 4C8D3D00 		leaq	24+_ZTVN8UnitTest15MemoryOutStreamE(%rip), %r15
 3776      000000
 3777 014a 488D8380 		leaq	128(%rbx), %rax
 3777      000000
 3778 0151 488D3500 		leaq	.LC0(%rip), %rsi
 3778      000000
 3779 0158 BA090000 		movl	$9, %edx
 3779      00
 3780 015d 4889DF   		movq	%rbx, %rdi
 3781 0160 48C78424 		movq	$0, 152(%rsp)
 3781      98000000 
 3781      00000000 
 3782 016c 4D8D7728 		leaq	40(%r15), %r14
 3783 0170 4C897C24 		movq	%r15, 32(%rsp)
 3783      20
 3784 0175 48898424 		movq	%rax, 144(%rsp)
 3784      90000000 
 3785 017d C68424A0 		movb	$0, 160(%rsp)
 3785      00000000 
 3786 0185 4C89B424 		movq	%r14, 176(%rsp)
 3786      B0000000 
 3787              	.LEHB137:
 3788 018d E8000000 		call	_ZSt16__ostream_insertIcSt11char_traitsIcEERSt13basic_ostreamIT_T0_ES6_PKS3_l@PLT
 3788      00
 3789 0192 418B3424 		movl	(%r12), %esi
 3790 0196 4889DF   		movq	%rbx, %rdi
 3791 0199 E8000000 		call	_ZNSolsEi@PLT
 3791      00
 3792 019e 488D3500 		leaq	.LC1(%rip), %rsi
 3792      000000
 3793 01a5 BA090000 		movl	$9, %edx
 3793      00
 3794 01aa 4889C7   		movq	%rax, %rdi
 3795 01ad 4989C4   		movq	%rax, %r12
 3796 01b0 E8000000 		call	_ZSt16__ostream_insertIcSt11char_traitsIcEERSt13basic_ostreamIT_T0_ES6_PKS3_l@PLT
 3796      00
 3797 01b5 0FB64500 		movzbl	0(%rbp), %eax
 3798 01b9 488D7424 		leaq	31(%rsp), %rsi
 3798      1F
 3799 01be BA010000 		movl	$1, %edx
 3799      00
 3800 01c3 4C89E7   		movq	%r12, %rdi
 3801 01c6 8844241F 		movb	%al, 31(%rsp)
 3802 01ca E8000000 		call	_ZSt16__ostream_insertIcSt11char_traitsIcEERSt13basic_ostreamIT_T0_ES6_PKS3_l@PLT
 3802      00
 3803 01cf 4889DF   		movq	%rbx, %rdi
 3804 01d2 E8000000 		call	_ZNK8UnitTest15MemoryOutStream7GetTextEv@PLT
 3804      00
 3805 01d7 488B7424 		movq	8(%rsp), %rsi
 3805      08
 3806 01dc 488B3C24 		movq	(%rsp), %rdi
 3807 01e0 4889C2   		movq	%rax, %rdx
 3808 01e3 E8000000 		call	_ZN8UnitTest11TestResults13OnTestFailureERKNS_11TestDetailsEPKc@PLT
 3808      00
 3809              	.LEHE137:
 3810 01e8 488BBC24 		movq	144(%rsp), %rdi
 3810      90000000 
 3811 01f0 488D8380 		leaq	128(%rbx), %rax
 3811      000000
 3812 01f7 4C897C24 		movq	%r15, 32(%rsp)
 3812      20
 3813 01fc 4C89B424 		movq	%r14, 176(%rsp)
 3813      B0000000 
 3814 0204 4839C7   		cmpq	%rax, %rdi
 3815 0207 7405     		je	.L251
 3816 0209 E8000000 		call	_ZdlPv@PLT
 3816      00
 3817              	.L251:
 3818 020e 488D0500 		leaq	64+_ZTCN8UnitTest15MemoryOutStreamE0_NSt7__cxx1119basic_ostringstreamIcSt11char_traitsIcESaIc
 3818      000000
 3819 0215 488B7C24 		movq	112(%rsp), %rdi
 3819      70
 3820 021a F30F7E05 		movq	.LC2(%rip), %xmm0
 3820      00000000 
 3821 0222 48898424 		movq	%rax, 176(%rsp)
 3821      B0000000 
 3822 022a 488D4360 		leaq	96(%rbx), %rax
 3823 022e 0F160500 		movhps	.LC3(%rip), %xmm0
 3823      000000
 3824 0235 4839C7   		cmpq	%rax, %rdi
 3825 0238 0F294424 		movaps	%xmm0, 32(%rsp)
 3825      20
 3826 023d 7405     		je	.L252
 3827 023f E8000000 		call	_ZdlPv@PLT
 3827      00
 3828              	.L252:
 3829 0244 488D0500 		leaq	16+_ZTVSt15basic_streambufIcSt11char_traitsIcEE(%rip), %rax
 3829      000000
 3830 024b 488D7B40 		leaq	64(%rbx), %rdi
 3831 024f 48894424 		movq	%rax, 40(%rsp)
 3831      28
 3832 0254 E8000000 		call	_ZNSt6localeD1Ev@PLT
 3832      00
 3833 0259 488D0500 		leaq	16+_ZTVSt9basic_iosIcSt11char_traitsIcEE(%rip), %rax
 3833      000000
 3834 0260 488DBB90 		leaq	144(%rbx), %rdi
 3834      000000
 3835 0267 4C896C24 		movq	%r13, 32(%rsp)
 3835      20
 3836 026c 48898424 		movq	%rax, 176(%rsp)
 3836      B0000000 
 3837              	.LEHB138:
 3838 0274 E8000000 		call	_ZNSt8ios_baseD2Ev@PLT
 3838      00
 3839              	.LEHE138:
 3840              	.L245:
 3841 0279 488B8424 		movq	440(%rsp), %rax
 3841      B8010000 
 3842 0281 64483304 		xorq	%fs:40, %rax
 3842      25280000 
 3842      00
 3843 028a 7512     		jne	.L261
 3844 028c 4881C4C8 		addq	$456, %rsp
 3844      010000
 3845              		.cfi_remember_state
 3846              		.cfi_def_cfa_offset 56
 3847 0293 5B       		popq	%rbx
 3848              		.cfi_def_cfa_offset 48
 3849 0294 5D       		popq	%rbp
 3850              		.cfi_def_cfa_offset 40
 3851 0295 415C     		popq	%r12
 3852              		.cfi_def_cfa_offset 32
 3853 0297 415D     		popq	%r13
 3854              		.cfi_def_cfa_offset 24
 3855 0299 415E     		popq	%r14
 3856              		.cfi_def_cfa_offset 16
 3857 029b 415F     		popq	%r15
 3858              		.cfi_def_cfa_offset 8
 3859 029d C3       		ret
 3860              	.L261:
 3861              		.cfi_restore_state
 3862 029e E8000000 		call	__stack_chk_fail@PLT
 3862      00
 3863              	.L256:
 3864 02a3 4889C5   		movq	%rax, %rbp
 3865              	.L249:
 3866 02a6 488D0500 		leaq	16+_ZTVSt9basic_iosIcSt11char_traitsIcEE(%rip), %rax
 3866      000000
 3867 02ad 488DBB90 		leaq	144(%rbx), %rdi
 3867      000000
 3868 02b4 48898424 		movq	%rax, 176(%rsp)
 3868      B0000000 
 3869 02bc E8000000 		call	_ZNSt8ios_baseD2Ev@PLT
 3869      00
 3870 02c1 4889EF   		movq	%rbp, %rdi
 3871              	.LEHB139:
 3872 02c4 E8000000 		call	_Unwind_Resume@PLT
 3872      00
 3873              	.LEHE139:
 3874              	.L255:
 3875 02c9 4889C5   		movq	%rax, %rbp
 3876 02cc 4889DF   		movq	%rbx, %rdi
 3877 02cf E8000000 		call	_ZN8UnitTest15MemoryOutStreamD1Ev
 3877      00
 3878 02d4 4889EF   		movq	%rbp, %rdi
 3879              	.LEHB140:
 3880 02d7 E8000000 		call	_Unwind_Resume@PLT
 3880      00
 3881              	.LEHE140:
 3882              	.L257:
 3883 02dc 488D7B08 		leaq	8(%rbx), %rdi
 3884 02e0 4889C5   		movq	%rax, %rbp
 3885 02e3 E8000000 		call	_ZNSt7__cxx1115basic_stringbufIcSt11char_traitsIcESaIcEED1Ev
 3885      00
 3886 02e8 4C896C24 		movq	%r13, 32(%rsp)
 3886      20
 3887 02ed EBB7     		jmp	.L249
 3888              		.cfi_endproc
 3889              	.LFE1327:
 3890              		.section	.gcc_except_table
 3891              	.LLSDA1327:
 3892 0264 FF       		.byte	0xff
 3893 0265 FF       		.byte	0xff
 3894 0266 01       		.byte	0x1
 3895 0267 21       		.uleb128 .LLSDACSE1327-.LLSDACSB1327
 3896              	.LLSDACSB1327:
 3897 0268 BB01     		.uleb128 .LEHB135-.LFB1327
 3898 026a 05       		.uleb128 .LEHE135-.LEHB135
 3899 026b A305     		.uleb128 .L256-.LFB1327
 3900 026d 00       		.uleb128 0
 3901 026e BE02     		.uleb128 .LEHB136-.LFB1327
 3902 0270 05       		.uleb128 .LEHE136-.LEHB136
 3903 0271 DC05     		.uleb128 .L257-.LFB1327
 3904 0273 00       		.uleb128 0
 3905 0274 8D03     		.uleb128 .LEHB137-.LFB1327
 3906 0276 5B       		.uleb128 .LEHE137-.LEHB137
 3907 0277 C905     		.uleb128 .L255-.LFB1327
 3908 0279 00       		.uleb128 0
 3909 027a F404     		.uleb128 .LEHB138-.LFB1327
 3910 027c 05       		.uleb128 .LEHE138-.LEHB138
 3911 027d 00       		.uleb128 0
 3912 027e 00       		.uleb128 0
 3913 027f C405     		.uleb128 .LEHB139-.LFB1327
 3914 0281 05       		.uleb128 .LEHE139-.LEHB139
 3915 0282 00       		.uleb128 0
 3916 0283 00       		.uleb128 0
 3917 0284 D705     		.uleb128 .LEHB140-.LFB1327
 3918 0286 05       		.uleb128 .LEHE140-.LEHB140
 3919 0287 00       		.uleb128 0
 3920 0288 00       		.uleb128 0
 3921              	.LLSDACSE1327:
 3922              		.section	.text._ZN8UnitTest10CheckEqualIihEEvRNS_11TestResultsERKT_RKT0_RKNS_11TestDetailsE,"axG",
 3924              		.section	.text._ZN8UnitTest10CheckEqualImmEEvRNS_11TestResultsERKT_RKT0_RKNS_11TestDetailsE,"axG",
 3925              		.p2align 4,,15
 3926              		.weak	_ZN8UnitTest10CheckEqualImmEEvRNS_11TestResultsERKT_RKT0_RKNS_11TestDetailsE
 3928              	_ZN8UnitTest10CheckEqualImmEEvRNS_11TestResultsERKT_RKT0_RKNS_11TestDetailsE:
 3929              	.LFB1328:
 3930              		.cfi_startproc
 3931              		.cfi_personality 0x9b,DW.ref.__gxx_personality_v0
 3932              		.cfi_lsda 0x1b,.LLSDA1328
 3933 0000 4157     		pushq	%r15
 3934              		.cfi_def_cfa_offset 16
 3935              		.cfi_offset 15, -16
 3936 0002 4156     		pushq	%r14
 3937              		.cfi_def_cfa_offset 24
 3938              		.cfi_offset 14, -24
 3939 0004 4155     		pushq	%r13
 3940              		.cfi_def_cfa_offset 32
 3941              		.cfi_offset 13, -32
 3942 0006 4154     		pushq	%r12
 3943              		.cfi_def_cfa_offset 40
 3944              		.cfi_offset 12, -40
 3945 0008 55       		pushq	%rbp
 3946              		.cfi_def_cfa_offset 48
 3947              		.cfi_offset 6, -48
 3948 0009 53       		pushq	%rbx
 3949              		.cfi_def_cfa_offset 56
 3950              		.cfi_offset 3, -56
 3951 000a 4881ECB8 		subq	$440, %rsp
 3951      010000
 3952              		.cfi_def_cfa_offset 496
 3953 0011 64488B04 		movq	%fs:40, %rax
 3953      25280000 
 3953      00
 3954 001a 48898424 		movq	%rax, 424(%rsp)
 3954      A8010000 
 3955 0022 31C0     		xorl	%eax, %eax
 3956 0024 488B02   		movq	(%rdx), %rax
 3957 0027 483906   		cmpq	%rax, (%rsi)
 3958 002a 48893C24 		movq	%rdi, (%rsp)
 3959 002e 48894C24 		movq	%rcx, 8(%rsp)
 3959      08
 3960 0033 0F843002 		je	.L262
 3960      0000
 3961 0039 488D5C24 		leaq	16(%rsp), %rbx
 3961      10
 3962 003e 4C8D2D00 		leaq	24+_ZTCN8UnitTest15MemoryOutStreamE0_So(%rip), %r13
 3962      000000
 3963 0045 4989F4   		movq	%rsi, %r12
 3964 0048 4889D5   		movq	%rdx, %rbp
 3965 004b 4C8DB390 		leaq	144(%rbx), %r14
 3965      000000
 3966 0052 4C89F7   		movq	%r14, %rdi
 3967 0055 E8000000 		call	_ZNSt8ios_baseC2Ev@PLT
 3967      00
 3968 005a 498D4528 		leaq	40(%r13), %rax
 3969 005e 31F6     		xorl	%esi, %esi
 3970 0060 4C89F7   		movq	%r14, %rdi
 3971 0063 48C78424 		movq	$0, 376(%rsp)
 3971      78010000 
 3971      00000000 
 3972 006f C6842480 		movb	$0, 384(%rsp)
 3972      01000000 
 3973 0077 C6842481 		movb	$0, 385(%rsp)
 3973      01000000 
 3974 007f 48C78424 		movq	$0, 392(%rsp)
 3974      88010000 
 3974      00000000 
 3975 008b 48C78424 		movq	$0, 400(%rsp)
 3975      90010000 
 3975      00000000 
 3976 0097 48C78424 		movq	$0, 408(%rsp)
 3976      98010000 
 3976      00000000 
 3977 00a3 48C78424 		movq	$0, 416(%rsp)
 3977      A0010000 
 3977      00000000 
 3978 00af 4C896C24 		movq	%r13, 16(%rsp)
 3978      10
 3979 00b4 48898424 		movq	%rax, 160(%rsp)
 3979      A0000000 
 3980              	.LEHB141:
 3981 00bc E8000000 		call	_ZNSt9basic_iosIcSt11char_traitsIcEE4initEPSt15basic_streambufIcS1_E@PLT
 3981      00
 3982              	.LEHE141:
 3983 00c1 488D0500 		leaq	24+_ZTCN8UnitTest15MemoryOutStreamE0_NSt7__cxx1119basic_ostringstreamIcSt11char_traitsIcESaIc
 3983      000000
 3984 00c8 660FEFC0 		pxor	%xmm0, %xmm0
 3985 00cc 488D7B40 		leaq	64(%rbx), %rdi
 3986 00d0 48894424 		movq	%rax, 16(%rsp)
 3986      10
 3987 00d5 4883C028 		addq	$40, %rax
 3988 00d9 48898424 		movq	%rax, 160(%rsp)
 3988      A0000000 
 3989 00e1 488D0500 		leaq	16+_ZTVSt15basic_streambufIcSt11char_traitsIcEE(%rip), %rax
 3989      000000
 3990 00e8 0F294424 		movaps	%xmm0, 32(%rsp)
 3990      20
 3991 00ed 48894424 		movq	%rax, 24(%rsp)
 3991      18
 3992 00f2 0F294424 		movaps	%xmm0, 48(%rsp)
 3992      30
 3993 00f7 0F294424 		movaps	%xmm0, 64(%rsp)
 3993      40
 3994 00fc E8000000 		call	_ZNSt6localeC1Ev@PLT
 3994      00
 3995 0101 488D0500 		leaq	16+_ZTVNSt7__cxx1115basic_stringbufIcSt11char_traitsIcESaIcEEE(%rip), %rax
 3995      000000
 3996 0108 488D7308 		leaq	8(%rbx), %rsi
 3997 010c 48894424 		movq	%rax, 24(%rsp)
 3997      18
 3998 0111 488D4360 		leaq	96(%rbx), %rax
 3999 0115 C7442458 		movl	$16, 88(%rsp)
 3999      10000000 
 4000 011d 48C74424 		movq	$0, 104(%rsp)
 4000      68000000 
 4000      00
 4001 0126 C6442470 		movb	$0, 112(%rsp)
 4001      00
 4002 012b 48894424 		movq	%rax, 96(%rsp)
 4002      60
 4003 0130 488B4424 		movq	16(%rsp), %rax
 4003      10
 4004 0135 488B78E8 		movq	-24(%rax), %rdi
 4005 0139 4801DF   		addq	%rbx, %rdi
 4006              	.LEHB142:
 4007 013c E8000000 		call	_ZNSt9basic_iosIcSt11char_traitsIcEE4initEPSt15basic_streambufIcS1_E@PLT
 4007      00
 4008              	.LEHE142:
 4009 0141 4C8D3D00 		leaq	24+_ZTVN8UnitTest15MemoryOutStreamE(%rip), %r15
 4009      000000
 4010 0148 488D8380 		leaq	128(%rbx), %rax
 4010      000000
 4011 014f 488D3500 		leaq	.LC0(%rip), %rsi
 4011      000000
 4012 0156 BA090000 		movl	$9, %edx
 4012      00
 4013 015b 4889DF   		movq	%rbx, %rdi
 4014 015e 48C78424 		movq	$0, 136(%rsp)
 4014      88000000 
 4014      00000000 
 4015 016a 4D8D7728 		leaq	40(%r15), %r14
 4016 016e 4C897C24 		movq	%r15, 16(%rsp)
 4016      10
 4017 0173 48898424 		movq	%rax, 128(%rsp)
 4017      80000000 
 4018 017b C6842490 		movb	$0, 144(%rsp)
 4018      00000000 
 4019 0183 4C89B424 		movq	%r14, 160(%rsp)
 4019      A0000000 
 4020              	.LEHB143:
 4021 018b E8000000 		call	_ZSt16__ostream_insertIcSt11char_traitsIcEERSt13basic_ostreamIT_T0_ES6_PKS3_l@PLT
 4021      00
 4022 0190 498B3424 		movq	(%r12), %rsi
 4023 0194 4889DF   		movq	%rbx, %rdi
 4024 0197 E8000000 		call	_ZNSo9_M_insertImEERSoT_@PLT
 4024      00
 4025 019c 488D3500 		leaq	.LC1(%rip), %rsi
 4025      000000
 4026 01a3 BA090000 		movl	$9, %edx
 4026      00
 4027 01a8 4889C7   		movq	%rax, %rdi
 4028 01ab 4989C4   		movq	%rax, %r12
 4029 01ae E8000000 		call	_ZSt16__ostream_insertIcSt11char_traitsIcEERSt13basic_ostreamIT_T0_ES6_PKS3_l@PLT
 4029      00
 4030 01b3 488B7500 		movq	0(%rbp), %rsi
 4031 01b7 4C89E7   		movq	%r12, %rdi
 4032 01ba E8000000 		call	_ZNSo9_M_insertImEERSoT_@PLT
 4032      00
 4033 01bf 4889DF   		movq	%rbx, %rdi
 4034 01c2 E8000000 		call	_ZNK8UnitTest15MemoryOutStream7GetTextEv@PLT
 4034      00
 4035 01c7 488B7424 		movq	8(%rsp), %rsi
 4035      08
 4036 01cc 488B3C24 		movq	(%rsp), %rdi
 4037 01d0 4889C2   		movq	%rax, %rdx
 4038 01d3 E8000000 		call	_ZN8UnitTest11TestResults13OnTestFailureERKNS_11TestDetailsEPKc@PLT
 4038      00
 4039              	.LEHE143:
 4040 01d8 488BBC24 		movq	128(%rsp), %rdi
 4040      80000000 
 4041 01e0 488D8380 		leaq	128(%rbx), %rax
 4041      000000
 4042 01e7 4C897C24 		movq	%r15, 16(%rsp)
 4042      10
 4043 01ec 4C89B424 		movq	%r14, 160(%rsp)
 4043      A0000000 
 4044 01f4 4839C7   		cmpq	%rax, %rdi
 4045 01f7 7405     		je	.L268
 4046 01f9 E8000000 		call	_ZdlPv@PLT
 4046      00
 4047              	.L268:
 4048 01fe 488D0500 		leaq	64+_ZTCN8UnitTest15MemoryOutStreamE0_NSt7__cxx1119basic_ostringstreamIcSt11char_traitsIcESaIc
 4048      000000
 4049 0205 488B7C24 		movq	96(%rsp), %rdi
 4049      60
 4050 020a F30F7E05 		movq	.LC2(%rip), %xmm0
 4050      00000000 
 4051 0212 48898424 		movq	%rax, 160(%rsp)
 4051      A0000000 
 4052 021a 488D4360 		leaq	96(%rbx), %rax
 4053 021e 0F160500 		movhps	.LC3(%rip), %xmm0
 4053      000000
 4054 0225 4839C7   		cmpq	%rax, %rdi
 4055 0228 0F294424 		movaps	%xmm0, 16(%rsp)
 4055      10
 4056 022d 7405     		je	.L269
 4057 022f E8000000 		call	_ZdlPv@PLT
 4057      00
 4058              	.L269:
 4059 0234 488D0500 		leaq	16+_ZTVSt15basic_streambufIcSt11char_traitsIcEE(%rip), %rax
 4059      000000
 4060 023b 488D7B40 		leaq	64(%rbx), %rdi
 4061 023f 48894424 		movq	%rax, 24(%rsp)
 4061      18
 4062 0244 E8000000 		call	_ZNSt6localeD1Ev@PLT
 4062      00
 4063 0249 488D0500 		leaq	16+_ZTVSt9basic_iosIcSt11char_traitsIcEE(%rip), %rax
 4063      000000
 4064 0250 488DBB90 		leaq	144(%rbx), %rdi
 4064      000000
 4065 0257 4C896C24 		movq	%r13, 16(%rsp)
 4065      10
 4066 025c 48898424 		movq	%rax, 160(%rsp)
 4066      A0000000 
 4067              	.LEHB144:
 4068 0264 E8000000 		call	_ZNSt8ios_baseD2Ev@PLT
 4068      00
 4069              	.LEHE144:
 4070              	.L262:
 4071 0269 488B8424 		movq	424(%rsp), %rax
 4071      A8010000 
 4072 0271 64483304 		xorq	%fs:40, %rax
 4072      25280000 
 4072      00
 4073 027a 7512     		jne	.L278
 4074 027c 4881C4B8 		addq	$440, %rsp
 4074      010000
 4075              		.cfi_remember_state
 4076              		.cfi_def_cfa_offset 56
 4077 0283 5B       		popq	%rbx
 4078              		.cfi_def_cfa_offset 48
 4079 0284 5D       		popq	%rbp
 4080              		.cfi_def_cfa_offset 40
 4081 0285 415C     		popq	%r12
 4082              		.cfi_def_cfa_offset 32
 4083 0287 415D     		popq	%r13
 4084              		.cfi_def_cfa_offset 24
 4085 0289 415E     		popq	%r14
 4086              		.cfi_def_cfa_offset 16
 4087 028b 415F     		popq	%r15
 4088              		.cfi_def_cfa_offset 8
 4089 028d C3       		ret
 4090              	.L278:
 4091              		.cfi_restore_state
 4092 028e E8000000 		call	__stack_chk_fail@PLT
 4092      00
 4093              	.L273:
 4094 0293 4889C5   		movq	%rax, %rbp
 4095              	.L266:
 4096 0296 488D0500 		leaq	16+_ZTVSt9basic_iosIcSt11char_traitsIcEE(%rip), %rax
 4096      000000
 4097 029d 488DBB90 		leaq	144(%rbx), %rdi
 4097      000000
 4098 02a4 48898424 		movq	%rax, 160(%rsp)
 4098      A0000000 
 4099 02ac E8000000 		call	_ZNSt8ios_baseD2Ev@PLT
 4099      00
 4100 02b1 4889EF   		movq	%rbp, %rdi
 4101              	.LEHB145:
 4102 02b4 E8000000 		call	_Unwind_Resume@PLT
 4102      00
 4103              	.LEHE145:
 4104              	.L272:
 4105 02b9 4889C5   		movq	%rax, %rbp
 4106 02bc 4889DF   		movq	%rbx, %rdi
 4107 02bf E8000000 		call	_ZN8UnitTest15MemoryOutStreamD1Ev
 4107      00
 4108 02c4 4889EF   		movq	%rbp, %rdi
 4109              	.LEHB146:
 4110 02c7 E8000000 		call	_Unwind_Resume@PLT
 4110      00
 4111              	.LEHE146:
 4112              	.L274:
 4113 02cc 488D7B08 		leaq	8(%rbx), %rdi
 4114 02d0 4889C5   		movq	%rax, %rbp
 4115 02d3 E8000000 		call	_ZNSt7__cxx1115basic_stringbufIcSt11char_traitsIcESaIcEED1Ev
 4115      00
 4116 02d8 4C896C24 		movq	%r13, 16(%rsp)
 4116      10
 4117 02dd EBB7     		jmp	.L266
 4118              		.cfi_endproc
 4119              	.LFE1328:
 4120              		.section	.gcc_except_table
 4121              	.LLSDA1328:
 4122 0289 FF       		.byte	0xff
 4123 028a FF       		.byte	0xff
 4124 028b 01       		.byte	0x1
 4125 028c 21       		.uleb128 .LLSDACSE1328-.LLSDACSB1328
 4126              	.LLSDACSB1328:
 4127 028d BC01     		.uleb128 .LEHB141-.LFB1328
 4128 028f 05       		.uleb128 .LEHE141-.LEHB141
 4129 0290 9305     		.uleb128 .L273-.LFB1328
 4130 0292 00       		.uleb128 0
 4131 0293 BC02     		.uleb128 .LEHB142-.LFB1328
 4132 0295 05       		.uleb128 .LEHE142-.LEHB142
 4133 0296 CC05     		.uleb128 .L274-.LFB1328
 4134 0298 00       		.uleb128 0
 4135 0299 8B03     		.uleb128 .LEHB143-.LFB1328
 4136 029b 4D       		.uleb128 .LEHE143-.LEHB143
 4137 029c B905     		.uleb128 .L272-.LFB1328
 4138 029e 00       		.uleb128 0
 4139 029f E404     		.uleb128 .LEHB144-.LFB1328
 4140 02a1 05       		.uleb128 .LEHE144-.LEHB144
 4141 02a2 00       		.uleb128 0
 4142 02a3 00       		.uleb128 0
 4143 02a4 B405     		.uleb128 .LEHB145-.LFB1328
 4144 02a6 05       		.uleb128 .LEHE145-.LEHB145
 4145 02a7 00       		.uleb128 0
 4146 02a8 00       		.uleb128 0
 4147 02a9 C705     		.uleb128 .LEHB146-.LFB1328
 4148 02ab 05       		.uleb128 .LEHE146-.LEHB146
 4149 02ac 00       		.uleb128 0
 4150 02ad 00       		.uleb128 0
 4151              	.LLSDACSE1328:
 4152              		.section	.text._ZN8UnitTest10CheckEqualImmEEvRNS_11TestResultsERKT_RKT0_RKNS_11TestDetailsE,"axG",
 4154              		.section	.rodata.str1.1
 4155              	.LC23:
 4156 00be 3A303030 		.string	":00000001FF\n"
 4156      30303030 
 4156      3146460A 
 4156      00
 4157              		.section	.rodata.str1.8
 4158 0275 000000   		.align 8
 4159              	.LC24:
 4160 0278 556E6861 		.string	"Unhandled exception in CHECK_EQUAL(0x01, recordType)"
 4160      6E646C65 
 4160      64206578 
 4160      63657074 
 4160      696F6E20 
 4161 02ad 000000   		.align 8
 4162              	.LC25:
 4163 02b0 556E6861 		.string	"Unhandled exception in CHECK_EQUAL(0UL, data.length)"
 4163      6E646C65 
 4163      64206578 
 4163      63657074 
 4163      696F6E20 
 4164 02e5 000000   		.align 8
 4165              	.LC26:
 4166 02e8 556E6861 		.string	"Unhandled exception in CHECK_EQUAL(0UL, mask.length)"
 4166      6E646C65 
 4166      64206578 
 4166      63657074 
 4166      696F6E20 
 4167              		.text
 4168              		.align 2
 4169              		.p2align 4,,15
 4170              		.globl	_ZNK22TestHexIO_testValidEOF7RunImplEv
 4172              	_ZNK22TestHexIO_testValidEOF7RunImplEv:
 4173              	.LFB1248:
 4174              		.cfi_startproc
 4175              		.cfi_personality 0x9b,DW.ref.__gxx_personality_v0
 4176              		.cfi_lsda 0x1b,.LLSDA1248
 4177 0ea0 4157     		pushq	%r15
 4178              		.cfi_def_cfa_offset 16
 4179              		.cfi_offset 15, -16
 4180 0ea2 4156     		pushq	%r14
 4181              		.cfi_def_cfa_offset 24
 4182              		.cfi_offset 14, -24
 4183 0ea4 31C9     		xorl	%ecx, %ecx
 4184 0ea6 4155     		pushq	%r13
 4185              		.cfi_def_cfa_offset 32
 4186              		.cfi_offset 13, -32
 4187 0ea8 4154     		pushq	%r12
 4188              		.cfi_def_cfa_offset 40
 4189              		.cfi_offset 12, -40
 4190 0eaa 31D2     		xorl	%edx, %edx
 4191 0eac 55       		pushq	%rbp
 4192              		.cfi_def_cfa_offset 48
 4193              		.cfi_offset 6, -48
 4194 0ead 53       		pushq	%rbx
 4195              		.cfi_def_cfa_offset 56
 4196              		.cfi_offset 3, -56
 4197 0eae BE000400 		movl	$1024, %esi
 4197      00
 4198 0eb3 4881EC38 		subq	$568, %rsp
 4198      020000
 4199              		.cfi_def_cfa_offset 624
 4200 0eba 4C8D6C24 		leaq	48(%rsp), %r13
 4200      30
 4201 0ebf C7442424 		movl	$0, 36(%rsp)
 4201      00000000 
 4202 0ec7 64488B04 		movq	%fs:40, %rax
 4202      25280000 
 4202      00
 4203 0ed0 48898424 		movq	%rax, 552(%rsp)
 4203      28020000 
 4204 0ed8 31C0     		xorl	%eax, %eax
 4205 0eda 4C89EF   		movq	%r13, %rdi
 4206              	.LEHB147:
 4207 0edd E8000000 		call	bufInitialise@PLT
 4207      00
 4208              	.LEHE147:
 4209 0ee2 89442420 		movl	%eax, 32(%rsp)
 4210              	.LEHB148:
 4211 0ee6 E8000000 		call	_ZN8UnitTest11CurrentTest7DetailsEv@PLT
 4211      00
 4212 0eeb 488D5C24 		leaq	112(%rsp), %rbx
 4212      70
 4213 0ef0 488B30   		movq	(%rax), %rsi
 4214 0ef3 BA390000 		movl	$57, %edx
 4214      00
 4215 0ef8 4889DF   		movq	%rbx, %rdi
 4216 0efb E8000000 		call	_ZN8UnitTest11TestDetailsC1ERKS0_i@PLT
 4216      00
 4217 0f00 C7442450 		movl	$0, 80(%rsp)
 4217      00000000 
 4218 0f08 E8000000 		call	_ZN8UnitTest11CurrentTest7ResultsEv@PLT
 4218      00
 4219 0f0d 4C8D6424 		leaq	80(%rsp), %r12
 4219      50
 4220 0f12 488B38   		movq	(%rax), %rdi
 4221 0f15 488D5424 		leaq	32(%rsp), %rdx
 4221      20
 4222 0f1a 4889D9   		movq	%rbx, %rcx
 4223 0f1d 4C89E6   		movq	%r12, %rsi
 4224 0f20 E8000000 		call	_ZN8UnitTest10CheckEqualI12BufferStatusS1_EEvRNS_11TestResultsERKT_RKT0_RKNS_11TestDetailsE
 4224      00
 4225              	.LEHE148:
 4226              	.L290:
 4227 0f25 31C9     		xorl	%ecx, %ecx
 4228 0f27 31D2     		xorl	%edx, %edx
 4229 0f29 BE000400 		movl	$1024, %esi
 4229      00
 4230 0f2e 4C89E7   		movq	%r12, %rdi
 4231              	.LEHB149:
 4232 0f31 E8000000 		call	bufInitialise@PLT
 4232      00
 4233              	.LEHE149:
 4234 0f36 89442420 		movl	%eax, 32(%rsp)
 4235              	.LEHB150:
 4236 0f3a E8000000 		call	_ZN8UnitTest11CurrentTest7DetailsEv@PLT
 4236      00
 4237 0f3f 488B30   		movq	(%rax), %rsi
 4238 0f42 BA3B0000 		movl	$59, %edx
 4238      00
 4239 0f47 4889DF   		movq	%rbx, %rdi
 4240 0f4a E8000000 		call	_ZN8UnitTest11TestDetailsC1ERKS0_i@PLT
 4240      00
 4241 0f4f C7442428 		movl	$0, 40(%rsp)
 4241      00000000 
 4242 0f57 E8000000 		call	_ZN8UnitTest11CurrentTest7ResultsEv@PLT
 4242      00
 4243 0f5c 488B38   		movq	(%rax), %rdi
 4244 0f5f 488D5424 		leaq	32(%rsp), %rdx
 4244      20
 4245 0f64 488D7424 		leaq	40(%rsp), %rsi
 4245      28
 4246 0f69 4889D9   		movq	%rbx, %rcx
 4247 0f6c E8000000 		call	_ZN8UnitTest10CheckEqualI12BufferStatusS1_EEvRNS_11TestResultsERKT_RKT0_RKNS_11TestDetailsE
 4247      00
 4248              	.LEHE150:
 4249              	.L293:
 4250 0f71 4883EC08 		subq	$8, %rsp
 4251              		.cfi_def_cfa_offset 632
 4252 0f75 488D3D00 		leaq	.LC23(%rip), %rdi
 4252      000000
 4253 0f7c 4C89EA   		movq	%r13, %rdx
 4254 0f7f 6A00     		pushq	$0
 4255              		.cfi_def_cfa_offset 640
 4256 0f81 4C89E1   		movq	%r12, %rcx
 4257 0f84 31F6     		xorl	%esi, %esi
 4258 0f86 4C8D4C24 		leaq	46(%rsp), %r9
 4258      2E
 4259 0f8b 4C8D4424 		leaq	52(%rsp), %r8
 4259      34
 4260              	.LEHB151:
 4261 0f90 E8000000 		call	bufProcessLine@PLT
 4261      00
 4262              	.LEHE151:
 4263 0f95 89442430 		movl	%eax, 48(%rsp)
 4264 0f99 58       		popq	%rax
 4265              		.cfi_def_cfa_offset 632
 4266 0f9a 5A       		popq	%rdx
 4267              		.cfi_def_cfa_offset 624
 4268              	.LEHB152:
 4269 0f9b E8000000 		call	_ZN8UnitTest11CurrentTest7DetailsEv@PLT
 4269      00
 4270 0fa0 488B30   		movq	(%rax), %rsi
 4271 0fa3 BA3D0000 		movl	$61, %edx
 4271      00
 4272 0fa8 4889DF   		movq	%rbx, %rdi
 4273 0fab E8000000 		call	_ZN8UnitTest11TestDetailsC1ERKS0_i@PLT
 4273      00
 4274 0fb0 C7442428 		movl	$0, 40(%rsp)
 4274      00000000 
 4275 0fb8 E8000000 		call	_ZN8UnitTest11CurrentTest7ResultsEv@PLT
 4275      00
 4276 0fbd 488B38   		movq	(%rax), %rdi
 4277 0fc0 488D5424 		leaq	32(%rsp), %rdx
 4277      20
 4278 0fc5 488D7424 		leaq	40(%rsp), %rsi
 4278      28
 4279 0fca 4889D9   		movq	%rbx, %rcx
 4280 0fcd E8000000 		call	_ZN8UnitTest10CheckEqualI12BufferStatusS1_EEvRNS_11TestResultsERKT_RKT0_RKNS_11TestDetailsE
 4280      00
 4281              	.LEHE152:
 4282              	.L296:
 4283              	.LEHB153:
 4284 0fd2 E8000000 		call	_ZN8UnitTest11CurrentTest7DetailsEv@PLT
 4284      00
 4285 0fd7 488B30   		movq	(%rax), %rsi
 4286 0fda BA3E0000 		movl	$62, %edx
 4286      00
 4287 0fdf 4889DF   		movq	%rbx, %rdi
 4288 0fe2 E8000000 		call	_ZN8UnitTest11TestDetailsC1ERKS0_i@PLT
 4288      00
 4289 0fe7 E8000000 		call	_ZN8UnitTest11CurrentTest7ResultsEv@PLT
 4289      00
 4290              	.LEHE153:
 4291 0fec 807C241E 		cmpb	$1, 30(%rsp)
 4291      01
 4292 0ff1 0F848302 		je	.L298
 4292      0000
 4293 0ff7 488DAC24 		leaq	144(%rsp), %rbp
 4293      90000000 
 4294 0fff 488B00   		movq	(%rax), %rax
 4295 1002 4C8D3500 		leaq	24+_ZTCN8UnitTest15MemoryOutStreamE0_So(%rip), %r14
 4295      000000
 4296 1009 4C8DBD90 		leaq	144(%rbp), %r15
 4296      000000
 4297 1010 48890424 		movq	%rax, (%rsp)
 4298 1014 4C89FF   		movq	%r15, %rdi
 4299 1017 E8000000 		call	_ZNSt8ios_baseC2Ev@PLT
 4299      00
 4300 101c 498D4628 		leaq	40(%r14), %rax
 4301 1020 31F6     		xorl	%esi, %esi
 4302 1022 4C89FF   		movq	%r15, %rdi
 4303 1025 48C78424 		movq	$0, 504(%rsp)
 4303      F8010000 
 4303      00000000 
 4304 1031 C6842400 		movb	$0, 512(%rsp)
 4304      02000000 
 4305 1039 C6842401 		movb	$0, 513(%rsp)
 4305      02000000 
 4306 1041 48C78424 		movq	$0, 520(%rsp)
 4306      08020000 
 4306      00000000 
 4307 104d 48C78424 		movq	$0, 528(%rsp)
 4307      10020000 
 4307      00000000 
 4308 1059 48C78424 		movq	$0, 536(%rsp)
 4308      18020000 
 4308      00000000 
 4309 1065 48C78424 		movq	$0, 544(%rsp)
 4309      20020000 
 4309      00000000 
 4310 1071 4C89B424 		movq	%r14, 144(%rsp)
 4310      90000000 
 4311 1079 48898424 		movq	%rax, 288(%rsp)
 4311      20010000 
 4312              	.LEHB154:
 4313 1081 E8000000 		call	_ZNSt9basic_iosIcSt11char_traitsIcEE4initEPSt15basic_streambufIcS1_E@PLT
 4313      00
 4314              	.LEHE154:
 4315 1086 488D0500 		leaq	24+_ZTCN8UnitTest15MemoryOutStreamE0_NSt7__cxx1119basic_ostringstreamIcSt11char_traitsIcESaIc
 4315      000000
 4316 108d 660FEFC0 		pxor	%xmm0, %xmm0
 4317 1091 488D7D40 		leaq	64(%rbp), %rdi
 4318 1095 48898424 		movq	%rax, 144(%rsp)
 4318      90000000 
 4319 109d 4883C028 		addq	$40, %rax
 4320 10a1 48898424 		movq	%rax, 288(%rsp)
 4320      20010000 
 4321 10a9 488D0500 		leaq	16+_ZTVSt15basic_streambufIcSt11char_traitsIcEE(%rip), %rax
 4321      000000
 4322 10b0 0F298424 		movaps	%xmm0, 160(%rsp)
 4322      A0000000 
 4323 10b8 48898424 		movq	%rax, 152(%rsp)
 4323      98000000 
 4324 10c0 0F298424 		movaps	%xmm0, 176(%rsp)
 4324      B0000000 
 4325 10c8 0F298424 		movaps	%xmm0, 192(%rsp)
 4325      C0000000 
 4326 10d0 E8000000 		call	_ZNSt6localeC1Ev@PLT
 4326      00
 4327 10d5 488D0500 		leaq	16+_ZTVNSt7__cxx1115basic_stringbufIcSt11char_traitsIcESaIcEEE(%rip), %rax
 4327      000000
 4328 10dc 488D7508 		leaq	8(%rbp), %rsi
 4329 10e0 48898424 		movq	%rax, 152(%rsp)
 4329      98000000 
 4330 10e8 488D4560 		leaq	96(%rbp), %rax
 4331 10ec C78424D8 		movl	$16, 216(%rsp)
 4331      00000010 
 4331      000000
 4332 10f7 48C78424 		movq	$0, 232(%rsp)
 4332      E8000000 
 4332      00000000 
 4333 1103 C68424F0 		movb	$0, 240(%rsp)
 4333      00000000 
 4334 110b 48898424 		movq	%rax, 224(%rsp)
 4334      E0000000 
 4335 1113 488B8424 		movq	144(%rsp), %rax
 4335      90000000 
 4336 111b 488B78E8 		movq	-24(%rax), %rdi
 4337 111f 4801EF   		addq	%rbp, %rdi
 4338              	.LEHB155:
 4339 1122 E8000000 		call	_ZNSt9basic_iosIcSt11char_traitsIcEE4initEPSt15basic_streambufIcS1_E@PLT
 4339      00
 4340              	.LEHE155:
 4341 1127 4C8D3D00 		leaq	24+_ZTVN8UnitTest15MemoryOutStreamE(%rip), %r15
 4341      000000
 4342 112e 488D3500 		leaq	.LC0(%rip), %rsi
 4342      000000
 4343 1135 BA090000 		movl	$9, %edx
 4343      00
 4344 113a 4889EF   		movq	%rbp, %rdi
 4345 113d 48C78424 		movq	$0, 264(%rsp)
 4345      08010000 
 4345      00000000 
 4346 1149 C6842410 		movb	$0, 272(%rsp)
 4346      01000000 
 4347 1151 498D4728 		leaq	40(%r15), %rax
 4348 1155 4C89BC24 		movq	%r15, 144(%rsp)
 4348      90000000 
 4349 115d 48898424 		movq	%rax, 288(%rsp)
 4349      20010000 
 4350 1165 488D8580 		leaq	128(%rbp), %rax
 4350      000000
 4351 116c 48898424 		movq	%rax, 256(%rsp)
 4351      00010000 
 4352              	.LEHB156:
 4353 1174 E8000000 		call	_ZSt16__ostream_insertIcSt11char_traitsIcEERSt13basic_ostreamIT_T0_ES6_PKS3_l@PLT
 4353      00
 4354 1179 BE010000 		movl	$1, %esi
 4354      00
 4355 117e 4889EF   		movq	%rbp, %rdi
 4356 1181 E8000000 		call	_ZNSolsEi@PLT
 4356      00
 4357 1186 488D3500 		leaq	.LC1(%rip), %rsi
 4357      000000
 4358 118d BA090000 		movl	$9, %edx
 4358      00
 4359 1192 4889C7   		movq	%rax, %rdi
 4360 1195 48894424 		movq	%rax, 8(%rsp)
 4360      08
 4361 119a E8000000 		call	_ZSt16__ostream_insertIcSt11char_traitsIcEERSt13basic_ostreamIT_T0_ES6_PKS3_l@PLT
 4361      00
 4362 119f 0FB64424 		movzbl	30(%rsp), %eax
 4362      1E
 4363 11a4 488B7C24 		movq	8(%rsp), %rdi
 4363      08
 4364 11a9 488D7424 		leaq	31(%rsp), %rsi
 4364      1F
 4365 11ae BA010000 		movl	$1, %edx
 4365      00
 4366 11b3 8844241F 		movb	%al, 31(%rsp)
 4367 11b7 E8000000 		call	_ZSt16__ostream_insertIcSt11char_traitsIcEERSt13basic_ostreamIT_T0_ES6_PKS3_l@PLT
 4367      00
 4368 11bc 4889EF   		movq	%rbp, %rdi
 4369 11bf E8000000 		call	_ZNK8UnitTest15MemoryOutStream7GetTextEv@PLT
 4369      00
 4370 11c4 488B3C24 		movq	(%rsp), %rdi
 4371 11c8 4889C2   		movq	%rax, %rdx
 4372 11cb 4889DE   		movq	%rbx, %rsi
 4373 11ce E8000000 		call	_ZN8UnitTest11TestResults13OnTestFailureERKNS_11TestDetailsEPKc@PLT
 4373      00
 4374              	.LEHE156:
 4375 11d3 488D0500 		leaq	64+_ZTVN8UnitTest15MemoryOutStreamE(%rip), %rax
 4375      000000
 4376 11da 488BBC24 		movq	256(%rsp), %rdi
 4376      00010000 
 4377 11e2 4C89BC24 		movq	%r15, 144(%rsp)
 4377      90000000 
 4378 11ea 48898424 		movq	%rax, 288(%rsp)
 4378      20010000 
 4379 11f2 488D8580 		leaq	128(%rbp), %rax
 4379      000000
 4380 11f9 4839C7   		cmpq	%rax, %rdi
 4381 11fc 7405     		je	.L286
 4382 11fe E8000000 		call	_ZdlPv@PLT
 4382      00
 4383              	.L286:
 4384 1203 488D0500 		leaq	64+_ZTCN8UnitTest15MemoryOutStreamE0_NSt7__cxx1119basic_ostringstreamIcSt11char_traitsIcESaIc
 4384      000000
 4385 120a 488BBC24 		movq	224(%rsp), %rdi
 4385      E0000000 
 4386 1212 F30F7E05 		movq	.LC2(%rip), %xmm0
 4386      00000000 
 4387 121a 48898424 		movq	%rax, 288(%rsp)
 4387      20010000 
 4388 1222 488D4560 		leaq	96(%rbp), %rax
 4389 1226 0F160500 		movhps	.LC3(%rip), %xmm0
 4389      000000
 4390 122d 4839C7   		cmpq	%rax, %rdi
 4391 1230 0F298424 		movaps	%xmm0, 144(%rsp)
 4391      90000000 
 4392 1238 7405     		je	.L287
 4393 123a E8000000 		call	_ZdlPv@PLT
 4393      00
 4394              	.L287:
 4395 123f 488D0500 		leaq	16+_ZTVSt15basic_streambufIcSt11char_traitsIcEE(%rip), %rax
 4395      000000
 4396 1246 488D7D40 		leaq	64(%rbp), %rdi
 4397 124a 48898424 		movq	%rax, 152(%rsp)
 4397      98000000 
 4398 1252 E8000000 		call	_ZNSt6localeD1Ev@PLT
 4398      00
 4399 1257 488D0500 		leaq	16+_ZTVSt9basic_iosIcSt11char_traitsIcEE(%rip), %rax
 4399      000000
 4400 125e 488DBD90 		leaq	144(%rbp), %rdi
 4400      000000
 4401 1265 4C89B424 		movq	%r14, 144(%rsp)
 4401      90000000 
 4402 126d 48898424 		movq	%rax, 288(%rsp)
 4402      20010000 
 4403              	.LEHB157:
 4404 1275 E8000000 		call	_ZNSt8ios_baseD2Ev@PLT
 4404      00
 4405              	.LEHE157:
 4406              	.L298:
 4407              	.LEHB158:
 4408 127a E8000000 		call	_ZN8UnitTest11CurrentTest7DetailsEv@PLT
 4408      00
 4409 127f 488B30   		movq	(%rax), %rsi
 4410 1282 BA3F0000 		movl	$63, %edx
 4410      00
 4411 1287 4889DF   		movq	%rbx, %rdi
 4412 128a E8000000 		call	_ZN8UnitTest11TestDetailsC1ERKS0_i@PLT
 4412      00
 4413 128f 48C74424 		movq	$0, 40(%rsp)
 4413      28000000 
 4413      00
 4414 1298 E8000000 		call	_ZN8UnitTest11CurrentTest7ResultsEv@PLT
 4414      00
 4415 129d 488B38   		movq	(%rax), %rdi
 4416 12a0 498D5508 		leaq	8(%r13), %rdx
 4417 12a4 488D7424 		leaq	40(%rsp), %rsi
 4417      28
 4418 12a9 4889D9   		movq	%rbx, %rcx
 4419 12ac E8000000 		call	_ZN8UnitTest10CheckEqualImmEEvRNS_11TestResultsERKT_RKT0_RKNS_11TestDetailsE
 4419      00
 4420              	.LEHE158:
 4421              	.L301:
 4422              	.LEHB159:
 4423 12b1 E8000000 		call	_ZN8UnitTest11CurrentTest7DetailsEv@PLT
 4423      00
 4424 12b6 488B30   		movq	(%rax), %rsi
 4425 12b9 BA400000 		movl	$64, %edx
 4425      00
 4426 12be 4889DF   		movq	%rbx, %rdi
 4427 12c1 E8000000 		call	_ZN8UnitTest11TestDetailsC1ERKS0_i@PLT
 4427      00
 4428 12c6 48C74424 		movq	$0, 40(%rsp)
 4428      28000000 
 4428      00
 4429 12cf E8000000 		call	_ZN8UnitTest11CurrentTest7ResultsEv@PLT
 4429      00
 4430 12d4 488B38   		movq	(%rax), %rdi
 4431 12d7 498D5424 		leaq	8(%r12), %rdx
 4431      08
 4432 12dc 488D7424 		leaq	40(%rsp), %rsi
 4432      28
 4433 12e1 4889D9   		movq	%rbx, %rcx
 4434 12e4 E8000000 		call	_ZN8UnitTest10CheckEqualImmEEvRNS_11TestResultsERKT_RKT0_RKNS_11TestDetailsE
 4434      00
 4435              	.LEHE159:
 4436              	.L304:
 4437 12e9 4C89E7   		movq	%r12, %rdi
 4438              	.LEHB160:
 4439 12ec E8000000 		call	bufDestroy@PLT
 4439      00
 4440 12f1 4C89EF   		movq	%r13, %rdi
 4441 12f4 E8000000 		call	bufDestroy@PLT
 4441      00
 4442              	.LEHE160:
 4443 12f9 488B8424 		movq	552(%rsp), %rax
 4443      28020000 
 4444 1301 64483304 		xorq	%fs:40, %rax
 4444      25280000 
 4444      00
 4445 130a 7512     		jne	.L326
 4446 130c 4881C438 		addq	$568, %rsp
 4446      020000
 4447              		.cfi_remember_state
 4448              		.cfi_def_cfa_offset 56
 4449 1313 5B       		popq	%rbx
 4450              		.cfi_def_cfa_offset 48
 4451 1314 5D       		popq	%rbp
 4452              		.cfi_def_cfa_offset 40
 4453 1315 415C     		popq	%r12
 4454              		.cfi_def_cfa_offset 32
 4455 1317 415D     		popq	%r13
 4456              		.cfi_def_cfa_offset 24
 4457 1319 415E     		popq	%r14
 4458              		.cfi_def_cfa_offset 16
 4459 131b 415F     		popq	%r15
 4460              		.cfi_def_cfa_offset 8
 4461 131d C3       		ret
 4462              	.L326:
 4463              		.cfi_restore_state
 4464 131e E8000000 		call	__stack_chk_fail@PLT
 4464      00
 4465              	.L307:
 4466 1323 4889C7   		movq	%rax, %rdi
 4467 1326 E8000000 		call	__cxa_begin_catch@PLT
 4467      00
 4468              	.LEHB161:
 4469 132b E8000000 		call	_ZN8UnitTest11CurrentTest7ResultsEv@PLT
 4469      00
 4470 1330 488B28   		movq	(%rax), %rbp
 4471 1333 E8000000 		call	_ZN8UnitTest11CurrentTest7DetailsEv@PLT
 4471      00
 4472 1338 488D5C24 		leaq	112(%rsp), %rbx
 4472      70
 4473 133d 488B30   		movq	(%rax), %rsi
 4474 1340 BA390000 		movl	$57, %edx
 4474      00
 4475 1345 4889DF   		movq	%rbx, %rdi
 4476 1348 E8000000 		call	_ZN8UnitTest11TestDetailsC1ERKS0_i@PLT
 4476      00
 4477 134d 488D1500 		leaq	.LC5(%rip), %rdx
 4477      000000
 4478 1354 4889DE   		movq	%rbx, %rsi
 4479 1357 4889EF   		movq	%rbp, %rdi
 4480 135a E8000000 		call	_ZN8UnitTest11TestResults13OnTestFailureERKNS_11TestDetailsEPKc@PLT
 4480      00
 4481              	.LEHE161:
 4482              	.LEHB162:
 4483 135f E8000000 		call	__cxa_end_catch@PLT
 4483      00
 4484              	.LEHE162:
 4485 1364 4C8D6424 		leaq	80(%rsp), %r12
 4485      50
 4486 1369 E9B7FBFF 		jmp	.L290
 4486      FF
 4487              	.L319:
 4488 136e 4889EF   		movq	%rbp, %rdi
 4489 1371 4989C6   		movq	%rax, %r14
 4490 1374 E8000000 		call	_ZN8UnitTest15MemoryOutStreamD1Ev
 4490      00
 4491              	.L285:
 4492 1379 4C89F7   		movq	%r14, %rdi
 4493 137c E8000000 		call	__cxa_begin_catch@PLT
 4493      00
 4494              	.LEHB163:
 4495 1381 E8000000 		call	_ZN8UnitTest11CurrentTest7ResultsEv@PLT
 4495      00
 4496 1386 488B28   		movq	(%rax), %rbp
 4497 1389 E8000000 		call	_ZN8UnitTest11CurrentTest7DetailsEv@PLT
 4497      00
 4498 138e 488B30   		movq	(%rax), %rsi
 4499 1391 BA3E0000 		movl	$62, %edx
 4499      00
 4500 1396 4889DF   		movq	%rbx, %rdi
 4501 1399 E8000000 		call	_ZN8UnitTest11TestDetailsC1ERKS0_i@PLT
 4501      00
 4502 139e 488D1500 		leaq	.LC24(%rip), %rdx
 4502      000000
 4503 13a5 4889DE   		movq	%rbx, %rsi
 4504 13a8 4889EF   		movq	%rbp, %rdi
 4505 13ab E8000000 		call	_ZN8UnitTest11TestResults13OnTestFailureERKNS_11TestDetailsEPKc@PLT
 4505      00
 4506              	.LEHE163:
 4507              	.LEHB164:
 4508 13b0 E8000000 		call	__cxa_end_catch@PLT
 4508      00
 4509              	.LEHE164:
 4510 13b5 E9C0FEFF 		jmp	.L298
 4510      FF
 4511              	.L320:
 4512 13ba 4989C6   		movq	%rax, %r14
 4513              	.L283:
 4514 13bd 488D0500 		leaq	16+_ZTVSt9basic_iosIcSt11char_traitsIcEE(%rip), %rax
 4514      000000
 4515 13c4 488DBD90 		leaq	144(%rbp), %rdi
 4515      000000
 4516 13cb 48898424 		movq	%rax, 288(%rsp)
 4516      20010000 
 4517 13d3 E8000000 		call	_ZNSt8ios_baseD2Ev@PLT
 4517      00
 4518 13d8 EB9F     		jmp	.L285
 4519              	.L317:
 4520 13da 4889C7   		movq	%rax, %rdi
 4521 13dd E8000000 		call	__cxa_begin_catch@PLT
 4521      00
 4522              	.LEHB165:
 4523 13e2 E8000000 		call	_ZN8UnitTest11CurrentTest7ResultsEv@PLT
 4523      00
 4524 13e7 488B28   		movq	(%rax), %rbp
 4525 13ea E8000000 		call	_ZN8UnitTest11CurrentTest7DetailsEv@PLT
 4525      00
 4526 13ef 488B30   		movq	(%rax), %rsi
 4527 13f2 BA400000 		movl	$64, %edx
 4527      00
 4528 13f7 4889DF   		movq	%rbx, %rdi
 4529 13fa E8000000 		call	_ZN8UnitTest11TestDetailsC1ERKS0_i@PLT
 4529      00
 4530 13ff 488D1500 		leaq	.LC26(%rip), %rdx
 4530      000000
 4531 1406 4889DE   		movq	%rbx, %rsi
 4532 1409 4889EF   		movq	%rbp, %rdi
 4533 140c E8000000 		call	_ZN8UnitTest11TestResults13OnTestFailureERKNS_11TestDetailsEPKc@PLT
 4533      00
 4534              	.LEHE165:
 4535              	.LEHB166:
 4536 1411 E8000000 		call	__cxa_end_catch@PLT
 4536      00
 4537              	.LEHE166:
 4538 1416 E9CEFEFF 		jmp	.L304
 4538      FF
 4539              	.L315:
 4540 141b 4889C7   		movq	%rax, %rdi
 4541 141e E8000000 		call	__cxa_begin_catch@PLT
 4541      00
 4542              	.LEHB167:
 4543 1423 E8000000 		call	_ZN8UnitTest11CurrentTest7ResultsEv@PLT
 4543      00
 4544 1428 488B28   		movq	(%rax), %rbp
 4545 142b E8000000 		call	_ZN8UnitTest11CurrentTest7DetailsEv@PLT
 4545      00
 4546 1430 488B30   		movq	(%rax), %rsi
 4547 1433 BA3F0000 		movl	$63, %edx
 4547      00
 4548 1438 4889DF   		movq	%rbx, %rdi
 4549 143b E8000000 		call	_ZN8UnitTest11TestDetailsC1ERKS0_i@PLT
 4549      00
 4550 1440 488D1500 		leaq	.LC25(%rip), %rdx
 4550      000000
 4551 1447 4889DE   		movq	%rbx, %rsi
 4552 144a 4889EF   		movq	%rbp, %rdi
 4553 144d E8000000 		call	_ZN8UnitTest11TestResults13OnTestFailureERKNS_11TestDetailsEPKc@PLT
 4553      00
 4554              	.LEHE167:
 4555              	.LEHB168:
 4556 1452 E8000000 		call	__cxa_end_catch@PLT
 4556      00
 4557              	.LEHE168:
 4558 1457 E955FEFF 		jmp	.L301
 4558      FF
 4559              	.L318:
 4560 145c 4889C3   		movq	%rax, %rbx
 4561 145f E8000000 		call	__cxa_end_catch@PLT
 4561      00
 4562 1464 4889DF   		movq	%rbx, %rdi
 4563              	.LEHB169:
 4564 1467 E8000000 		call	_Unwind_Resume@PLT
 4564      00
 4565              	.LEHE169:
 4566              	.L316:
 4567 146c 4889C3   		movq	%rax, %rbx
 4568 146f E8000000 		call	__cxa_end_catch@PLT
 4568      00
 4569 1474 4889DF   		movq	%rbx, %rdi
 4570              	.LEHB170:
 4571 1477 E8000000 		call	_Unwind_Resume@PLT
 4571      00
 4572              	.LEHE170:
 4573              	.L321:
 4574 147c 488D7D08 		leaq	8(%rbp), %rdi
 4575 1480 4989C7   		movq	%rax, %r15
 4576 1483 E8000000 		call	_ZNSt7__cxx1115basic_stringbufIcSt11char_traitsIcESaIcEED1Ev
 4576      00
 4577 1488 4C89B424 		movq	%r14, 144(%rsp)
 4577      90000000 
 4578 1490 4D89FE   		movq	%r15, %r14
 4579 1493 E925FFFF 		jmp	.L283
 4579      FF
 4580              	.L308:
 4581 1498 4889C3   		movq	%rax, %rbx
 4582 149b E8000000 		call	__cxa_end_catch@PLT
 4582      00
 4583 14a0 4889DF   		movq	%rbx, %rdi
 4584              	.LEHB171:
 4585 14a3 E8000000 		call	_Unwind_Resume@PLT
 4585      00
 4586              	.LEHE171:
 4587              	.L311:
 4588 14a8 4889C7   		movq	%rax, %rdi
 4589 14ab E8000000 		call	__cxa_begin_catch@PLT
 4589      00
 4590              	.LEHB172:
 4591 14b0 E8000000 		call	_ZN8UnitTest11CurrentTest7ResultsEv@PLT
 4591      00
 4592 14b5 488B28   		movq	(%rax), %rbp
 4593 14b8 E8000000 		call	_ZN8UnitTest11CurrentTest7DetailsEv@PLT
 4593      00
 4594 14bd 488B30   		movq	(%rax), %rsi
 4595 14c0 BA3D0000 		movl	$61, %edx
 4595      00
 4596 14c5 4889DF   		movq	%rbx, %rdi
 4597 14c8 E8000000 		call	_ZN8UnitTest11TestDetailsC1ERKS0_i@PLT
 4597      00
 4598 14cd 488D1500 		leaq	.LC5(%rip), %rdx
 4598      000000
 4599 14d4 4889DE   		movq	%rbx, %rsi
 4600 14d7 4889EF   		movq	%rbp, %rdi
 4601 14da E8000000 		call	_ZN8UnitTest11TestResults13OnTestFailureERKNS_11TestDetailsEPKc@PLT
 4601      00
 4602              	.LEHE172:
 4603              	.LEHB173:
 4604 14df E8000000 		call	__cxa_end_catch@PLT
 4604      00
 4605              	.LEHE173:
 4606 14e4 E9E9FAFF 		jmp	.L296
 4606      FF
 4607              	.L309:
 4608 14e9 4889C7   		movq	%rax, %rdi
 4609 14ec E8000000 		call	__cxa_begin_catch@PLT
 4609      00
 4610              	.LEHB174:
 4611 14f1 E8000000 		call	_ZN8UnitTest11CurrentTest7ResultsEv@PLT
 4611      00
 4612 14f6 488B28   		movq	(%rax), %rbp
 4613 14f9 E8000000 		call	_ZN8UnitTest11CurrentTest7DetailsEv@PLT
 4613      00
 4614 14fe 488B30   		movq	(%rax), %rsi
 4615 1501 BA3B0000 		movl	$59, %edx
 4615      00
 4616 1506 4889DF   		movq	%rbx, %rdi
 4617 1509 E8000000 		call	_ZN8UnitTest11TestDetailsC1ERKS0_i@PLT
 4617      00
 4618 150e 488D1500 		leaq	.LC5(%rip), %rdx
 4618      000000
 4619 1515 4889DE   		movq	%rbx, %rsi
 4620 1518 4889EF   		movq	%rbp, %rdi
 4621 151b E8000000 		call	_ZN8UnitTest11TestResults13OnTestFailureERKNS_11TestDetailsEPKc@PLT
 4621      00
 4622              	.LEHE174:
 4623              	.LEHB175:
 4624 1520 E8000000 		call	__cxa_end_catch@PLT
 4624      00
 4625              	.LEHE175:
 4626 1525 E947FAFF 		jmp	.L293
 4626      FF
 4627              	.L312:
 4628 152a 4889C3   		movq	%rax, %rbx
 4629 152d E8000000 		call	__cxa_end_catch@PLT
 4629      00
 4630 1532 4889DF   		movq	%rbx, %rdi
 4631              	.LEHB176:
 4632 1535 E8000000 		call	_Unwind_Resume@PLT
 4632      00
 4633              	.LEHE176:
 4634              	.L310:
 4635 153a 4889C3   		movq	%rax, %rbx
 4636 153d E8000000 		call	__cxa_end_catch@PLT
 4636      00
 4637 1542 4889DF   		movq	%rbx, %rdi
 4638              	.LEHB177:
 4639 1545 E8000000 		call	_Unwind_Resume@PLT
 4639      00
 4640              	.LEHE177:
 4641              	.L313:
 4642 154a 4989C6   		movq	%rax, %r14
 4643 154d E927FEFF 		jmp	.L285
 4643      FF
 4644              	.L314:
 4645 1552 4889C3   		movq	%rax, %rbx
 4646 1555 E8000000 		call	__cxa_end_catch@PLT
 4646      00
 4647 155a 4889DF   		movq	%rbx, %rdi
 4648              	.LEHB178:
 4649 155d E8000000 		call	_Unwind_Resume@PLT
 4649      00
 4650              	.LEHE178:
 4651              		.cfi_endproc
 4652              	.LFE1248:
 4653              		.section	.gcc_except_table
 4654 02ae 0000     		.align 4
 4655              	.LLSDA1248:
 4656 02b0 FF       		.byte	0xff
 4657 02b1 9B       		.byte	0x9b
 4658 02b2 BC01     		.uleb128 .LLSDATT1248-.LLSDATTD1248
 4659              	.LLSDATTD1248:
 4660 02b4 01       		.byte	0x1
 4661 02b5 AE01     		.uleb128 .LLSDACSE1248-.LLSDACSB1248
 4662              	.LLSDACSB1248:
 4663 02b7 3D       		.uleb128 .LEHB147-.LFB1248
 4664 02b8 05       		.uleb128 .LEHE147-.LEHB147
 4665 02b9 00       		.uleb128 0
 4666 02ba 00       		.uleb128 0
 4667 02bb 46       		.uleb128 .LEHB148-.LFB1248
 4668 02bc 3F       		.uleb128 .LEHE148-.LEHB148
 4669 02bd 8309     		.uleb128 .L307-.LFB1248
 4670 02bf 01       		.uleb128 0x1
 4671 02c0 9101     		.uleb128 .LEHB149-.LFB1248
 4672 02c2 05       		.uleb128 .LEHE149-.LEHB149
 4673 02c3 00       		.uleb128 0
 4674 02c4 00       		.uleb128 0
 4675 02c5 9A01     		.uleb128 .LEHB150-.LFB1248
 4676 02c7 37       		.uleb128 .LEHE150-.LEHB150
 4677 02c8 C90C     		.uleb128 .L309-.LFB1248
 4678 02ca 01       		.uleb128 0x1
 4679 02cb F001     		.uleb128 .LEHB151-.LFB1248
 4680 02cd 05       		.uleb128 .LEHE151-.LEHB151
 4681 02ce 00       		.uleb128 0
 4682 02cf 00       		.uleb128 0
 4683 02d0 FB01     		.uleb128 .LEHB152-.LFB1248
 4684 02d2 37       		.uleb128 .LEHE152-.LEHB152
 4685 02d3 880C     		.uleb128 .L311-.LFB1248
 4686 02d5 01       		.uleb128 0x1
 4687 02d6 B202     		.uleb128 .LEHB153-.LFB1248
 4688 02d8 1A       		.uleb128 .LEHE153-.LEHB153
 4689 02d9 AA0D     		.uleb128 .L313-.LFB1248
 4690 02db 01       		.uleb128 0x1
 4691 02dc E103     		.uleb128 .LEHB154-.LFB1248
 4692 02de 05       		.uleb128 .LEHE154-.LEHB154
 4693 02df 9A0A     		.uleb128 .L320-.LFB1248
 4694 02e1 03       		.uleb128 0x3
 4695 02e2 8205     		.uleb128 .LEHB155-.LFB1248
 4696 02e4 05       		.uleb128 .LEHE155-.LEHB155
 4697 02e5 DC0B     		.uleb128 .L321-.LFB1248
 4698 02e7 03       		.uleb128 0x3
 4699 02e8 D405     		.uleb128 .LEHB156-.LFB1248
 4700 02ea 5F       		.uleb128 .LEHE156-.LEHB156
 4701 02eb CE09     		.uleb128 .L319-.LFB1248
 4702 02ed 03       		.uleb128 0x3
 4703 02ee D507     		.uleb128 .LEHB157-.LFB1248
 4704 02f0 05       		.uleb128 .LEHE157-.LEHB157
 4705 02f1 AA0D     		.uleb128 .L313-.LFB1248
 4706 02f3 01       		.uleb128 0x1
 4707 02f4 DA07     		.uleb128 .LEHB158-.LFB1248
 4708 02f6 37       		.uleb128 .LEHE158-.LEHB158
 4709 02f7 FB0A     		.uleb128 .L315-.LFB1248
 4710 02f9 01       		.uleb128 0x1
 4711 02fa 9108     		.uleb128 .LEHB159-.LFB1248
 4712 02fc 38       		.uleb128 .LEHE159-.LEHB159
 4713 02fd BA0A     		.uleb128 .L317-.LFB1248
 4714 02ff 01       		.uleb128 0x1
 4715 0300 CC08     		.uleb128 .LEHB160-.LFB1248
 4716 0302 0D       		.uleb128 .LEHE160-.LEHB160
 4717 0303 00       		.uleb128 0
 4718 0304 00       		.uleb128 0
 4719 0305 8B09     		.uleb128 .LEHB161-.LFB1248
 4720 0307 34       		.uleb128 .LEHE161-.LEHB161
 4721 0308 F80B     		.uleb128 .L308-.LFB1248
 4722 030a 00       		.uleb128 0
 4723 030b BF09     		.uleb128 .LEHB162-.LFB1248
 4724 030d 05       		.uleb128 .LEHE162-.LEHB162
 4725 030e 00       		.uleb128 0
 4726 030f 00       		.uleb128 0
 4727 0310 E109     		.uleb128 .LEHB163-.LFB1248
 4728 0312 2F       		.uleb128 .LEHE163-.LEHB163
 4729 0313 B20D     		.uleb128 .L314-.LFB1248
 4730 0315 00       		.uleb128 0
 4731 0316 900A     		.uleb128 .LEHB164-.LFB1248
 4732 0318 05       		.uleb128 .LEHE164-.LEHB164
 4733 0319 00       		.uleb128 0
 4734 031a 00       		.uleb128 0
 4735 031b C20A     		.uleb128 .LEHB165-.LFB1248
 4736 031d 2F       		.uleb128 .LEHE165-.LEHB165
 4737 031e BC0B     		.uleb128 .L318-.LFB1248
 4738 0320 00       		.uleb128 0
 4739 0321 F10A     		.uleb128 .LEHB166-.LFB1248
 4740 0323 05       		.uleb128 .LEHE166-.LEHB166
 4741 0324 00       		.uleb128 0
 4742 0325 00       		.uleb128 0
 4743 0326 830B     		.uleb128 .LEHB167-.LFB1248
 4744 0328 2F       		.uleb128 .LEHE167-.LEHB167
 4745 0329 CC0B     		.uleb128 .L316-.LFB1248
 4746 032b 00       		.uleb128 0
 4747 032c B20B     		.uleb128 .LEHB168-.LFB1248
 4748 032e 05       		.uleb128 .LEHE168-.LEHB168
 4749 032f 00       		.uleb128 0
 4750 0330 00       		.uleb128 0
 4751 0331 C70B     		.uleb128 .LEHB169-.LFB1248
 4752 0333 05       		.uleb128 .LEHE169-.LEHB169
 4753 0334 00       		.uleb128 0
 4754 0335 00       		.uleb128 0
 4755 0336 D70B     		.uleb128 .LEHB170-.LFB1248
 4756 0338 05       		.uleb128 .LEHE170-.LEHB170
 4757 0339 00       		.uleb128 0
 4758 033a 00       		.uleb128 0
 4759 033b 830C     		.uleb128 .LEHB171-.LFB1248
 4760 033d 05       		.uleb128 .LEHE171-.LEHB171
 4761 033e 00       		.uleb128 0
 4762 033f 00       		.uleb128 0
 4763 0340 900C     		.uleb128 .LEHB172-.LFB1248
 4764 0342 2F       		.uleb128 .LEHE172-.LEHB172
 4765 0343 8A0D     		.uleb128 .L312-.LFB1248
 4766 0345 00       		.uleb128 0
 4767 0346 BF0C     		.uleb128 .LEHB173-.LFB1248
 4768 0348 05       		.uleb128 .LEHE173-.LEHB173
 4769 0349 00       		.uleb128 0
 4770 034a 00       		.uleb128 0
 4771 034b D10C     		.uleb128 .LEHB174-.LFB1248
 4772 034d 2F       		.uleb128 .LEHE174-.LEHB174
 4773 034e 9A0D     		.uleb128 .L310-.LFB1248
 4774 0350 00       		.uleb128 0
 4775 0351 800D     		.uleb128 .LEHB175-.LFB1248
 4776 0353 05       		.uleb128 .LEHE175-.LEHB175
 4777 0354 00       		.uleb128 0
 4778 0355 00       		.uleb128 0
 4779 0356 950D     		.uleb128 .LEHB176-.LFB1248
 4780 0358 05       		.uleb128 .LEHE176-.LEHB176
 4781 0359 00       		.uleb128 0
 4782 035a 00       		.uleb128 0
 4783 035b A50D     		.uleb128 .LEHB177-.LFB1248
 4784 035d 05       		.uleb128 .LEHE177-.LEHB177
 4785 035e 00       		.uleb128 0
 4786 035f 00       		.uleb128 0
 4787 0360 BD0D     		.uleb128 .LEHB178-.LFB1248
 4788 0362 05       		.uleb128 .LEHE178-.LEHB178
 4789 0363 00       		.uleb128 0
 4790 0364 00       		.uleb128 0
 4791              	.LLSDACSE1248:
 4792 0365 01       		.byte	0x1
 4793 0366 00       		.byte	0
 4794 0367 00       		.byte	0
 4795 0368 7D       		.byte	0x7d
 4796 0369 000000   		.align 4
 4797 036c 00000000 		.long	0
 4798              	
 4799              	.LLSDATT1248:
 4800              		.text
 4802              		.section	.rodata.str1.1
 4803              	.LC27:
 4804 00cb 3A303430 		.string	":040BE10075820022F7\n"
 4804      42453130 
 4804      30373538 
 4804      32303032 
 4804      3246370A 
 4805              	.LC28:
 4806 00e0 45787065 		.string	"Expected [ "
 4806      63746564 
 4806      205B2000 
 4807              	.LC29:
 4808 00ec 2000     		.string	" "
 4809              	.LC30:
 4810 00ee 5D206275 		.string	"] but was [ "
 4810      74207761 
 4810      73205B20 
 4810      00
 4811              	.LC31:
 4812 00fb 5D00     		.string	"]"
 4813              		.section	.rodata.str1.8
 4814 031d 000000   		.align 8
 4815              	.LC32:
 4816 0320 556E6861 		.string	"Unhandled exception in CHECK_EQUAL(0x00, recordType)"
 4816      6E646C65 
 4816      64206578 
 4816      63657074 
 4816      696F6E20 
 4817 0355 000000   		.align 8
 4818              	.LC33:
 4819 0358 556E6861 		.string	"Unhandled exception in CHECK_EQUAL(0x0BE1+4UL, data.length)"
 4819      6E646C65 
 4819      64206578 
 4819      63657074 
 4819      696F6E20 
 4820 0394 00000000 		.align 8
 4821              	.LC34:
 4822 0398 556E6861 		.string	"Unhandled exception in CHECK_EQUAL(0x0BE1+4UL, mask.length)"
 4822      6E646C65 
 4822      64206578 
 4822      63657074 
 4822      696F6E20 
 4823 03d4 00000000 		.align 8
 4824              	.LC35:
 4825 03d8 556E6861 		.string	"Unhandled exception in CHECK_EQUAL(4096UL, data.capacity)"
 4825      6E646C65 
 4825      64206578 
 4825      63657074 
 4825      696F6E20 
 4826 0412 00000000 		.align 8
 4826      0000
 4827              	.LC36:
 4828 0418 556E6861 		.string	"Unhandled exception in CHECK_EQUAL(4096UL, mask.capacity)"
 4828      6E646C65 
 4828      64206578 
 4828      63657074 
 4828      696F6E20 
 4829 0452 00000000 		.align 8
 4829      0000
 4830              	.LC37:
 4831 0458 556E6861 		.string	"Unhandled exception in CHECK_ARRAY_EQUAL(expected, data.data + 0x0BE1)"
 4831      6E646C65 
 4831      64206578 
 4831      63657074 
 4831      696F6E20 
 4832              		.text
 4833              		.align 2
 4834 1562 0F1F4000 		.p2align 4,,15
 4834      662E0F1F 
 4834      84000000 
 4834      0000
 4835              		.globl	_ZNK27TestHexIO_testValidDataLine7RunImplEv
 4837              	_ZNK27TestHexIO_testValidDataLine7RunImplEv:
 4838              	.LFB1244:
 4839              		.cfi_startproc
 4840              		.cfi_personality 0x9b,DW.ref.__gxx_personality_v0
 4841              		.cfi_lsda 0x1b,.LLSDA1244
 4842 1570 4157     		pushq	%r15
 4843              		.cfi_def_cfa_offset 16
 4844              		.cfi_offset 15, -16
 4845 1572 4156     		pushq	%r14
 4846              		.cfi_def_cfa_offset 24
 4847              		.cfi_offset 14, -24
 4848 1574 31C9     		xorl	%ecx, %ecx
 4849 1576 4155     		pushq	%r13
 4850              		.cfi_def_cfa_offset 32
 4851              		.cfi_offset 13, -32
 4852 1578 4154     		pushq	%r12
 4853              		.cfi_def_cfa_offset 40
 4854              		.cfi_offset 12, -40
 4855 157a 31D2     		xorl	%edx, %edx
 4856 157c 55       		pushq	%rbp
 4857              		.cfi_def_cfa_offset 48
 4858              		.cfi_offset 6, -48
 4859 157d 53       		pushq	%rbx
 4860              		.cfi_def_cfa_offset 56
 4861              		.cfi_offset 3, -56
 4862 157e BE000400 		movl	$1024, %esi
 4862      00
 4863 1583 4881EC58 		subq	$600, %rsp
 4863      020000
 4864              		.cfi_def_cfa_offset 656
 4865 158a 64488B04 		movq	%fs:40, %rax
 4865      25280000 
 4865      00
 4866 1593 48898424 		movq	%rax, 584(%rsp)
 4866      48020000 
 4867 159b 31C0     		xorl	%eax, %eax
 4868 159d 488D4424 		leaq	64(%rsp), %rax
 4868      40
 4869 15a2 C7442434 		movl	$0, 52(%rsp)
 4869      00000000 
 4870 15aa C7842444 		movl	$570458741, 580(%rsp)
 4870      02000075 
 4870      820022
 4871 15b5 4889C7   		movq	%rax, %rdi
 4872 15b8 48890424 		movq	%rax, (%rsp)
 4873              	.LEHB179:
 4874 15bc E8000000 		call	bufInitialise@PLT
 4874      00
 4875              	.LEHE179:
 4876 15c1 89442430 		movl	%eax, 48(%rsp)
 4877              	.LEHB180:
 4878 15c5 E8000000 		call	_ZN8UnitTest11CurrentTest7DetailsEv@PLT
 4878      00
 4879 15ca 488D9C24 		leaq	128(%rsp), %rbx
 4879      80000000 
 4880 15d2 488B30   		movq	(%rax), %rsi
 4881 15d5 BA230000 		movl	$35, %edx
 4881      00
 4882 15da 4889DF   		movq	%rbx, %rdi
 4883 15dd E8000000 		call	_ZN8UnitTest11TestDetailsC1ERKS0_i@PLT
 4883      00
 4884 15e2 C7442460 		movl	$0, 96(%rsp)
 4884      00000000 
 4885 15ea E8000000 		call	_ZN8UnitTest11CurrentTest7ResultsEv@PLT
 4885      00
 4886 15ef 4C8D7424 		leaq	96(%rsp), %r14
 4886      60
 4887 15f4 488B38   		movq	(%rax), %rdi
 4888 15f7 488D5424 		leaq	48(%rsp), %rdx
 4888      30
 4889 15fc 4889D9   		movq	%rbx, %rcx
 4890 15ff 4C89F6   		movq	%r14, %rsi
 4891 1602 E8000000 		call	_ZN8UnitTest10CheckEqualI12BufferStatusS1_EEvRNS_11TestResultsERKT_RKT0_RKNS_11TestDetailsE
 4891      00
 4892              	.LEHE180:
 4893              	.L340:
 4894 1607 31C9     		xorl	%ecx, %ecx
 4895 1609 31D2     		xorl	%edx, %edx
 4896 160b BE000400 		movl	$1024, %esi
 4896      00
 4897 1610 4C89F7   		movq	%r14, %rdi
 4898              	.LEHB181:
 4899 1613 E8000000 		call	bufInitialise@PLT
 4899      00
 4900              	.LEHE181:
 4901 1618 89442430 		movl	%eax, 48(%rsp)
 4902              	.LEHB182:
 4903 161c E8000000 		call	_ZN8UnitTest11CurrentTest7DetailsEv@PLT
 4903      00
 4904 1621 488B30   		movq	(%rax), %rsi
 4905 1624 BA250000 		movl	$37, %edx
 4905      00
 4906 1629 4889DF   		movq	%rbx, %rdi
 4907 162c E8000000 		call	_ZN8UnitTest11TestDetailsC1ERKS0_i@PLT
 4907      00
 4908 1631 C7442438 		movl	$0, 56(%rsp)
 4908      00000000 
 4909 1639 E8000000 		call	_ZN8UnitTest11CurrentTest7ResultsEv@PLT
 4909      00
 4910 163e 488D6C24 		leaq	56(%rsp), %rbp
 4910      38
 4911 1643 488B38   		movq	(%rax), %rdi
 4912 1646 488D5424 		leaq	48(%rsp), %rdx
 4912      30
 4913 164b 4889D9   		movq	%rbx, %rcx
 4914 164e 4889EE   		movq	%rbp, %rsi
 4915 1651 E8000000 		call	_ZN8UnitTest10CheckEqualI12BufferStatusS1_EEvRNS_11TestResultsERKT_RKT0_RKNS_11TestDetailsE
 4915      00
 4916              	.LEHE182:
 4917              	.L343:
 4918 1656 4C8D6424 		leaq	46(%rsp), %r12
 4918      2E
 4919 165b 4883EC08 		subq	$8, %rsp
 4920              		.cfi_def_cfa_offset 664
 4921 165f 488D3D00 		leaq	.LC27(%rip), %rdi
 4921      000000
 4922 1666 6A00     		pushq	$0
 4923              		.cfi_def_cfa_offset 672
 4924 1668 488B5424 		movq	16(%rsp), %rdx
 4924      10
 4925 166d 4C89F1   		movq	%r14, %rcx
 4926 1670 4D89E1   		movq	%r12, %r9
 4927 1673 31F6     		xorl	%esi, %esi
 4928 1675 4C8D4424 		leaq	68(%rsp), %r8
 4928      44
 4929              	.LEHB183:
 4930 167a E8000000 		call	bufProcessLine@PLT
 4930      00
 4931              	.LEHE183:
 4932 167f 89442440 		movl	%eax, 64(%rsp)
 4933 1683 58       		popq	%rax
 4934              		.cfi_def_cfa_offset 664
 4935 1684 5A       		popq	%rdx
 4936              		.cfi_def_cfa_offset 656
 4937              	.LEHB184:
 4938 1685 E8000000 		call	_ZN8UnitTest11CurrentTest7DetailsEv@PLT
 4938      00
 4939 168a 488B30   		movq	(%rax), %rsi
 4940 168d BA270000 		movl	$39, %edx
 4940      00
 4941 1692 4889DF   		movq	%rbx, %rdi
 4942 1695 E8000000 		call	_ZN8UnitTest11TestDetailsC1ERKS0_i@PLT
 4942      00
 4943 169a C7442438 		movl	$0, 56(%rsp)
 4943      00000000 
 4944 16a2 E8000000 		call	_ZN8UnitTest11CurrentTest7ResultsEv@PLT
 4944      00
 4945 16a7 488D6C24 		leaq	56(%rsp), %rbp
 4945      38
 4946 16ac 488B38   		movq	(%rax), %rdi
 4947 16af 488D5424 		leaq	48(%rsp), %rdx
 4947      30
 4948 16b4 4889D9   		movq	%rbx, %rcx
 4949 16b7 4889EE   		movq	%rbp, %rsi
 4950 16ba E8000000 		call	_ZN8UnitTest10CheckEqualI12BufferStatusS1_EEvRNS_11TestResultsERKT_RKT0_RKNS_11TestDetailsE
 4950      00
 4951              	.LEHE184:
 4952              	.L346:
 4953              	.LEHB185:
 4954 16bf E8000000 		call	_ZN8UnitTest11CurrentTest7DetailsEv@PLT
 4954      00
 4955 16c4 488B30   		movq	(%rax), %rsi
 4956 16c7 BA280000 		movl	$40, %edx
 4956      00
 4957 16cc 4889DF   		movq	%rbx, %rdi
 4958 16cf E8000000 		call	_ZN8UnitTest11TestDetailsC1ERKS0_i@PLT
 4958      00
 4959 16d4 C7442438 		movl	$0, 56(%rsp)
 4959      00000000 
 4960 16dc E8000000 		call	_ZN8UnitTest11CurrentTest7ResultsEv@PLT
 4960      00
 4961 16e1 488D6C24 		leaq	56(%rsp), %rbp
 4961      38
 4962 16e6 488B38   		movq	(%rax), %rdi
 4963 16e9 4889D9   		movq	%rbx, %rcx
 4964 16ec 4C89E2   		movq	%r12, %rdx
 4965 16ef 4889EE   		movq	%rbp, %rsi
 4966 16f2 E8000000 		call	_ZN8UnitTest10CheckEqualIihEEvRNS_11TestResultsERKT_RKT0_RKNS_11TestDetailsE
 4966      00
 4967              	.LEHE185:
 4968              	.L349:
 4969              	.LEHB186:
 4970 16f7 E8000000 		call	_ZN8UnitTest11CurrentTest7DetailsEv@PLT
 4970      00
 4971 16fc 488B30   		movq	(%rax), %rsi
 4972 16ff BA290000 		movl	$41, %edx
 4972      00
 4973 1704 4889DF   		movq	%rbx, %rdi
 4974 1707 E8000000 		call	_ZN8UnitTest11TestDetailsC1ERKS0_i@PLT
 4974      00
 4975 170c 48C74424 		movq	$3045, 56(%rsp)
 4975      38E50B00 
 4975      00
 4976 1715 E8000000 		call	_ZN8UnitTest11CurrentTest7ResultsEv@PLT
 4976      00
 4977 171a 488B0C24 		movq	(%rsp), %rcx
 4978 171e 488D6C24 		leaq	56(%rsp), %rbp
 4978      38
 4979 1723 488B38   		movq	(%rax), %rdi
 4980 1726 4889EE   		movq	%rbp, %rsi
 4981 1729 488D5108 		leaq	8(%rcx), %rdx
 4982 172d 4889D9   		movq	%rbx, %rcx
 4983 1730 E8000000 		call	_ZN8UnitTest10CheckEqualImmEEvRNS_11TestResultsERKT_RKT0_RKNS_11TestDetailsE
 4983      00
 4984              	.LEHE186:
 4985              	.L352:
 4986              	.LEHB187:
 4987 1735 E8000000 		call	_ZN8UnitTest11CurrentTest7DetailsEv@PLT
 4987      00
 4988 173a 488B30   		movq	(%rax), %rsi
 4989 173d BA2A0000 		movl	$42, %edx
 4989      00
 4990 1742 4889DF   		movq	%rbx, %rdi
 4991 1745 E8000000 		call	_ZN8UnitTest11TestDetailsC1ERKS0_i@PLT
 4991      00
 4992 174a 48C74424 		movq	$3045, 56(%rsp)
 4992      38E50B00 
 4992      00
 4993 1753 E8000000 		call	_ZN8UnitTest11CurrentTest7ResultsEv@PLT
 4993      00
 4994 1758 488D6C24 		leaq	56(%rsp), %rbp
 4994      38
 4995 175d 488B38   		movq	(%rax), %rdi
 4996 1760 498D5608 		leaq	8(%r14), %rdx
 4997 1764 4889D9   		movq	%rbx, %rcx
 4998 1767 4889EE   		movq	%rbp, %rsi
 4999 176a E8000000 		call	_ZN8UnitTest10CheckEqualImmEEvRNS_11TestResultsERKT_RKT0_RKNS_11TestDetailsE
 4999      00
 5000              	.LEHE187:
 5001              	.L355:
 5002              	.LEHB188:
 5003 176f E8000000 		call	_ZN8UnitTest11CurrentTest7DetailsEv@PLT
 5003      00
 5004 1774 488B30   		movq	(%rax), %rsi
 5005 1777 BA2B0000 		movl	$43, %edx
 5005      00
 5006 177c 4889DF   		movq	%rbx, %rdi
 5007 177f E8000000 		call	_ZN8UnitTest11TestDetailsC1ERKS0_i@PLT
 5007      00
 5008 1784 48C74424 		movq	$4096, 56(%rsp)
 5008      38001000 
 5008      00
 5009 178d E8000000 		call	_ZN8UnitTest11CurrentTest7ResultsEv@PLT
 5009      00
 5010 1792 488B0C24 		movq	(%rsp), %rcx
 5011 1796 488D6C24 		leaq	56(%rsp), %rbp
 5011      38
 5012 179b 488B38   		movq	(%rax), %rdi
 5013 179e 4889EE   		movq	%rbp, %rsi
 5014 17a1 488D5110 		leaq	16(%rcx), %rdx
 5015 17a5 4889D9   		movq	%rbx, %rcx
 5016 17a8 E8000000 		call	_ZN8UnitTest10CheckEqualImmEEvRNS_11TestResultsERKT_RKT0_RKNS_11TestDetailsE
 5016      00
 5017              	.LEHE188:
 5018              	.L358:
 5019              	.LEHB189:
 5020 17ad E8000000 		call	_ZN8UnitTest11CurrentTest7DetailsEv@PLT
 5020      00
 5021 17b2 488B30   		movq	(%rax), %rsi
 5022 17b5 BA2C0000 		movl	$44, %edx
 5022      00
 5023 17ba 4889DF   		movq	%rbx, %rdi
 5024 17bd E8000000 		call	_ZN8UnitTest11TestDetailsC1ERKS0_i@PLT
 5024      00
 5025 17c2 48C74424 		movq	$4096, 56(%rsp)
 5025      38001000 
 5025      00
 5026 17cb E8000000 		call	_ZN8UnitTest11CurrentTest7ResultsEv@PLT
 5026      00
 5027 17d0 488D6C24 		leaq	56(%rsp), %rbp
 5027      38
 5028 17d5 488B38   		movq	(%rax), %rdi
 5029 17d8 498D5610 		leaq	16(%r14), %rdx
 5030 17dc 4889D9   		movq	%rbx, %rcx
 5031 17df 4889EE   		movq	%rbp, %rsi
 5032 17e2 E8000000 		call	_ZN8UnitTest10CheckEqualImmEEvRNS_11TestResultsERKT_RKT0_RKNS_11TestDetailsE
 5032      00
 5033              	.LEHE189:
 5034              	.L361:
 5035              	.LEHB190:
 5036 17e7 E8000000 		call	_ZN8UnitTest11CurrentTest7DetailsEv@PLT
 5036      00
 5037 17ec 488B30   		movq	(%rax), %rsi
 5038 17ef BA2D0000 		movl	$45, %edx
 5038      00
 5039 17f4 4889DF   		movq	%rbx, %rdi
 5040 17f7 E8000000 		call	_ZN8UnitTest11TestDetailsC1ERKS0_i@PLT
 5040      00
 5041 17fc 4C8B7C24 		movq	64(%rsp), %r15
 5041      40
 5042 1801 498D87E1 		leaq	3041(%r15), %rax
 5042      0B0000
 5043 1808 48894424 		movq	%rax, 16(%rsp)
 5043      10
 5044 180d E8000000 		call	_ZN8UnitTest11CurrentTest7ResultsEv@PLT
 5044      00
 5045              	.LEHE190:
 5046 1812 0FB68C24 		movzbl	580(%rsp), %ecx
 5046      44020000 
 5047 181a 41388FE1 		cmpb	%cl, 3041(%r15)
 5047      0B0000
 5048 1821 0FB68C24 		movzbl	581(%rsp), %ecx
 5048      45020000 
 5049 1829 0F94C2   		sete	%dl
 5050 182c 41388FE2 		cmpb	%cl, 3042(%r15)
 5050      0B0000
 5051 1833 0F94C1   		sete	%cl
 5052 1836 21CA     		andl	%ecx, %edx
 5053 1838 410FB68F 		movzbl	3043(%r15), %ecx
 5053      E30B0000 
 5054 1840 388C2446 		cmpb	%cl, 582(%rsp)
 5054      020000
 5055 1847 0F94C1   		sete	%cl
 5056 184a 84CA     		testb	%cl, %dl
 5057 184c 7452     		je	.L388
 5058 184e 410FB68F 		movzbl	3044(%r15), %ecx
 5058      E40B0000 
 5059 1856 388C2447 		cmpb	%cl, 583(%rsp)
 5059      020000
 5060 185d 7541     		jne	.L388
 5061              	.L363:
 5062 185f 4C89F7   		movq	%r14, %rdi
 5063              	.LEHB191:
 5064 1862 E8000000 		call	bufDestroy@PLT
 5064      00
 5065 1867 488B3C24 		movq	(%rsp), %rdi
 5066 186b E8000000 		call	bufDestroy@PLT
 5066      00
 5067              	.LEHE191:
 5068 1870 488B8424 		movq	584(%rsp), %rax
 5068      48020000 
 5069 1878 64483304 		xorq	%fs:40, %rax
 5069      25280000 
 5069      00
 5070 1881 0F854403 		jne	.L398
 5070      0000
 5071 1887 4881C458 		addq	$600, %rsp
 5071      020000
 5072              		.cfi_remember_state
 5073              		.cfi_def_cfa_offset 56
 5074 188e 5B       		popq	%rbx
 5075              		.cfi_def_cfa_offset 48
 5076 188f 5D       		popq	%rbp
 5077              		.cfi_def_cfa_offset 40
 5078 1890 415C     		popq	%r12
 5079              		.cfi_def_cfa_offset 32
 5080 1892 415D     		popq	%r13
 5081              		.cfi_def_cfa_offset 24
 5082 1894 415E     		popq	%r14
 5083              		.cfi_def_cfa_offset 16
 5084 1896 415F     		popq	%r15
 5085              		.cfi_def_cfa_offset 8
 5086 1898 C3       		ret
 5087 1899 0F1F8000 		.p2align 4,,10
 5087      000000
 5088              		.p2align 3
 5089              	.L388:
 5090              		.cfi_restore_state
 5091 18a0 4C8DA424 		leaq	160(%rsp), %r12
 5091      A0000000 
 5092 18a8 488B00   		movq	(%rax), %rax
 5093 18ab 498DAC24 		leaq	144(%r12), %rbp
 5093      90000000 
 5094 18b3 48894424 		movq	%rax, 24(%rsp)
 5094      18
 5095 18b8 4889EF   		movq	%rbp, %rdi
 5096 18bb E8000000 		call	_ZNSt8ios_baseC2Ev@PLT
 5096      00
 5097 18c0 488D0500 		leaq	24+_ZTCN8UnitTest15MemoryOutStreamE0_So(%rip), %rax
 5097      000000
 5098 18c7 31F6     		xorl	%esi, %esi
 5099 18c9 4889EF   		movq	%rbp, %rdi
 5100 18cc 48C78424 		movq	$0, 520(%rsp)
 5100      08020000 
 5100      00000000 
 5101 18d8 C6842410 		movb	$0, 528(%rsp)
 5101      02000000 
 5102 18e0 48898424 		movq	%rax, 160(%rsp)
 5102      A0000000 
 5103 18e8 4883C028 		addq	$40, %rax
 5104 18ec C6842411 		movb	$0, 529(%rsp)
 5104      02000000 
 5105 18f4 48C78424 		movq	$0, 536(%rsp)
 5105      18020000 
 5105      00000000 
 5106 1900 48C78424 		movq	$0, 544(%rsp)
 5106      20020000 
 5106      00000000 
 5107 190c 48C78424 		movq	$0, 552(%rsp)
 5107      28020000 
 5107      00000000 
 5108 1918 48C78424 		movq	$0, 560(%rsp)
 5108      30020000 
 5108      00000000 
 5109 1924 48898424 		movq	%rax, 304(%rsp)
 5109      30010000 
 5110              	.LEHB192:
 5111 192c E8000000 		call	_ZNSt9basic_iosIcSt11char_traitsIcEE4initEPSt15basic_streambufIcS1_E@PLT
 5111      00
 5112              	.LEHE192:
 5113 1931 488D0500 		leaq	24+_ZTCN8UnitTest15MemoryOutStreamE0_NSt7__cxx1119basic_ostringstreamIcSt11char_traitsIcESaIc
 5113      000000
 5114 1938 660FEFC0 		pxor	%xmm0, %xmm0
 5115 193c 498D7C24 		leaq	64(%r12), %rdi
 5115      40
 5116 1941 48898424 		movq	%rax, 160(%rsp)
 5116      A0000000 
 5117 1949 4883C028 		addq	$40, %rax
 5118 194d 48898424 		movq	%rax, 304(%rsp)
 5118      30010000 
 5119 1955 488D0500 		leaq	16+_ZTVSt15basic_streambufIcSt11char_traitsIcEE(%rip), %rax
 5119      000000
 5120 195c 0F298424 		movaps	%xmm0, 176(%rsp)
 5120      B0000000 
 5121 1964 48898424 		movq	%rax, 168(%rsp)
 5121      A8000000 
 5122 196c 0F298424 		movaps	%xmm0, 192(%rsp)
 5122      C0000000 
 5123 1974 0F298424 		movaps	%xmm0, 208(%rsp)
 5123      D0000000 
 5124 197c E8000000 		call	_ZNSt6localeC1Ev@PLT
 5124      00
 5125 1981 488D0500 		leaq	16+_ZTVNSt7__cxx1115basic_stringbufIcSt11char_traitsIcESaIcEEE(%rip), %rax
 5125      000000
 5126 1988 498D7424 		leaq	8(%r12), %rsi
 5126      08
 5127 198d 48898424 		movq	%rax, 168(%rsp)
 5127      A8000000 
 5128 1995 498D4424 		leaq	96(%r12), %rax
 5128      60
 5129 199a C78424E8 		movl	$16, 232(%rsp)
 5129      00000010 
 5129      000000
 5130 19a5 48C78424 		movq	$0, 248(%rsp)
 5130      F8000000 
 5130      00000000 
 5131 19b1 C6842400 		movb	$0, 256(%rsp)
 5131      01000000 
 5132 19b9 48898424 		movq	%rax, 240(%rsp)
 5132      F0000000 
 5133 19c1 488B8424 		movq	160(%rsp), %rax
 5133      A0000000 
 5134 19c9 488B78E8 		movq	-24(%rax), %rdi
 5135 19cd 4C01E7   		addq	%r12, %rdi
 5136              	.LEHB193:
 5137 19d0 E8000000 		call	_ZNSt9basic_iosIcSt11char_traitsIcEE4initEPSt15basic_streambufIcS1_E@PLT
 5137      00
 5138              	.LEHE193:
 5139 19d5 488D0500 		leaq	24+_ZTVN8UnitTest15MemoryOutStreamE(%rip), %rax
 5139      000000
 5140 19dc 488D3500 		leaq	.LC28(%rip), %rsi
 5140      000000
 5141 19e3 BA0B0000 		movl	$11, %edx
 5141      00
 5142 19e8 4C89E7   		movq	%r12, %rdi
 5143 19eb 48C78424 		movq	$0, 280(%rsp)
 5143      18010000 
 5143      00000000 
 5144 19f7 C6842420 		movb	$0, 288(%rsp)
 5144      01000000 
 5145 19ff 48898424 		movq	%rax, 160(%rsp)
 5145      A0000000 
 5146 1a07 4883C028 		addq	$40, %rax
 5147 1a0b 48898424 		movq	%rax, 304(%rsp)
 5147      30010000 
 5148 1a13 498D8424 		leaq	128(%r12), %rax
 5148      80000000 
 5149 1a1b 48898424 		movq	%rax, 272(%rsp)
 5149      10010000 
 5150              	.LEHB194:
 5151 1a23 E8000000 		call	_ZSt16__ostream_insertIcSt11char_traitsIcEERSt13basic_ostreamIT_T0_ES6_PKS3_l@PLT
 5151      00
 5152 1a28 488D4424 		leaq	47(%rsp), %rax
 5152      2F
 5153 1a2d 4C8DAC24 		leaq	580(%rsp), %r13
 5153      44020000 
 5154 1a35 31ED     		xorl	%ebp, %ebp
 5155 1a37 48894424 		movq	%rax, 8(%rsp)
 5155      08
 5156              	.L333:
 5157 1a3c 410FB644 		movzbl	0(%r13,%rbp), %eax
 5157      2D00
 5158 1a42 488B7424 		movq	8(%rsp), %rsi
 5158      08
 5159 1a47 BA010000 		movl	$1, %edx
 5159      00
 5160 1a4c 4C89E7   		movq	%r12, %rdi
 5161 1a4f 8844242F 		movb	%al, 47(%rsp)
 5162 1a53 E8000000 		call	_ZSt16__ostream_insertIcSt11char_traitsIcEERSt13basic_ostreamIT_T0_ES6_PKS3_l@PLT
 5162      00
 5163 1a58 488D3500 		leaq	.LC29(%rip), %rsi
 5163      000000
 5164 1a5f BA010000 		movl	$1, %edx
 5164      00
 5165 1a64 4889C7   		movq	%rax, %rdi
 5166 1a67 E8000000 		call	_ZSt16__ostream_insertIcSt11char_traitsIcEERSt13basic_ostreamIT_T0_ES6_PKS3_l@PLT
 5166      00
 5167 1a6c 4883C501 		addq	$1, %rbp
 5168 1a70 4883FD04 		cmpq	$4, %rbp
 5169 1a74 75C6     		jne	.L333
 5170 1a76 488D3500 		leaq	.LC30(%rip), %rsi
 5170      000000
 5171 1a7d BA0C0000 		movl	$12, %edx
 5171      00
 5172 1a82 4C89E7   		movq	%r12, %rdi
 5173 1a85 E8000000 		call	_ZSt16__ostream_insertIcSt11char_traitsIcEERSt13basic_ostreamIT_T0_ES6_PKS3_l@PLT
 5173      00
 5174 1a8a 498D87E5 		leaq	3045(%r15), %rax
 5174      0B0000
 5175 1a91 4C8B6C24 		movq	16(%rsp), %r13
 5175      10
 5176 1a96 488D6C24 		leaq	56(%rsp), %rbp
 5176      38
 5177 1a9b 4C8D3D00 		leaq	.LC29(%rip), %r15
 5177      000000
 5178 1aa2 48894424 		movq	%rax, 8(%rsp)
 5178      08
 5179 1aa7 660F1F84 		.p2align 4,,10
 5179      00000000 
 5179      00
 5180              		.p2align 3
 5181              	.L335:
 5182 1ab0 410FB645 		movzbl	0(%r13), %eax
 5182      00
 5183 1ab5 BA010000 		movl	$1, %edx
 5183      00
 5184 1aba 4889EE   		movq	%rbp, %rsi
 5185 1abd 4C89E7   		movq	%r12, %rdi
 5186 1ac0 88442438 		movb	%al, 56(%rsp)
 5187 1ac4 E8000000 		call	_ZSt16__ostream_insertIcSt11char_traitsIcEERSt13basic_ostreamIT_T0_ES6_PKS3_l@PLT
 5187      00
 5188 1ac9 BA010000 		movl	$1, %edx
 5188      00
 5189 1ace 4C89FE   		movq	%r15, %rsi
 5190 1ad1 4889C7   		movq	%rax, %rdi
 5191 1ad4 E8000000 		call	_ZSt16__ostream_insertIcSt11char_traitsIcEERSt13basic_ostreamIT_T0_ES6_PKS3_l@PLT
 5191      00
 5192 1ad9 4983C501 		addq	$1, %r13
 5193 1add 4C396C24 		cmpq	%r13, 8(%rsp)
 5193      08
 5194 1ae2 75CC     		jne	.L335
 5195 1ae4 488D3500 		leaq	.LC31(%rip), %rsi
 5195      000000
 5196 1aeb BA010000 		movl	$1, %edx
 5196      00
 5197 1af0 4C89E7   		movq	%r12, %rdi
 5198 1af3 E8000000 		call	_ZSt16__ostream_insertIcSt11char_traitsIcEERSt13basic_ostreamIT_T0_ES6_PKS3_l@PLT
 5198      00
 5199 1af8 4C89E7   		movq	%r12, %rdi
 5200 1afb E8000000 		call	_ZNK8UnitTest15MemoryOutStream7GetTextEv@PLT
 5200      00
 5201 1b00 488B7C24 		movq	24(%rsp), %rdi
 5201      18
 5202 1b05 4889C2   		movq	%rax, %rdx
 5203 1b08 4889DE   		movq	%rbx, %rsi
 5204 1b0b E8000000 		call	_ZN8UnitTest11TestResults13OnTestFailureERKNS_11TestDetailsEPKc@PLT
 5204      00
 5205              	.LEHE194:
 5206 1b10 488D0500 		leaq	24+_ZTVN8UnitTest15MemoryOutStreamE(%rip), %rax
 5206      000000
 5207 1b17 488BBC24 		movq	272(%rsp), %rdi
 5207      10010000 
 5208 1b1f 48898424 		movq	%rax, 160(%rsp)
 5208      A0000000 
 5209 1b27 4883C028 		addq	$40, %rax
 5210 1b2b 48898424 		movq	%rax, 304(%rsp)
 5210      30010000 
 5211 1b33 498D8424 		leaq	128(%r12), %rax
 5211      80000000 
 5212 1b3b 4839C7   		cmpq	%rax, %rdi
 5213 1b3e 7405     		je	.L336
 5214 1b40 E8000000 		call	_ZdlPv@PLT
 5214      00
 5215              	.L336:
 5216 1b45 488D0500 		leaq	64+_ZTCN8UnitTest15MemoryOutStreamE0_NSt7__cxx1119basic_ostringstreamIcSt11char_traitsIcESaIc
 5216      000000
 5217 1b4c 488BBC24 		movq	240(%rsp), %rdi
 5217      F0000000 
 5218 1b54 F30F7E05 		movq	.LC2(%rip), %xmm0
 5218      00000000 
 5219 1b5c 48898424 		movq	%rax, 304(%rsp)
 5219      30010000 
 5220 1b64 498D4424 		leaq	96(%r12), %rax
 5220      60
 5221 1b69 0F160500 		movhps	.LC3(%rip), %xmm0
 5221      000000
 5222 1b70 4839C7   		cmpq	%rax, %rdi
 5223 1b73 0F298424 		movaps	%xmm0, 160(%rsp)
 5223      A0000000 
 5224 1b7b 7405     		je	.L337
 5225 1b7d E8000000 		call	_ZdlPv@PLT
 5225      00
 5226              	.L337:
 5227 1b82 488D0500 		leaq	16+_ZTVSt15basic_streambufIcSt11char_traitsIcEE(%rip), %rax
 5227      000000
 5228 1b89 498D7C24 		leaq	64(%r12), %rdi
 5228      40
 5229 1b8e 48898424 		movq	%rax, 168(%rsp)
 5229      A8000000 
 5230 1b96 E8000000 		call	_ZNSt6localeD1Ev@PLT
 5230      00
 5231 1b9b 488D0500 		leaq	24+_ZTCN8UnitTest15MemoryOutStreamE0_So(%rip), %rax
 5231      000000
 5232 1ba2 498DBC24 		leaq	144(%r12), %rdi
 5232      90000000 
 5233 1baa 48898424 		movq	%rax, 160(%rsp)
 5233      A0000000 
 5234 1bb2 488D0500 		leaq	16+_ZTVSt9basic_iosIcSt11char_traitsIcEE(%rip), %rax
 5234      000000
 5235 1bb9 48898424 		movq	%rax, 304(%rsp)
 5235      30010000 
 5236              	.LEHB195:
 5237 1bc1 E8000000 		call	_ZNSt8ios_baseD2Ev@PLT
 5237      00
 5238              	.LEHE195:
 5239 1bc6 E994FCFF 		jmp	.L363
 5239      FF
 5240              	.L398:
 5241 1bcb E8000000 		call	__stack_chk_fail@PLT
 5241      00
 5242              	.L367:
 5243 1bd0 4889C7   		movq	%rax, %rdi
 5244 1bd3 E8000000 		call	__cxa_begin_catch@PLT
 5244      00
 5245              	.LEHB196:
 5246 1bd8 E8000000 		call	_ZN8UnitTest11CurrentTest7ResultsEv@PLT
 5246      00
 5247 1bdd 488B28   		movq	(%rax), %rbp
 5248 1be0 E8000000 		call	_ZN8UnitTest11CurrentTest7DetailsEv@PLT
 5248      00
 5249 1be5 488D9C24 		leaq	128(%rsp), %rbx
 5249      80000000 
 5250 1bed 488B30   		movq	(%rax), %rsi
 5251 1bf0 BA230000 		movl	$35, %edx
 5251      00
 5252 1bf5 4889DF   		movq	%rbx, %rdi
 5253 1bf8 E8000000 		call	_ZN8UnitTest11TestDetailsC1ERKS0_i@PLT
 5253      00
 5254 1bfd 488D1500 		leaq	.LC5(%rip), %rdx
 5254      000000
 5255 1c04 4889DE   		movq	%rbx, %rsi
 5256 1c07 4889EF   		movq	%rbp, %rdi
 5257 1c0a E8000000 		call	_ZN8UnitTest11TestResults13OnTestFailureERKNS_11TestDetailsEPKc@PLT
 5257      00
 5258              	.LEHE196:
 5259              	.LEHB197:
 5260 1c0f E8000000 		call	__cxa_end_catch@PLT
 5260      00
 5261              	.LEHE197:
 5262 1c14 4C8D7424 		leaq	96(%rsp), %r14
 5262      60
 5263 1c19 E9E9F9FF 		jmp	.L340
 5263      FF
 5264              	.L383:
 5265 1c1e 4889C5   		movq	%rax, %rbp
 5266              	.L334:
 5267 1c21 4889EF   		movq	%rbp, %rdi
 5268 1c24 E8000000 		call	__cxa_begin_catch@PLT
 5268      00
 5269              	.LEHB198:
 5270 1c29 E8000000 		call	_ZN8UnitTest11CurrentTest7ResultsEv@PLT
 5270      00
 5271 1c2e 488B28   		movq	(%rax), %rbp
 5272 1c31 E8000000 		call	_ZN8UnitTest11CurrentTest7DetailsEv@PLT
 5272      00
 5273 1c36 488B30   		movq	(%rax), %rsi
 5274 1c39 BA2D0000 		movl	$45, %edx
 5274      00
 5275 1c3e 4889DF   		movq	%rbx, %rdi
 5276 1c41 E8000000 		call	_ZN8UnitTest11TestDetailsC1ERKS0_i@PLT
 5276      00
 5277 1c46 488D1500 		leaq	.LC37(%rip), %rdx
 5277      000000
 5278 1c4d 4889DE   		movq	%rbx, %rsi
 5279 1c50 4889EF   		movq	%rbp, %rdi
 5280 1c53 E8000000 		call	_ZN8UnitTest11TestResults13OnTestFailureERKNS_11TestDetailsEPKc@PLT
 5280      00
 5281              	.LEHE198:
 5282              	.LEHB199:
 5283 1c58 E8000000 		call	__cxa_end_catch@PLT
 5283      00
 5284              	.LEHE199:
 5285 1c5d E9FDFBFF 		jmp	.L363
 5285      FF
 5286              	.L368:
 5287 1c62 4889C3   		movq	%rax, %rbx
 5288 1c65 E8000000 		call	__cxa_end_catch@PLT
 5288      00
 5289 1c6a 4889DF   		movq	%rbx, %rdi
 5290              	.LEHB200:
 5291 1c6d E8000000 		call	_Unwind_Resume@PLT
 5291      00
 5292              	.LEHE200:
 5293              	.L384:
 5294 1c72 4889C3   		movq	%rax, %rbx
 5295 1c75 E8000000 		call	__cxa_end_catch@PLT
 5295      00
 5296 1c7a 4889DF   		movq	%rbx, %rdi
 5297              	.LEHB201:
 5298 1c7d E8000000 		call	_Unwind_Resume@PLT
 5298      00
 5299              	.LEHE201:
 5300              	.L381:
 5301 1c82 4889C7   		movq	%rax, %rdi
 5302 1c85 E8000000 		call	__cxa_begin_catch@PLT
 5302      00
 5303              	.LEHB202:
 5304 1c8a E8000000 		call	_ZN8UnitTest11CurrentTest7ResultsEv@PLT
 5304      00
 5305 1c8f 488B28   		movq	(%rax), %rbp
 5306 1c92 E8000000 		call	_ZN8UnitTest11CurrentTest7DetailsEv@PLT
 5306      00
 5307 1c97 488B30   		movq	(%rax), %rsi
 5308 1c9a BA2C0000 		movl	$44, %edx
 5308      00
 5309 1c9f 4889DF   		movq	%rbx, %rdi
 5310 1ca2 E8000000 		call	_ZN8UnitTest11TestDetailsC1ERKS0_i@PLT
 5310      00
 5311 1ca7 488D1500 		leaq	.LC36(%rip), %rdx
 5311      000000
 5312 1cae 4889DE   		movq	%rbx, %rsi
 5313 1cb1 4889EF   		movq	%rbp, %rdi
 5314 1cb4 E8000000 		call	_ZN8UnitTest11TestResults13OnTestFailureERKNS_11TestDetailsEPKc@PLT
 5314      00
 5315              	.LEHE202:
 5316              	.LEHB203:
 5317 1cb9 E8000000 		call	__cxa_end_catch@PLT
 5317      00
 5318              	.LEHE203:
 5319 1cbe E924FBFF 		jmp	.L361
 5319      FF
 5320              	.L371:
 5321 1cc3 4889C7   		movq	%rax, %rdi
 5322 1cc6 E8000000 		call	__cxa_begin_catch@PLT
 5322      00
 5323              	.LEHB204:
 5324 1ccb E8000000 		call	_ZN8UnitTest11CurrentTest7ResultsEv@PLT
 5324      00
 5325 1cd0 488B28   		movq	(%rax), %rbp
 5326 1cd3 E8000000 		call	_ZN8UnitTest11CurrentTest7DetailsEv@PLT
 5326      00
 5327 1cd8 488B30   		movq	(%rax), %rsi
 5328 1cdb BA270000 		movl	$39, %edx
 5328      00
 5329 1ce0 4889DF   		movq	%rbx, %rdi
 5330 1ce3 E8000000 		call	_ZN8UnitTest11TestDetailsC1ERKS0_i@PLT
 5330      00
 5331 1ce8 488D1500 		leaq	.LC5(%rip), %rdx
 5331      000000
 5332 1cef 4889DE   		movq	%rbx, %rsi
 5333 1cf2 4889EF   		movq	%rbp, %rdi
 5334 1cf5 E8000000 		call	_ZN8UnitTest11TestResults13OnTestFailureERKNS_11TestDetailsEPKc@PLT
 5334      00
 5335              	.LEHE204:
 5336              	.LEHB205:
 5337 1cfa E8000000 		call	__cxa_end_catch@PLT
 5337      00
 5338              	.LEHE205:
 5339 1cff E9BBF9FF 		jmp	.L346
 5339      FF
 5340              	.L382:
 5341 1d04 4889C3   		movq	%rax, %rbx
 5342 1d07 E8000000 		call	__cxa_end_catch@PLT
 5342      00
 5343 1d0c 4889DF   		movq	%rbx, %rdi
 5344              	.LEHB206:
 5345 1d0f E8000000 		call	_Unwind_Resume@PLT
 5345      00
 5346              	.LEHE206:
 5347              	.L372:
 5348 1d14 4889C3   		movq	%rax, %rbx
 5349 1d17 E8000000 		call	__cxa_end_catch@PLT
 5349      00
 5350 1d1c 4889DF   		movq	%rbx, %rdi
 5351              	.LEHB207:
 5352 1d1f E8000000 		call	_Unwind_Resume@PLT
 5352      00
 5353              	.LEHE207:
 5354              	.L369:
 5355 1d24 4889C7   		movq	%rax, %rdi
 5356 1d27 E8000000 		call	__cxa_begin_catch@PLT
 5356      00
 5357              	.LEHB208:
 5358 1d2c E8000000 		call	_ZN8UnitTest11CurrentTest7ResultsEv@PLT
 5358      00
 5359 1d31 488B28   		movq	(%rax), %rbp
 5360 1d34 E8000000 		call	_ZN8UnitTest11CurrentTest7DetailsEv@PLT
 5360      00
 5361 1d39 488B30   		movq	(%rax), %rsi
 5362 1d3c BA250000 		movl	$37, %edx
 5362      00
 5363 1d41 4889DF   		movq	%rbx, %rdi
 5364 1d44 E8000000 		call	_ZN8UnitTest11TestDetailsC1ERKS0_i@PLT
 5364      00
 5365 1d49 488D1500 		leaq	.LC5(%rip), %rdx
 5365      000000
 5366 1d50 4889DE   		movq	%rbx, %rsi
 5367 1d53 4889EF   		movq	%rbp, %rdi
 5368 1d56 E8000000 		call	_ZN8UnitTest11TestResults13OnTestFailureERKNS_11TestDetailsEPKc@PLT
 5368      00
 5369              	.LEHE208:
 5370              	.LEHB209:
 5371 1d5b E8000000 		call	__cxa_end_catch@PLT
 5371      00
 5372              	.LEHE209:
 5373 1d60 E9F1F8FF 		jmp	.L343
 5373      FF
 5374              	.L379:
 5375 1d65 4889C7   		movq	%rax, %rdi
 5376 1d68 E8000000 		call	__cxa_begin_catch@PLT
 5376      00
 5377              	.LEHB210:
 5378 1d6d E8000000 		call	_ZN8UnitTest11CurrentTest7ResultsEv@PLT
 5378      00
 5379 1d72 488B28   		movq	(%rax), %rbp
 5380 1d75 E8000000 		call	_ZN8UnitTest11CurrentTest7DetailsEv@PLT
 5380      00
 5381 1d7a 488B30   		movq	(%rax), %rsi
 5382 1d7d BA2B0000 		movl	$43, %edx
 5382      00
 5383 1d82 4889DF   		movq	%rbx, %rdi
 5384 1d85 E8000000 		call	_ZN8UnitTest11TestDetailsC1ERKS0_i@PLT
 5384      00
 5385 1d8a 488D1500 		leaq	.LC35(%rip), %rdx
 5385      000000
 5386 1d91 4889DE   		movq	%rbx, %rsi
 5387 1d94 4889EF   		movq	%rbp, %rdi
 5388 1d97 E8000000 		call	_ZN8UnitTest11TestResults13OnTestFailureERKNS_11TestDetailsEPKc@PLT
 5388      00
 5389              	.LEHE210:
 5390              	.LEHB211:
 5391 1d9c E8000000 		call	__cxa_end_catch@PLT
 5391      00
 5392              	.LEHE211:
 5393 1da1 E907FAFF 		jmp	.L358
 5393      FF
 5394              	.L370:
 5395 1da6 4889C3   		movq	%rax, %rbx
 5396 1da9 E8000000 		call	__cxa_end_catch@PLT
 5396      00
 5397 1dae 4889DF   		movq	%rbx, %rdi
 5398              	.LEHB212:
 5399 1db1 E8000000 		call	_Unwind_Resume@PLT
 5399      00
 5400              	.LEHE212:
 5401              	.L380:
 5402 1db6 4889C3   		movq	%rax, %rbx
 5403 1db9 E8000000 		call	__cxa_end_catch@PLT
 5403      00
 5404 1dbe 4889DF   		movq	%rbx, %rdi
 5405              	.LEHB213:
 5406 1dc1 E8000000 		call	_Unwind_Resume@PLT
 5406      00
 5407              	.LEHE213:
 5408              	.L377:
 5409 1dc6 4889C7   		movq	%rax, %rdi
 5410 1dc9 E8000000 		call	__cxa_begin_catch@PLT
 5410      00
 5411              	.LEHB214:
 5412 1dce E8000000 		call	_ZN8UnitTest11CurrentTest7ResultsEv@PLT
 5412      00
 5413 1dd3 488B28   		movq	(%rax), %rbp
 5414 1dd6 E8000000 		call	_ZN8UnitTest11CurrentTest7DetailsEv@PLT
 5414      00
 5415 1ddb 488B30   		movq	(%rax), %rsi
 5416 1dde BA2A0000 		movl	$42, %edx
 5416      00
 5417 1de3 4889DF   		movq	%rbx, %rdi
 5418 1de6 E8000000 		call	_ZN8UnitTest11TestDetailsC1ERKS0_i@PLT
 5418      00
 5419 1deb 488D1500 		leaq	.LC34(%rip), %rdx
 5419      000000
 5420 1df2 4889DE   		movq	%rbx, %rsi
 5421 1df5 4889EF   		movq	%rbp, %rdi
 5422 1df8 E8000000 		call	_ZN8UnitTest11TestResults13OnTestFailureERKNS_11TestDetailsEPKc@PLT
 5422      00
 5423              	.LEHE214:
 5424              	.LEHB215:
 5425 1dfd E8000000 		call	__cxa_end_catch@PLT
 5425      00
 5426              	.LEHE215:
 5427 1e02 E968F9FF 		jmp	.L355
 5427      FF
 5428              	.L375:
 5429 1e07 4889C7   		movq	%rax, %rdi
 5430 1e0a E8000000 		call	__cxa_begin_catch@PLT
 5430      00
 5431              	.LEHB216:
 5432 1e0f E8000000 		call	_ZN8UnitTest11CurrentTest7ResultsEv@PLT
 5432      00
 5433 1e14 488B28   		movq	(%rax), %rbp
 5434 1e17 E8000000 		call	_ZN8UnitTest11CurrentTest7DetailsEv@PLT
 5434      00
 5435 1e1c 488B30   		movq	(%rax), %rsi
 5436 1e1f BA290000 		movl	$41, %edx
 5436      00
 5437 1e24 4889DF   		movq	%rbx, %rdi
 5438 1e27 E8000000 		call	_ZN8UnitTest11TestDetailsC1ERKS0_i@PLT
 5438      00
 5439 1e2c 488D1500 		leaq	.LC33(%rip), %rdx
 5439      000000
 5440 1e33 4889DE   		movq	%rbx, %rsi
 5441 1e36 4889EF   		movq	%rbp, %rdi
 5442 1e39 E8000000 		call	_ZN8UnitTest11TestResults13OnTestFailureERKNS_11TestDetailsEPKc@PLT
 5442      00
 5443              	.LEHE216:
 5444              	.LEHB217:
 5445 1e3e E8000000 		call	__cxa_end_catch@PLT
 5445      00
 5446              	.LEHE217:
 5447 1e43 E9EDF8FF 		jmp	.L352
 5447      FF
 5448              	.L378:
 5449 1e48 4889C3   		movq	%rax, %rbx
 5450 1e4b E8000000 		call	__cxa_end_catch@PLT
 5450      00
 5451 1e50 4889DF   		movq	%rbx, %rdi
 5452              	.LEHB218:
 5453 1e53 E8000000 		call	_Unwind_Resume@PLT
 5453      00
 5454              	.LEHE218:
 5455              	.L376:
 5456 1e58 4889C3   		movq	%rax, %rbx
 5457 1e5b E8000000 		call	__cxa_end_catch@PLT
 5457      00
 5458 1e60 4889DF   		movq	%rbx, %rdi
 5459              	.LEHB219:
 5460 1e63 E8000000 		call	_Unwind_Resume@PLT
 5460      00
 5461              	.LEHE219:
 5462              	.L373:
 5463 1e68 4889C7   		movq	%rax, %rdi
 5464 1e6b E8000000 		call	__cxa_begin_catch@PLT
 5464      00
 5465              	.LEHB220:
 5466 1e70 E8000000 		call	_ZN8UnitTest11CurrentTest7ResultsEv@PLT
 5466      00
 5467 1e75 488B28   		movq	(%rax), %rbp
 5468 1e78 E8000000 		call	_ZN8UnitTest11CurrentTest7DetailsEv@PLT
 5468      00
 5469 1e7d 488B30   		movq	(%rax), %rsi
 5470 1e80 BA280000 		movl	$40, %edx
 5470      00
 5471 1e85 4889DF   		movq	%rbx, %rdi
 5472 1e88 E8000000 		call	_ZN8UnitTest11TestDetailsC1ERKS0_i@PLT
 5472      00
 5473 1e8d 488D1500 		leaq	.LC32(%rip), %rdx
 5473      000000
 5474 1e94 4889DE   		movq	%rbx, %rsi
 5475 1e97 4889EF   		movq	%rbp, %rdi
 5476 1e9a E8000000 		call	_ZN8UnitTest11TestResults13OnTestFailureERKNS_11TestDetailsEPKc@PLT
 5476      00
 5477              	.LEHE220:
 5478              	.LEHB221:
 5479 1e9f E8000000 		call	__cxa_end_catch@PLT
 5479      00
 5480              	.LEHE221:
 5481 1ea4 E94EF8FF 		jmp	.L349
 5481      FF
 5482              	.L386:
 5483 1ea9 4889C5   		movq	%rax, %rbp
 5484              	.L332:
 5485 1eac 488D0500 		leaq	16+_ZTVSt9basic_iosIcSt11char_traitsIcEE(%rip), %rax
 5485      000000
 5486 1eb3 498DBC24 		leaq	144(%r12), %rdi
 5486      90000000 
 5487 1ebb 48898424 		movq	%rax, 304(%rsp)
 5487      30010000 
 5488 1ec3 E8000000 		call	_ZNSt8ios_baseD2Ev@PLT
 5488      00
 5489 1ec8 E954FDFF 		jmp	.L334
 5489      FF
 5490              	.L374:
 5491 1ecd 4889C3   		movq	%rax, %rbx
 5492 1ed0 E8000000 		call	__cxa_end_catch@PLT
 5492      00
 5493 1ed5 4889DF   		movq	%rbx, %rdi
 5494              	.LEHB222:
 5495 1ed8 E8000000 		call	_Unwind_Resume@PLT
 5495      00
 5496              	.LEHE222:
 5497              	.L387:
 5498 1edd 498D7C24 		leaq	8(%r12), %rdi
 5498      08
 5499 1ee2 4889C5   		movq	%rax, %rbp
 5500 1ee5 E8000000 		call	_ZNSt7__cxx1115basic_stringbufIcSt11char_traitsIcESaIcEED1Ev
 5500      00
 5501 1eea 488D0500 		leaq	24+_ZTCN8UnitTest15MemoryOutStreamE0_So(%rip), %rax
 5501      000000
 5502 1ef1 48898424 		movq	%rax, 160(%rsp)
 5502      A0000000 
 5503 1ef9 EBB1     		jmp	.L332
 5504              	.L385:
 5505 1efb 4C89E7   		movq	%r12, %rdi
 5506 1efe 4889C5   		movq	%rax, %rbp
 5507 1f01 E8000000 		call	_ZN8UnitTest15MemoryOutStreamD1Ev
 5507      00
 5508 1f06 E916FDFF 		jmp	.L334
 5508      FF
 5509              		.cfi_endproc
 5510              	.LFE1244:
 5511              		.section	.gcc_except_table
 5512              		.align 4
 5513              	.LLSDA1244:
 5514 0370 FF       		.byte	0xff
 5515 0371 9B       		.byte	0x9b
 5516 0372 FC01     		.uleb128 .LLSDATT1244-.LLSDATTD1244
 5517              	.LLSDATTD1244:
 5518 0374 01       		.byte	0x1
 5519 0375 F101     		.uleb128 .LLSDACSE1244-.LLSDACSB1244
 5520              	.LLSDACSB1244:
 5521 0377 4C       		.uleb128 .LEHB179-.LFB1244
 5522 0378 05       		.uleb128 .LEHE179-.LEHB179
 5523 0379 00       		.uleb128 0
 5524 037a 00       		.uleb128 0
 5525 037b 55       		.uleb128 .LEHB180-.LFB1244
 5526 037c 42       		.uleb128 .LEHE180-.LEHB180
 5527 037d E00C     		.uleb128 .L367-.LFB1244
 5528 037f 01       		.uleb128 0x1
 5529 0380 A301     		.uleb128 .LEHB181-.LFB1244
 5530 0382 05       		.uleb128 .LEHE181-.LEHB181
 5531 0383 00       		.uleb128 0
 5532 0384 00       		.uleb128 0
 5533 0385 AC01     		.uleb128 .LEHB182-.LFB1244
 5534 0387 3A       		.uleb128 .LEHE182-.LEHB182
 5535 0388 B40F     		.uleb128 .L369-.LFB1244
 5536 038a 01       		.uleb128 0x1
 5537 038b 8A02     		.uleb128 .LEHB183-.LFB1244
 5538 038d 05       		.uleb128 .LEHE183-.LEHB183
 5539 038e 00       		.uleb128 0
 5540 038f 00       		.uleb128 0
 5541 0390 9502     		.uleb128 .LEHB184-.LFB1244
 5542 0392 3A       		.uleb128 .LEHE184-.LEHB184
 5543 0393 D30E     		.uleb128 .L371-.LFB1244
 5544 0395 01       		.uleb128 0x1
 5545 0396 CF02     		.uleb128 .LEHB185-.LFB1244
 5546 0398 38       		.uleb128 .LEHE185-.LEHB185
 5547 0399 F811     		.uleb128 .L373-.LFB1244
 5548 039b 01       		.uleb128 0x1
 5549 039c 8703     		.uleb128 .LEHB186-.LFB1244
 5550 039e 3E       		.uleb128 .LEHE186-.LEHB186
 5551 039f 9711     		.uleb128 .L375-.LFB1244
 5552 03a1 01       		.uleb128 0x1
 5553 03a2 C503     		.uleb128 .LEHB187-.LFB1244
 5554 03a4 3A       		.uleb128 .LEHE187-.LEHB187
 5555 03a5 D610     		.uleb128 .L377-.LFB1244
 5556 03a7 01       		.uleb128 0x1
 5557 03a8 FF03     		.uleb128 .LEHB188-.LFB1244
 5558 03aa 3E       		.uleb128 .LEHE188-.LEHB188
 5559 03ab F50F     		.uleb128 .L379-.LFB1244
 5560 03ad 01       		.uleb128 0x1
 5561 03ae BD04     		.uleb128 .LEHB189-.LFB1244
 5562 03b0 3A       		.uleb128 .LEHE189-.LEHB189
 5563 03b1 920E     		.uleb128 .L381-.LFB1244
 5564 03b3 01       		.uleb128 0x1
 5565 03b4 F704     		.uleb128 .LEHB190-.LFB1244
 5566 03b6 2B       		.uleb128 .LEHE190-.LEHB190
 5567 03b7 AE0D     		.uleb128 .L383-.LFB1244
 5568 03b9 01       		.uleb128 0x1
 5569 03ba F205     		.uleb128 .LEHB191-.LFB1244
 5570 03bc 0E       		.uleb128 .LEHE191-.LEHB191
 5571 03bd 00       		.uleb128 0
 5572 03be 00       		.uleb128 0
 5573 03bf BC07     		.uleb128 .LEHB192-.LFB1244
 5574 03c1 05       		.uleb128 .LEHE192-.LEHB192
 5575 03c2 B912     		.uleb128 .L386-.LFB1244
 5576 03c4 03       		.uleb128 0x3
 5577 03c5 E008     		.uleb128 .LEHB193-.LFB1244
 5578 03c7 05       		.uleb128 .LEHE193-.LEHB193
 5579 03c8 ED12     		.uleb128 .L387-.LFB1244
 5580 03ca 03       		.uleb128 0x3
 5581 03cb B309     		.uleb128 .LEHB194-.LFB1244
 5582 03cd ED01     		.uleb128 .LEHE194-.LEHB194
 5583 03cf 8B13     		.uleb128 .L385-.LFB1244
 5584 03d1 03       		.uleb128 0x3
 5585 03d2 D10C     		.uleb128 .LEHB195-.LFB1244
 5586 03d4 05       		.uleb128 .LEHE195-.LEHB195
 5587 03d5 AE0D     		.uleb128 .L383-.LFB1244
 5588 03d7 01       		.uleb128 0x1
 5589 03d8 E80C     		.uleb128 .LEHB196-.LFB1244
 5590 03da 37       		.uleb128 .LEHE196-.LEHB196
 5591 03db F20D     		.uleb128 .L368-.LFB1244
 5592 03dd 00       		.uleb128 0
 5593 03de 9F0D     		.uleb128 .LEHB197-.LFB1244
 5594 03e0 05       		.uleb128 .LEHE197-.LEHB197
 5595 03e1 00       		.uleb128 0
 5596 03e2 00       		.uleb128 0
 5597 03e3 B90D     		.uleb128 .LEHB198-.LFB1244
 5598 03e5 2F       		.uleb128 .LEHE198-.LEHB198
 5599 03e6 820E     		.uleb128 .L384-.LFB1244
 5600 03e8 00       		.uleb128 0
 5601 03e9 E80D     		.uleb128 .LEHB199-.LFB1244
 5602 03eb 05       		.uleb128 .LEHE199-.LEHB199
 5603 03ec 00       		.uleb128 0
 5604 03ed 00       		.uleb128 0
 5605 03ee FD0D     		.uleb128 .LEHB200-.LFB1244
 5606 03f0 05       		.uleb128 .LEHE200-.LEHB200
 5607 03f1 00       		.uleb128 0
 5608 03f2 00       		.uleb128 0
 5609 03f3 8D0E     		.uleb128 .LEHB201-.LFB1244
 5610 03f5 05       		.uleb128 .LEHE201-.LEHB201
 5611 03f6 00       		.uleb128 0
 5612 03f7 00       		.uleb128 0
 5613 03f8 9A0E     		.uleb128 .LEHB202-.LFB1244
 5614 03fa 2F       		.uleb128 .LEHE202-.LEHB202
 5615 03fb 940F     		.uleb128 .L382-.LFB1244
 5616 03fd 00       		.uleb128 0
 5617 03fe C90E     		.uleb128 .LEHB203-.LFB1244
 5618 0400 05       		.uleb128 .LEHE203-.LEHB203
 5619 0401 00       		.uleb128 0
 5620 0402 00       		.uleb128 0
 5621 0403 DB0E     		.uleb128 .LEHB204-.LFB1244
 5622 0405 2F       		.uleb128 .LEHE204-.LEHB204
 5623 0406 A40F     		.uleb128 .L372-.LFB1244
 5624 0408 00       		.uleb128 0
 5625 0409 8A0F     		.uleb128 .LEHB205-.LFB1244
 5626 040b 05       		.uleb128 .LEHE205-.LEHB205
 5627 040c 00       		.uleb128 0
 5628 040d 00       		.uleb128 0
 5629 040e 9F0F     		.uleb128 .LEHB206-.LFB1244
 5630 0410 05       		.uleb128 .LEHE206-.LEHB206
 5631 0411 00       		.uleb128 0
 5632 0412 00       		.uleb128 0
 5633 0413 AF0F     		.uleb128 .LEHB207-.LFB1244
 5634 0415 05       		.uleb128 .LEHE207-.LEHB207
 5635 0416 00       		.uleb128 0
 5636 0417 00       		.uleb128 0
 5637 0418 BC0F     		.uleb128 .LEHB208-.LFB1244
 5638 041a 2F       		.uleb128 .LEHE208-.LEHB208
 5639 041b B610     		.uleb128 .L370-.LFB1244
 5640 041d 00       		.uleb128 0
 5641 041e EB0F     		.uleb128 .LEHB209-.LFB1244
 5642 0420 05       		.uleb128 .LEHE209-.LEHB209
 5643 0421 00       		.uleb128 0
 5644 0422 00       		.uleb128 0
 5645 0423 FD0F     		.uleb128 .LEHB210-.LFB1244
 5646 0425 2F       		.uleb128 .LEHE210-.LEHB210
 5647 0426 C610     		.uleb128 .L380-.LFB1244
 5648 0428 00       		.uleb128 0
 5649 0429 AC10     		.uleb128 .LEHB211-.LFB1244
 5650 042b 05       		.uleb128 .LEHE211-.LEHB211
 5651 042c 00       		.uleb128 0
 5652 042d 00       		.uleb128 0
 5653 042e C110     		.uleb128 .LEHB212-.LFB1244
 5654 0430 05       		.uleb128 .LEHE212-.LEHB212
 5655 0431 00       		.uleb128 0
 5656 0432 00       		.uleb128 0
 5657 0433 D110     		.uleb128 .LEHB213-.LFB1244
 5658 0435 05       		.uleb128 .LEHE213-.LEHB213
 5659 0436 00       		.uleb128 0
 5660 0437 00       		.uleb128 0
 5661 0438 DE10     		.uleb128 .LEHB214-.LFB1244
 5662 043a 2F       		.uleb128 .LEHE214-.LEHB214
 5663 043b D811     		.uleb128 .L378-.LFB1244
 5664 043d 00       		.uleb128 0
 5665 043e 8D11     		.uleb128 .LEHB215-.LFB1244
 5666 0440 05       		.uleb128 .LEHE215-.LEHB215
 5667 0441 00       		.uleb128 0
 5668 0442 00       		.uleb128 0
 5669 0443 9F11     		.uleb128 .LEHB216-.LFB1244
 5670 0445 2F       		.uleb128 .LEHE216-.LEHB216
 5671 0446 E811     		.uleb128 .L376-.LFB1244
 5672 0448 00       		.uleb128 0
 5673 0449 CE11     		.uleb128 .LEHB217-.LFB1244
 5674 044b 05       		.uleb128 .LEHE217-.LEHB217
 5675 044c 00       		.uleb128 0
 5676 044d 00       		.uleb128 0
 5677 044e E311     		.uleb128 .LEHB218-.LFB1244
 5678 0450 05       		.uleb128 .LEHE218-.LEHB218
 5679 0451 00       		.uleb128 0
 5680 0452 00       		.uleb128 0
 5681 0453 F311     		.uleb128 .LEHB219-.LFB1244
 5682 0455 05       		.uleb128 .LEHE219-.LEHB219
 5683 0456 00       		.uleb128 0
 5684 0457 00       		.uleb128 0
 5685 0458 8012     		.uleb128 .LEHB220-.LFB1244
 5686 045a 2F       		.uleb128 .LEHE220-.LEHB220
 5687 045b DD12     		.uleb128 .L374-.LFB1244
 5688 045d 00       		.uleb128 0
 5689 045e AF12     		.uleb128 .LEHB221-.LFB1244
 5690 0460 05       		.uleb128 .LEHE221-.LEHB221
 5691 0461 00       		.uleb128 0
 5692 0462 00       		.uleb128 0
 5693 0463 E812     		.uleb128 .LEHB222-.LFB1244
 5694 0465 05       		.uleb128 .LEHE222-.LEHB222
 5695 0466 00       		.uleb128 0
 5696 0467 00       		.uleb128 0
 5697              	.LLSDACSE1244:
 5698 0468 01       		.byte	0x1
 5699 0469 00       		.byte	0
 5700 046a 00       		.byte	0
 5701 046b 7D       		.byte	0x7d
 5702              		.align 4
 5703 046c 00000000 		.long	0
 5704              	
 5705              	.LLSDATT1244:
 5706              		.text
 5708              		.section	.text._ZN8UnitTest15CheckArrayEqualIPKcS2_EEvRNS_11TestResultsERKT_RKT0_iRKNS_11TestDetai
 5709              		.p2align 4,,15
 5710              		.weak	_ZN8UnitTest15CheckArrayEqualIPKcS2_EEvRNS_11TestResultsERKT_RKT0_iRKNS_11TestDetailsE
 5712              	_ZN8UnitTest15CheckArrayEqualIPKcS2_EEvRNS_11TestResultsERKT_RKT0_iRKNS_11TestDetailsE:
 5713              	.LFB1347:
 5714              		.cfi_startproc
 5715              		.cfi_personality 0x9b,DW.ref.__gxx_personality_v0
 5716              		.cfi_lsda 0x1b,.LLSDA1347
 5717 0000 4157     		pushq	%r15
 5718              		.cfi_def_cfa_offset 16
 5719              		.cfi_offset 15, -16
 5720 0002 4156     		pushq	%r14
 5721              		.cfi_def_cfa_offset 24
 5722              		.cfi_offset 14, -24
 5723 0004 4155     		pushq	%r13
 5724              		.cfi_def_cfa_offset 32
 5725              		.cfi_offset 13, -32
 5726 0006 4154     		pushq	%r12
 5727              		.cfi_def_cfa_offset 40
 5728              		.cfi_offset 12, -40
 5729 0008 55       		pushq	%rbp
 5730              		.cfi_def_cfa_offset 48
 5731              		.cfi_offset 6, -48
 5732 0009 53       		pushq	%rbx
 5733              		.cfi_def_cfa_offset 56
 5734              		.cfi_offset 3, -56
 5735 000a 4881ECD8 		subq	$472, %rsp
 5735      010000
 5736              		.cfi_def_cfa_offset 528
 5737 0011 64488B04 		movq	%fs:40, %rax
 5737      25280000 
 5737      00
 5738 001a 48898424 		movq	%rax, 456(%rsp)
 5738      C8010000 
 5739 0022 31C0     		xorl	%eax, %eax
 5740 0024 85C9     		testl	%ecx, %ecx
 5741 0026 48897C24 		movq	%rdi, 16(%rsp)
 5741      10
 5742 002b 4C894424 		movq	%r8, 24(%rsp)
 5742      18
 5743 0030 7E37     		jle	.L399
 5744 0032 4989F6   		movq	%rsi, %r14
 5745 0035 488B3E   		movq	(%rsi), %rdi
 5746 0038 488B32   		movq	(%rdx), %rsi
 5747 003b 83E901   		subl	$1, %ecx
 5748 003e 4989D5   		movq	%rdx, %r13
 5749 0041 31DB     		xorl	%ebx, %ebx
 5750 0043 4883C101 		addq	$1, %rcx
 5751 0047 B8010000 		movl	$1, %eax
 5751      00
 5752 004c 0F1F4000 		.p2align 4,,10
 5753              		.p2align 3
 5754              	.L401:
 5755 0050 0FB6141E 		movzbl	(%rsi,%rbx), %edx
 5756 0054 38141F   		cmpb	%dl, (%rdi,%rbx)
 5757 0057 0F94C2   		sete	%dl
 5758 005a 4883C301 		addq	$1, %rbx
 5759 005e 21D0     		andl	%edx, %eax
 5760 0060 4839D9   		cmpq	%rbx, %rcx
 5761 0063 75EB     		jne	.L401
 5762 0065 84C0     		testb	%al, %al
 5763 0067 742F     		je	.L421
 5764              	.L399:
 5765 0069 488B8424 		movq	456(%rsp), %rax
 5765      C8010000 
 5766 0071 64483304 		xorq	%fs:40, %rax
 5766      25280000 
 5766      00
 5767 007a 0F850203 		jne	.L422
 5767      0000
 5768 0080 4881C4D8 		addq	$472, %rsp
 5768      010000
 5769              		.cfi_remember_state
 5770              		.cfi_def_cfa_offset 56
 5771 0087 5B       		popq	%rbx
 5772              		.cfi_def_cfa_offset 48
 5773 0088 5D       		popq	%rbp
 5774              		.cfi_def_cfa_offset 40
 5775 0089 415C     		popq	%r12
 5776              		.cfi_def_cfa_offset 32
 5777 008b 415D     		popq	%r13
 5778              		.cfi_def_cfa_offset 24
 5779 008d 415E     		popq	%r14
 5780              		.cfi_def_cfa_offset 16
 5781 008f 415F     		popq	%r15
 5782              		.cfi_def_cfa_offset 8
 5783 0091 C3       		ret
 5784              		.p2align 4,,10
 5785 0092 660F1F44 		.p2align 3
 5785      0000
 5786              	.L421:
 5787              		.cfi_restore_state
 5788 0098 4C8D6424 		leaq	48(%rsp), %r12
 5788      30
 5789 009d 498DAC24 		leaq	144(%r12), %rbp
 5789      90000000 
 5790 00a5 4889EF   		movq	%rbp, %rdi
 5791 00a8 E8000000 		call	_ZNSt8ios_baseC2Ev@PLT
 5791      00
 5792 00ad 488D0500 		leaq	24+_ZTCN8UnitTest15MemoryOutStreamE0_So(%rip), %rax
 5792      000000
 5793 00b4 31F6     		xorl	%esi, %esi
 5794 00b6 4889EF   		movq	%rbp, %rdi
 5795 00b9 48C78424 		movq	$0, 408(%rsp)
 5795      98010000 
 5795      00000000 
 5796 00c5 C68424A0 		movb	$0, 416(%rsp)
 5796      01000000 
 5797 00cd 48894424 		movq	%rax, 48(%rsp)
 5797      30
 5798 00d2 4883C028 		addq	$40, %rax
 5799 00d6 C68424A1 		movb	$0, 417(%rsp)
 5799      01000000 
 5800 00de 48C78424 		movq	$0, 424(%rsp)
 5800      A8010000 
 5800      00000000 
 5801 00ea 48C78424 		movq	$0, 432(%rsp)
 5801      B0010000 
 5801      00000000 
 5802 00f6 48C78424 		movq	$0, 440(%rsp)
 5802      B8010000 
 5802      00000000 
 5803 0102 48C78424 		movq	$0, 448(%rsp)
 5803      C0010000 
 5803      00000000 
 5804 010e 48898424 		movq	%rax, 192(%rsp)
 5804      C0000000 
 5805              	.LEHB223:
 5806 0116 E8000000 		call	_ZNSt9basic_iosIcSt11char_traitsIcEE4initEPSt15basic_streambufIcS1_E@PLT
 5806      00
 5807              	.LEHE223:
 5808 011b 488D0500 		leaq	24+_ZTCN8UnitTest15MemoryOutStreamE0_NSt7__cxx1119basic_ostringstreamIcSt11char_traitsIcESaIc
 5808      000000
 5809 0122 660FEFC0 		pxor	%xmm0, %xmm0
 5810 0126 498D7C24 		leaq	64(%r12), %rdi
 5810      40
 5811 012b 48894424 		movq	%rax, 48(%rsp)
 5811      30
 5812 0130 4883C028 		addq	$40, %rax
 5813 0134 48898424 		movq	%rax, 192(%rsp)
 5813      C0000000 
 5814 013c 488D0500 		leaq	16+_ZTVSt15basic_streambufIcSt11char_traitsIcEE(%rip), %rax
 5814      000000
 5815 0143 0F294424 		movaps	%xmm0, 64(%rsp)
 5815      40
 5816 0148 48894424 		movq	%rax, 56(%rsp)
 5816      38
 5817 014d 0F294424 		movaps	%xmm0, 80(%rsp)
 5817      50
 5818 0152 0F294424 		movaps	%xmm0, 96(%rsp)
 5818      60
 5819 0157 E8000000 		call	_ZNSt6localeC1Ev@PLT
 5819      00
 5820 015c 488D0500 		leaq	16+_ZTVNSt7__cxx1115basic_stringbufIcSt11char_traitsIcESaIcEEE(%rip), %rax
 5820      000000
 5821 0163 498D7424 		leaq	8(%r12), %rsi
 5821      08
 5822 0168 48894424 		movq	%rax, 56(%rsp)
 5822      38
 5823 016d 498D4424 		leaq	96(%r12), %rax
 5823      60
 5824 0172 C7442478 		movl	$16, 120(%rsp)
 5824      10000000 
 5825 017a 48C78424 		movq	$0, 136(%rsp)
 5825      88000000 
 5825      00000000 
 5826 0186 C6842490 		movb	$0, 144(%rsp)
 5826      00000000 
 5827 018e 48898424 		movq	%rax, 128(%rsp)
 5827      80000000 
 5828 0196 488B4424 		movq	48(%rsp), %rax
 5828      30
 5829 019b 488B78E8 		movq	-24(%rax), %rdi
 5830 019f 4C01E7   		addq	%r12, %rdi
 5831              	.LEHB224:
 5832 01a2 E8000000 		call	_ZNSt9basic_iosIcSt11char_traitsIcEE4initEPSt15basic_streambufIcS1_E@PLT
 5832      00
 5833              	.LEHE224:
 5834 01a7 488D0500 		leaq	24+_ZTVN8UnitTest15MemoryOutStreamE(%rip), %rax
 5834      000000
 5835 01ae 488D3500 		leaq	.LC28(%rip), %rsi
 5835      000000
 5836 01b5 BA0B0000 		movl	$11, %edx
 5836      00
 5837 01ba 4C89E7   		movq	%r12, %rdi
 5838 01bd 48C78424 		movq	$0, 168(%rsp)
 5838      A8000000 
 5838      00000000 
 5839 01c9 C68424B0 		movb	$0, 176(%rsp)
 5839      00000000 
 5840 01d1 48894424 		movq	%rax, 48(%rsp)
 5840      30
 5841 01d6 4883C028 		addq	$40, %rax
 5842 01da 48898424 		movq	%rax, 192(%rsp)
 5842      C0000000 
 5843 01e2 498D8424 		leaq	128(%r12), %rax
 5843      80000000 
 5844 01ea 48898424 		movq	%rax, 160(%rsp)
 5844      A0000000 
 5845              	.LEHB225:
 5846 01f2 E8000000 		call	_ZSt16__ostream_insertIcSt11char_traitsIcEERSt13basic_ostreamIT_T0_ES6_PKS3_l@PLT
 5846      00
 5847 01f7 488D4424 		leaq	46(%rsp), %rax
 5847      2E
 5848 01fc 4C8D3D00 		leaq	.LC29(%rip), %r15
 5848      000000
 5849 0203 31ED     		xorl	%ebp, %ebp
 5850 0205 48894424 		movq	%rax, 8(%rsp)
 5850      08
 5851 020a 660F1F44 		.p2align 4,,10
 5851      0000
 5852              		.p2align 3
 5853              	.L405:
 5854 0210 498B06   		movq	(%r14), %rax
 5855 0213 488B7424 		movq	8(%rsp), %rsi
 5855      08
 5856 0218 BA010000 		movl	$1, %edx
 5856      00
 5857 021d 4C89E7   		movq	%r12, %rdi
 5858 0220 0FB60428 		movzbl	(%rax,%rbp), %eax
 5859 0224 8844242E 		movb	%al, 46(%rsp)
 5860 0228 E8000000 		call	_ZSt16__ostream_insertIcSt11char_traitsIcEERSt13basic_ostreamIT_T0_ES6_PKS3_l@PLT
 5860      00
 5861 022d BA010000 		movl	$1, %edx
 5861      00
 5862 0232 4C89FE   		movq	%r15, %rsi
 5863 0235 4889C7   		movq	%rax, %rdi
 5864 0238 E8000000 		call	_ZSt16__ostream_insertIcSt11char_traitsIcEERSt13basic_ostreamIT_T0_ES6_PKS3_l@PLT
 5864      00
 5865 023d 4883C501 		addq	$1, %rbp
 5866 0241 4839EB   		cmpq	%rbp, %rbx
 5867 0244 75CA     		jne	.L405
 5868 0246 488D3500 		leaq	.LC30(%rip), %rsi
 5868      000000
 5869 024d BA0C0000 		movl	$12, %edx
 5869      00
 5870 0252 4C89E7   		movq	%r12, %rdi
 5871 0255 E8000000 		call	_ZSt16__ostream_insertIcSt11char_traitsIcEERSt13basic_ostreamIT_T0_ES6_PKS3_l@PLT
 5871      00
 5872 025a 4C8D7424 		leaq	47(%rsp), %r14
 5872      2F
 5873 025f 4C8D3D00 		leaq	.LC29(%rip), %r15
 5873      000000
 5874 0266 31DB     		xorl	%ebx, %ebx
 5875 0268 0F1F8400 		.p2align 4,,10
 5875      00000000 
 5876              		.p2align 3
 5877              	.L406:
 5878 0270 498B4500 		movq	0(%r13), %rax
 5879 0274 BA010000 		movl	$1, %edx
 5879      00
 5880 0279 4C89F6   		movq	%r14, %rsi
 5881 027c 4C89E7   		movq	%r12, %rdi
 5882 027f 0FB60418 		movzbl	(%rax,%rbx), %eax
 5883 0283 8844242F 		movb	%al, 47(%rsp)
 5884 0287 E8000000 		call	_ZSt16__ostream_insertIcSt11char_traitsIcEERSt13basic_ostreamIT_T0_ES6_PKS3_l@PLT
 5884      00
 5885 028c BA010000 		movl	$1, %edx
 5885      00
 5886 0291 4C89FE   		movq	%r15, %rsi
 5887 0294 4889C7   		movq	%rax, %rdi
 5888 0297 E8000000 		call	_ZSt16__ostream_insertIcSt11char_traitsIcEERSt13basic_ostreamIT_T0_ES6_PKS3_l@PLT
 5888      00
 5889 029c 4883C301 		addq	$1, %rbx
 5890 02a0 4839DD   		cmpq	%rbx, %rbp
 5891 02a3 75CB     		jne	.L406
 5892 02a5 488D3500 		leaq	.LC31(%rip), %rsi
 5892      000000
 5893 02ac BA010000 		movl	$1, %edx
 5893      00
 5894 02b1 4C89E7   		movq	%r12, %rdi
 5895 02b4 E8000000 		call	_ZSt16__ostream_insertIcSt11char_traitsIcEERSt13basic_ostreamIT_T0_ES6_PKS3_l@PLT
 5895      00
 5896 02b9 4C89E7   		movq	%r12, %rdi
 5897 02bc E8000000 		call	_ZNK8UnitTest15MemoryOutStream7GetTextEv@PLT
 5897      00
 5898 02c1 488B7424 		movq	24(%rsp), %rsi
 5898      18
 5899 02c6 488B7C24 		movq	16(%rsp), %rdi
 5899      10
 5900 02cb 4889C2   		movq	%rax, %rdx
 5901 02ce E8000000 		call	_ZN8UnitTest11TestResults13OnTestFailureERKNS_11TestDetailsEPKc@PLT
 5901      00
 5902              	.LEHE225:
 5903 02d3 488D0500 		leaq	24+_ZTVN8UnitTest15MemoryOutStreamE(%rip), %rax
 5903      000000
 5904 02da 488BBC24 		movq	160(%rsp), %rdi
 5904      A0000000 
 5905 02e2 48894424 		movq	%rax, 48(%rsp)
 5905      30
 5906 02e7 4883C028 		addq	$40, %rax
 5907 02eb 48898424 		movq	%rax, 192(%rsp)
 5907      C0000000 
 5908 02f3 498D8424 		leaq	128(%r12), %rax
 5908      80000000 
 5909 02fb 4839C7   		cmpq	%rax, %rdi
 5910 02fe 7405     		je	.L407
 5911 0300 E8000000 		call	_ZdlPv@PLT
 5911      00
 5912              	.L407:
 5913 0305 488D0500 		leaq	64+_ZTCN8UnitTest15MemoryOutStreamE0_NSt7__cxx1119basic_ostringstreamIcSt11char_traitsIcESaIc
 5913      000000
 5914 030c 488BBC24 		movq	128(%rsp), %rdi
 5914      80000000 
 5915 0314 F30F7E05 		movq	.LC2(%rip), %xmm0
 5915      00000000 
 5916 031c 48898424 		movq	%rax, 192(%rsp)
 5916      C0000000 
 5917 0324 498D4424 		leaq	96(%r12), %rax
 5917      60
 5918 0329 0F160500 		movhps	.LC3(%rip), %xmm0
 5918      000000
 5919 0330 4839C7   		cmpq	%rax, %rdi
 5920 0333 0F294424 		movaps	%xmm0, 48(%rsp)
 5920      30
 5921 0338 7405     		je	.L408
 5922 033a E8000000 		call	_ZdlPv@PLT
 5922      00
 5923              	.L408:
 5924 033f 488D0500 		leaq	16+_ZTVSt15basic_streambufIcSt11char_traitsIcEE(%rip), %rax
 5924      000000
 5925 0346 498D7C24 		leaq	64(%r12), %rdi
 5925      40
 5926 034b 48894424 		movq	%rax, 56(%rsp)
 5926      38
 5927 0350 E8000000 		call	_ZNSt6localeD1Ev@PLT
 5927      00
 5928 0355 488D0500 		leaq	24+_ZTCN8UnitTest15MemoryOutStreamE0_So(%rip), %rax
 5928      000000
 5929 035c 498DBC24 		leaq	144(%r12), %rdi
 5929      90000000 
 5930 0364 48894424 		movq	%rax, 48(%rsp)
 5930      30
 5931 0369 488D0500 		leaq	16+_ZTVSt9basic_iosIcSt11char_traitsIcEE(%rip), %rax
 5931      000000
 5932 0370 48898424 		movq	%rax, 192(%rsp)
 5932      C0000000 
 5933              	.LEHB226:
 5934 0378 E8000000 		call	_ZNSt8ios_baseD2Ev@PLT
 5934      00
 5935              	.LEHE226:
 5936 037d E9E7FCFF 		jmp	.L399
 5936      FF
 5937              	.L422:
 5938 0382 E8000000 		call	__stack_chk_fail@PLT
 5938      00
 5939              	.L413:
 5940 0387 4889C3   		movq	%rax, %rbx
 5941              	.L404:
 5942 038a 488D0500 		leaq	16+_ZTVSt9basic_iosIcSt11char_traitsIcEE(%rip), %rax
 5942      000000
 5943 0391 498DBC24 		leaq	144(%r12), %rdi
 5943      90000000 
 5944 0399 48898424 		movq	%rax, 192(%rsp)
 5944      C0000000 
 5945 03a1 E8000000 		call	_ZNSt8ios_baseD2Ev@PLT
 5945      00
 5946 03a6 4889DF   		movq	%rbx, %rdi
 5947              	.LEHB227:
 5948 03a9 E8000000 		call	_Unwind_Resume@PLT
 5948      00
 5949              	.LEHE227:
 5950              	.L414:
 5951 03ae 498D7C24 		leaq	8(%r12), %rdi
 5951      08
 5952 03b3 4889C3   		movq	%rax, %rbx
 5953 03b6 E8000000 		call	_ZNSt7__cxx1115basic_stringbufIcSt11char_traitsIcESaIcEED1Ev
 5953      00
 5954 03bb 488D0500 		leaq	24+_ZTCN8UnitTest15MemoryOutStreamE0_So(%rip), %rax
 5954      000000
 5955 03c2 48894424 		movq	%rax, 48(%rsp)
 5955      30
 5956 03c7 EBC1     		jmp	.L404
 5957              	.L412:
 5958 03c9 4889C3   		movq	%rax, %rbx
 5959 03cc 4C89E7   		movq	%r12, %rdi
 5960 03cf E8000000 		call	_ZN8UnitTest15MemoryOutStreamD1Ev
 5960      00
 5961 03d4 4889DF   		movq	%rbx, %rdi
 5962              	.LEHB228:
 5963 03d7 E8000000 		call	_Unwind_Resume@PLT
 5963      00
 5964              	.LEHE228:
 5965              		.cfi_endproc
 5966              	.LFE1347:
 5967              		.section	.gcc_except_table
 5968              	.LLSDA1347:
 5969 0470 FF       		.byte	0xff
 5970 0471 FF       		.byte	0xff
 5971 0472 01       		.byte	0x1
 5972 0473 22       		.uleb128 .LLSDACSE1347-.LLSDACSB1347
 5973              	.LLSDACSB1347:
 5974 0474 9602     		.uleb128 .LEHB223-.LFB1347
 5975 0476 05       		.uleb128 .LEHE223-.LEHB223
 5976 0477 8707     		.uleb128 .L413-.LFB1347
 5977 0479 00       		.uleb128 0
 5978 047a A203     		.uleb128 .LEHB224-.LFB1347
 5979 047c 05       		.uleb128 .LEHE224-.LEHB224
 5980 047d AE07     		.uleb128 .L414-.LFB1347
 5981 047f 00       		.uleb128 0
 5982 0480 F203     		.uleb128 .LEHB225-.LFB1347
 5983 0482 E101     		.uleb128 .LEHE225-.LEHB225
 5984 0484 C907     		.uleb128 .L412-.LFB1347
 5985 0486 00       		.uleb128 0
 5986 0487 F806     		.uleb128 .LEHB226-.LFB1347
 5987 0489 05       		.uleb128 .LEHE226-.LEHB226
 5988 048a 00       		.uleb128 0
 5989 048b 00       		.uleb128 0
 5990 048c A907     		.uleb128 .LEHB227-.LFB1347
 5991 048e 05       		.uleb128 .LEHE227-.LEHB227
 5992 048f 00       		.uleb128 0
 5993 0490 00       		.uleb128 0
 5994 0491 D707     		.uleb128 .LEHB228-.LFB1347
 5995 0493 05       		.uleb128 .LEHE228-.LEHB228
 5996 0494 00       		.uleb128 0
 5997 0495 00       		.uleb128 0
 5998              	.LLSDACSE1347:
 5999              		.section	.text._ZN8UnitTest15CheckArrayEqualIPKcS2_EEvRNS_11TestResultsERKT_RKT0_iRKNS_11TestDetai
 6001              		.section	.text._ZN8UnitTest15CheckArrayEqualIPhS1_EEvRNS_11TestResultsERKT_RKT0_iRKNS_11TestDetail
 6002              		.p2align 4,,15
 6003              		.weak	_ZN8UnitTest15CheckArrayEqualIPhS1_EEvRNS_11TestResultsERKT_RKT0_iRKNS_11TestDetailsE
 6005              	_ZN8UnitTest15CheckArrayEqualIPhS1_EEvRNS_11TestResultsERKT_RKT0_iRKNS_11TestDetailsE:
 6006              	.LFB1348:
 6007              		.cfi_startproc
 6008              		.cfi_personality 0x9b,DW.ref.__gxx_personality_v0
 6009              		.cfi_lsda 0x1b,.LLSDA1348
 6010 0000 4157     		pushq	%r15
 6011              		.cfi_def_cfa_offset 16
 6012              		.cfi_offset 15, -16
 6013 0002 4156     		pushq	%r14
 6014              		.cfi_def_cfa_offset 24
 6015              		.cfi_offset 14, -24
 6016 0004 4155     		pushq	%r13
 6017              		.cfi_def_cfa_offset 32
 6018              		.cfi_offset 13, -32
 6019 0006 4154     		pushq	%r12
 6020              		.cfi_def_cfa_offset 40
 6021              		.cfi_offset 12, -40
 6022 0008 55       		pushq	%rbp
 6023              		.cfi_def_cfa_offset 48
 6024              		.cfi_offset 6, -48
 6025 0009 53       		pushq	%rbx
 6026              		.cfi_def_cfa_offset 56
 6027              		.cfi_offset 3, -56
 6028 000a 4881ECD8 		subq	$472, %rsp
 6028      010000
 6029              		.cfi_def_cfa_offset 528
 6030 0011 64488B04 		movq	%fs:40, %rax
 6030      25280000 
 6030      00
 6031 001a 48898424 		movq	%rax, 456(%rsp)
 6031      C8010000 
 6032 0022 31C0     		xorl	%eax, %eax
 6033 0024 85C9     		testl	%ecx, %ecx
 6034 0026 48897C24 		movq	%rdi, 16(%rsp)
 6034      10
 6035 002b 4C894424 		movq	%r8, 24(%rsp)
 6035      18
 6036 0030 7E37     		jle	.L423
 6037 0032 4989F6   		movq	%rsi, %r14
 6038 0035 488B3E   		movq	(%rsi), %rdi
 6039 0038 488B32   		movq	(%rdx), %rsi
 6040 003b 83E901   		subl	$1, %ecx
 6041 003e 4989D5   		movq	%rdx, %r13
 6042 0041 31DB     		xorl	%ebx, %ebx
 6043 0043 4883C101 		addq	$1, %rcx
 6044 0047 B8010000 		movl	$1, %eax
 6044      00
 6045 004c 0F1F4000 		.p2align 4,,10
 6046              		.p2align 3
 6047              	.L425:
 6048 0050 0FB6141E 		movzbl	(%rsi,%rbx), %edx
 6049 0054 38141F   		cmpb	%dl, (%rdi,%rbx)
 6050 0057 0F94C2   		sete	%dl
 6051 005a 4883C301 		addq	$1, %rbx
 6052 005e 21D0     		andl	%edx, %eax
 6053 0060 4839D9   		cmpq	%rbx, %rcx
 6054 0063 75EB     		jne	.L425
 6055 0065 84C0     		testb	%al, %al
 6056 0067 742F     		je	.L445
 6057              	.L423:
 6058 0069 488B8424 		movq	456(%rsp), %rax
 6058      C8010000 
 6059 0071 64483304 		xorq	%fs:40, %rax
 6059      25280000 
 6059      00
 6060 007a 0F850203 		jne	.L446
 6060      0000
 6061 0080 4881C4D8 		addq	$472, %rsp
 6061      010000
 6062              		.cfi_remember_state
 6063              		.cfi_def_cfa_offset 56
 6064 0087 5B       		popq	%rbx
 6065              		.cfi_def_cfa_offset 48
 6066 0088 5D       		popq	%rbp
 6067              		.cfi_def_cfa_offset 40
 6068 0089 415C     		popq	%r12
 6069              		.cfi_def_cfa_offset 32
 6070 008b 415D     		popq	%r13
 6071              		.cfi_def_cfa_offset 24
 6072 008d 415E     		popq	%r14
 6073              		.cfi_def_cfa_offset 16
 6074 008f 415F     		popq	%r15
 6075              		.cfi_def_cfa_offset 8
 6076 0091 C3       		ret
 6077              		.p2align 4,,10
 6078 0092 660F1F44 		.p2align 3
 6078      0000
 6079              	.L445:
 6080              		.cfi_restore_state
 6081 0098 4C8D6424 		leaq	48(%rsp), %r12
 6081      30
 6082 009d 498DAC24 		leaq	144(%r12), %rbp
 6082      90000000 
 6083 00a5 4889EF   		movq	%rbp, %rdi
 6084 00a8 E8000000 		call	_ZNSt8ios_baseC2Ev@PLT
 6084      00
 6085 00ad 488D0500 		leaq	24+_ZTCN8UnitTest15MemoryOutStreamE0_So(%rip), %rax
 6085      000000
 6086 00b4 31F6     		xorl	%esi, %esi
 6087 00b6 4889EF   		movq	%rbp, %rdi
 6088 00b9 48C78424 		movq	$0, 408(%rsp)
 6088      98010000 
 6088      00000000 
 6089 00c5 C68424A0 		movb	$0, 416(%rsp)
 6089      01000000 
 6090 00cd 48894424 		movq	%rax, 48(%rsp)
 6090      30
 6091 00d2 4883C028 		addq	$40, %rax
 6092 00d6 C68424A1 		movb	$0, 417(%rsp)
 6092      01000000 
 6093 00de 48C78424 		movq	$0, 424(%rsp)
 6093      A8010000 
 6093      00000000 
 6094 00ea 48C78424 		movq	$0, 432(%rsp)
 6094      B0010000 
 6094      00000000 
 6095 00f6 48C78424 		movq	$0, 440(%rsp)
 6095      B8010000 
 6095      00000000 
 6096 0102 48C78424 		movq	$0, 448(%rsp)
 6096      C0010000 
 6096      00000000 
 6097 010e 48898424 		movq	%rax, 192(%rsp)
 6097      C0000000 
 6098              	.LEHB229:
 6099 0116 E8000000 		call	_ZNSt9basic_iosIcSt11char_traitsIcEE4initEPSt15basic_streambufIcS1_E@PLT
 6099      00
 6100              	.LEHE229:
 6101 011b 488D0500 		leaq	24+_ZTCN8UnitTest15MemoryOutStreamE0_NSt7__cxx1119basic_ostringstreamIcSt11char_traitsIcESaIc
 6101      000000
 6102 0122 660FEFC0 		pxor	%xmm0, %xmm0
 6103 0126 498D7C24 		leaq	64(%r12), %rdi
 6103      40
 6104 012b 48894424 		movq	%rax, 48(%rsp)
 6104      30
 6105 0130 4883C028 		addq	$40, %rax
 6106 0134 48898424 		movq	%rax, 192(%rsp)
 6106      C0000000 
 6107 013c 488D0500 		leaq	16+_ZTVSt15basic_streambufIcSt11char_traitsIcEE(%rip), %rax
 6107      000000
 6108 0143 0F294424 		movaps	%xmm0, 64(%rsp)
 6108      40
 6109 0148 48894424 		movq	%rax, 56(%rsp)
 6109      38
 6110 014d 0F294424 		movaps	%xmm0, 80(%rsp)
 6110      50
 6111 0152 0F294424 		movaps	%xmm0, 96(%rsp)
 6111      60
 6112 0157 E8000000 		call	_ZNSt6localeC1Ev@PLT
 6112      00
 6113 015c 488D0500 		leaq	16+_ZTVNSt7__cxx1115basic_stringbufIcSt11char_traitsIcESaIcEEE(%rip), %rax
 6113      000000
 6114 0163 498D7424 		leaq	8(%r12), %rsi
 6114      08
 6115 0168 48894424 		movq	%rax, 56(%rsp)
 6115      38
 6116 016d 498D4424 		leaq	96(%r12), %rax
 6116      60
 6117 0172 C7442478 		movl	$16, 120(%rsp)
 6117      10000000 
 6118 017a 48C78424 		movq	$0, 136(%rsp)
 6118      88000000 
 6118      00000000 
 6119 0186 C6842490 		movb	$0, 144(%rsp)
 6119      00000000 
 6120 018e 48898424 		movq	%rax, 128(%rsp)
 6120      80000000 
 6121 0196 488B4424 		movq	48(%rsp), %rax
 6121      30
 6122 019b 488B78E8 		movq	-24(%rax), %rdi
 6123 019f 4C01E7   		addq	%r12, %rdi
 6124              	.LEHB230:
 6125 01a2 E8000000 		call	_ZNSt9basic_iosIcSt11char_traitsIcEE4initEPSt15basic_streambufIcS1_E@PLT
 6125      00
 6126              	.LEHE230:
 6127 01a7 488D0500 		leaq	24+_ZTVN8UnitTest15MemoryOutStreamE(%rip), %rax
 6127      000000
 6128 01ae 488D3500 		leaq	.LC28(%rip), %rsi
 6128      000000
 6129 01b5 BA0B0000 		movl	$11, %edx
 6129      00
 6130 01ba 4C89E7   		movq	%r12, %rdi
 6131 01bd 48C78424 		movq	$0, 168(%rsp)
 6131      A8000000 
 6131      00000000 
 6132 01c9 C68424B0 		movb	$0, 176(%rsp)
 6132      00000000 
 6133 01d1 48894424 		movq	%rax, 48(%rsp)
 6133      30
 6134 01d6 4883C028 		addq	$40, %rax
 6135 01da 48898424 		movq	%rax, 192(%rsp)
 6135      C0000000 
 6136 01e2 498D8424 		leaq	128(%r12), %rax
 6136      80000000 
 6137 01ea 48898424 		movq	%rax, 160(%rsp)
 6137      A0000000 
 6138              	.LEHB231:
 6139 01f2 E8000000 		call	_ZSt16__ostream_insertIcSt11char_traitsIcEERSt13basic_ostreamIT_T0_ES6_PKS3_l@PLT
 6139      00
 6140 01f7 488D4424 		leaq	46(%rsp), %rax
 6140      2E
 6141 01fc 4C8D3D00 		leaq	.LC29(%rip), %r15
 6141      000000
 6142 0203 31ED     		xorl	%ebp, %ebp
 6143 0205 48894424 		movq	%rax, 8(%rsp)
 6143      08
 6144 020a 660F1F44 		.p2align 4,,10
 6144      0000
 6145              		.p2align 3
 6146              	.L429:
 6147 0210 498B06   		movq	(%r14), %rax
 6148 0213 488B7424 		movq	8(%rsp), %rsi
 6148      08
 6149 0218 BA010000 		movl	$1, %edx
 6149      00
 6150 021d 4C89E7   		movq	%r12, %rdi
 6151 0220 0FB60428 		movzbl	(%rax,%rbp), %eax
 6152 0224 8844242E 		movb	%al, 46(%rsp)
 6153 0228 E8000000 		call	_ZSt16__ostream_insertIcSt11char_traitsIcEERSt13basic_ostreamIT_T0_ES6_PKS3_l@PLT
 6153      00
 6154 022d BA010000 		movl	$1, %edx
 6154      00
 6155 0232 4C89FE   		movq	%r15, %rsi
 6156 0235 4889C7   		movq	%rax, %rdi
 6157 0238 E8000000 		call	_ZSt16__ostream_insertIcSt11char_traitsIcEERSt13basic_ostreamIT_T0_ES6_PKS3_l@PLT
 6157      00
 6158 023d 4883C501 		addq	$1, %rbp
 6159 0241 4839EB   		cmpq	%rbp, %rbx
 6160 0244 75CA     		jne	.L429
 6161 0246 488D3500 		leaq	.LC30(%rip), %rsi
 6161      000000
 6162 024d BA0C0000 		movl	$12, %edx
 6162      00
 6163 0252 4C89E7   		movq	%r12, %rdi
 6164 0255 E8000000 		call	_ZSt16__ostream_insertIcSt11char_traitsIcEERSt13basic_ostreamIT_T0_ES6_PKS3_l@PLT
 6164      00
 6165 025a 4C8D7424 		leaq	47(%rsp), %r14
 6165      2F
 6166 025f 4C8D3D00 		leaq	.LC29(%rip), %r15
 6166      000000
 6167 0266 31DB     		xorl	%ebx, %ebx
 6168 0268 0F1F8400 		.p2align 4,,10
 6168      00000000 
 6169              		.p2align 3
 6170              	.L430:
 6171 0270 498B4500 		movq	0(%r13), %rax
 6172 0274 BA010000 		movl	$1, %edx
 6172      00
 6173 0279 4C89F6   		movq	%r14, %rsi
 6174 027c 4C89E7   		movq	%r12, %rdi
 6175 027f 0FB60418 		movzbl	(%rax,%rbx), %eax
 6176 0283 8844242F 		movb	%al, 47(%rsp)
 6177 0287 E8000000 		call	_ZSt16__ostream_insertIcSt11char_traitsIcEERSt13basic_ostreamIT_T0_ES6_PKS3_l@PLT
 6177      00
 6178 028c BA010000 		movl	$1, %edx
 6178      00
 6179 0291 4C89FE   		movq	%r15, %rsi
 6180 0294 4889C7   		movq	%rax, %rdi
 6181 0297 E8000000 		call	_ZSt16__ostream_insertIcSt11char_traitsIcEERSt13basic_ostreamIT_T0_ES6_PKS3_l@PLT
 6181      00
 6182 029c 4883C301 		addq	$1, %rbx
 6183 02a0 4839DD   		cmpq	%rbx, %rbp
 6184 02a3 75CB     		jne	.L430
 6185 02a5 488D3500 		leaq	.LC31(%rip), %rsi
 6185      000000
 6186 02ac BA010000 		movl	$1, %edx
 6186      00
 6187 02b1 4C89E7   		movq	%r12, %rdi
 6188 02b4 E8000000 		call	_ZSt16__ostream_insertIcSt11char_traitsIcEERSt13basic_ostreamIT_T0_ES6_PKS3_l@PLT
 6188      00
 6189 02b9 4C89E7   		movq	%r12, %rdi
 6190 02bc E8000000 		call	_ZNK8UnitTest15MemoryOutStream7GetTextEv@PLT
 6190      00
 6191 02c1 488B7424 		movq	24(%rsp), %rsi
 6191      18
 6192 02c6 488B7C24 		movq	16(%rsp), %rdi
 6192      10
 6193 02cb 4889C2   		movq	%rax, %rdx
 6194 02ce E8000000 		call	_ZN8UnitTest11TestResults13OnTestFailureERKNS_11TestDetailsEPKc@PLT
 6194      00
 6195              	.LEHE231:
 6196 02d3 488D0500 		leaq	24+_ZTVN8UnitTest15MemoryOutStreamE(%rip), %rax
 6196      000000
 6197 02da 488BBC24 		movq	160(%rsp), %rdi
 6197      A0000000 
 6198 02e2 48894424 		movq	%rax, 48(%rsp)
 6198      30
 6199 02e7 4883C028 		addq	$40, %rax
 6200 02eb 48898424 		movq	%rax, 192(%rsp)
 6200      C0000000 
 6201 02f3 498D8424 		leaq	128(%r12), %rax
 6201      80000000 
 6202 02fb 4839C7   		cmpq	%rax, %rdi
 6203 02fe 7405     		je	.L431
 6204 0300 E8000000 		call	_ZdlPv@PLT
 6204      00
 6205              	.L431:
 6206 0305 488D0500 		leaq	64+_ZTCN8UnitTest15MemoryOutStreamE0_NSt7__cxx1119basic_ostringstreamIcSt11char_traitsIcESaIc
 6206      000000
 6207 030c 488BBC24 		movq	128(%rsp), %rdi
 6207      80000000 
 6208 0314 F30F7E05 		movq	.LC2(%rip), %xmm0
 6208      00000000 
 6209 031c 48898424 		movq	%rax, 192(%rsp)
 6209      C0000000 
 6210 0324 498D4424 		leaq	96(%r12), %rax
 6210      60
 6211 0329 0F160500 		movhps	.LC3(%rip), %xmm0
 6211      000000
 6212 0330 4839C7   		cmpq	%rax, %rdi
 6213 0333 0F294424 		movaps	%xmm0, 48(%rsp)
 6213      30
 6214 0338 7405     		je	.L432
 6215 033a E8000000 		call	_ZdlPv@PLT
 6215      00
 6216              	.L432:
 6217 033f 488D0500 		leaq	16+_ZTVSt15basic_streambufIcSt11char_traitsIcEE(%rip), %rax
 6217      000000
 6218 0346 498D7C24 		leaq	64(%r12), %rdi
 6218      40
 6219 034b 48894424 		movq	%rax, 56(%rsp)
 6219      38
 6220 0350 E8000000 		call	_ZNSt6localeD1Ev@PLT
 6220      00
 6221 0355 488D0500 		leaq	24+_ZTCN8UnitTest15MemoryOutStreamE0_So(%rip), %rax
 6221      000000
 6222 035c 498DBC24 		leaq	144(%r12), %rdi
 6222      90000000 
 6223 0364 48894424 		movq	%rax, 48(%rsp)
 6223      30
 6224 0369 488D0500 		leaq	16+_ZTVSt9basic_iosIcSt11char_traitsIcEE(%rip), %rax
 6224      000000
 6225 0370 48898424 		movq	%rax, 192(%rsp)
 6225      C0000000 
 6226              	.LEHB232:
 6227 0378 E8000000 		call	_ZNSt8ios_baseD2Ev@PLT
 6227      00
 6228              	.LEHE232:
 6229 037d E9E7FCFF 		jmp	.L423
 6229      FF
 6230              	.L446:
 6231 0382 E8000000 		call	__stack_chk_fail@PLT
 6231      00
 6232              	.L437:
 6233 0387 4889C3   		movq	%rax, %rbx
 6234              	.L428:
 6235 038a 488D0500 		leaq	16+_ZTVSt9basic_iosIcSt11char_traitsIcEE(%rip), %rax
 6235      000000
 6236 0391 498DBC24 		leaq	144(%r12), %rdi
 6236      90000000 
 6237 0399 48898424 		movq	%rax, 192(%rsp)
 6237      C0000000 
 6238 03a1 E8000000 		call	_ZNSt8ios_baseD2Ev@PLT
 6238      00
 6239 03a6 4889DF   		movq	%rbx, %rdi
 6240              	.LEHB233:
 6241 03a9 E8000000 		call	_Unwind_Resume@PLT
 6241      00
 6242              	.LEHE233:
 6243              	.L438:
 6244 03ae 498D7C24 		leaq	8(%r12), %rdi
 6244      08
 6245 03b3 4889C3   		movq	%rax, %rbx
 6246 03b6 E8000000 		call	_ZNSt7__cxx1115basic_stringbufIcSt11char_traitsIcESaIcEED1Ev
 6246      00
 6247 03bb 488D0500 		leaq	24+_ZTCN8UnitTest15MemoryOutStreamE0_So(%rip), %rax
 6247      000000
 6248 03c2 48894424 		movq	%rax, 48(%rsp)
 6248      30
 6249 03c7 EBC1     		jmp	.L428
 6250              	.L436:
 6251 03c9 4889C3   		movq	%rax, %rbx
 6252 03cc 4C89E7   		movq	%r12, %rdi
 6253 03cf E8000000 		call	_ZN8UnitTest15MemoryOutStreamD1Ev
 6253      00
 6254 03d4 4889DF   		movq	%rbx, %rdi
 6255              	.LEHB234:
 6256 03d7 E8000000 		call	_Unwind_Resume@PLT
 6256      00
 6257              	.LEHE234:
 6258              		.cfi_endproc
 6259              	.LFE1348:
 6260              		.section	.gcc_except_table
 6261              	.LLSDA1348:
 6262 0496 FF       		.byte	0xff
 6263 0497 FF       		.byte	0xff
 6264 0498 01       		.byte	0x1
 6265 0499 22       		.uleb128 .LLSDACSE1348-.LLSDACSB1348
 6266              	.LLSDACSB1348:
 6267 049a 9602     		.uleb128 .LEHB229-.LFB1348
 6268 049c 05       		.uleb128 .LEHE229-.LEHB229
 6269 049d 8707     		.uleb128 .L437-.LFB1348
 6270 049f 00       		.uleb128 0
 6271 04a0 A203     		.uleb128 .LEHB230-.LFB1348
 6272 04a2 05       		.uleb128 .LEHE230-.LEHB230
 6273 04a3 AE07     		.uleb128 .L438-.LFB1348
 6274 04a5 00       		.uleb128 0
 6275 04a6 F203     		.uleb128 .LEHB231-.LFB1348
 6276 04a8 E101     		.uleb128 .LEHE231-.LEHB231
 6277 04aa C907     		.uleb128 .L436-.LFB1348
 6278 04ac 00       		.uleb128 0
 6279 04ad F806     		.uleb128 .LEHB232-.LFB1348
 6280 04af 05       		.uleb128 .LEHE232-.LEHB232
 6281 04b0 00       		.uleb128 0
 6282 04b1 00       		.uleb128 0
 6283 04b2 A907     		.uleb128 .LEHB233-.LFB1348
 6284 04b4 05       		.uleb128 .LEHE233-.LEHB233
 6285 04b5 00       		.uleb128 0
 6286 04b6 00       		.uleb128 0
 6287 04b7 D707     		.uleb128 .LEHB234-.LFB1348
 6288 04b9 05       		.uleb128 .LEHE234-.LEHB234
 6289 04ba 00       		.uleb128 0
 6290 04bb 00       		.uleb128 0
 6291              	.LLSDACSE1348:
 6292              		.section	.text._ZN8UnitTest15CheckArrayEqualIPhS1_EEvRNS_11TestResultsERKT_RKT0_iRKNS_11TestDetail
 6294              		.section	.rodata.str1.1
 6295              	.LC38:
 6296 00fd 62617369 		.string	"basic_string::append"
 6296      635F7374 
 6296      72696E67 
 6296      3A3A6170 
 6296      70656E64 
 6297              	.LC39:
 6298 0112 746D7046 		.string	"tmpFile.hex"
 6298      696C652E 
 6298      68657800 
 6299              	.LC40:
 6300 011e 66696C65 		.string	"file.is_open()"
 6300      2E69735F 
 6300      6F70656E 
 6300      282900
 6301              		.section	.rodata.str1.8
 6302 049f 00       		.align 8
 6303              	.LC41:
 6304 04a0 556E6861 		.string	"Unhandled exception in CHECK(file.is_open())"
 6304      6E646C65 
 6304      64206578 
 6304      63657074 
 6304      696F6E20 
 6305 04cd 000000   		.align 8
 6306              	.LC42:
 6307 04d0 556E6861 		.string	"Unhandled exception in CHECK_EQUAL(expected.size(), (unsigned int)length)"
 6307      6E646C65 
 6307      64206578 
 6307      63657074 
 6307      696F6E20 
 6308 051a 00000000 		.align 8
 6308      0000
 6309              	.LC43:
 6310 0520 556E6861 		.string	"Unhandled exception in CHECK_ARRAY_EQUAL(expected.c_str(), (const char *)fileData)"
 6310      6E646C65 
 6310      64206578 
 6310      63657074 
 6310      696F6E20 
 6311 0573 00000000 		.align 8
 6311      00
 6312              	.LC44:
 6313 0578 556E6861 		.string	"Unhandled exception in CHECK_EQUAL(data.length, readbackData.length)"
 6313      6E646C65 
 6313      64206578 
 6313      63657074 
 6313      696F6E20 
 6314 05bd 000000   		.align 8
 6315              	.LC45:
 6316 05c0 556E6861 		.string	"Unhandled exception in CHECK_ARRAY_EQUAL(data.data, readbackData.data)"
 6316      6E646C65 
 6316      64206578 
 6316      63657074 
 6316      696F6E20 
 6317 0607 00       		.align 8
 6318              	.LC46:
 6319 0608 556E6861 		.string	"Unhandled exception in CHECK_EQUAL(mask.length, readbackMask.length)"
 6319      6E646C65 
 6319      64206578 
 6319      63657074 
 6319      696F6E20 
 6320 064d 000000   		.align 8
 6321              	.LC47:
 6322 0650 556E6861 		.string	"Unhandled exception in CHECK_ARRAY_EQUAL(mask.data, readbackMask.data)"
 6322      6E646C65 
 6322      64206578 
 6322      63657074 
 6322      696F6E20 
 6323              		.text
 6324 1f0b 0F1F4400 		.p2align 4,,15
 6324      00
 6325              		.globl	_Z13testRoundTripPKcz
 6327              	_Z13testRoundTripPKcz:
 6328              	.LFB1285:
 6329              		.cfi_startproc
 6330              		.cfi_personality 0x9b,DW.ref.__gxx_personality_v0
 6331              		.cfi_lsda 0x1b,.LLSDA1285
 6332 1f10 55       		pushq	%rbp
 6333              		.cfi_def_cfa_offset 16
 6334              		.cfi_offset 6, -16
 6335 1f11 4889E5   		movq	%rsp, %rbp
 6336              		.cfi_def_cfa_register 6
 6337 1f14 4157     		pushq	%r15
 6338 1f16 4156     		pushq	%r14
 6339 1f18 4155     		pushq	%r13
 6340 1f1a 4154     		pushq	%r12
 6341 1f1c 53       		pushq	%rbx
 6342              		.cfi_offset 15, -24
 6343              		.cfi_offset 14, -32
 6344              		.cfi_offset 13, -40
 6345              		.cfi_offset 12, -48
 6346              		.cfi_offset 3, -56
 6347 1f1d 4889FB   		movq	%rdi, %rbx
 6348 1f20 4881EC18 		subq	$1304, %rsp
 6348      050000
 6349 1f27 488975A8 		movq	%rsi, -88(%rbp)
 6350 1f2b 488955B0 		movq	%rdx, -80(%rbp)
 6351 1f2f 64488B04 		movq	%fs:40, %rax
 6351      25280000 
 6351      00
 6352 1f38 48894598 		movq	%rax, -104(%rbp)
 6353 1f3c 31C0     		xorl	%eax, %eax
 6354 1f3e 488D85D0 		leaq	-1072(%rbp), %rax
 6354      FBFFFF
 6355 1f45 48894DB8 		movq	%rcx, -72(%rbp)
 6356 1f49 31D2     		xorl	%edx, %edx
 6357 1f4b 31C9     		xorl	%ecx, %ecx
 6358 1f4d BE000400 		movl	$1024, %esi
 6358      00
 6359 1f52 4C8945C0 		movq	%r8, -64(%rbp)
 6360 1f56 488985F0 		movq	%rax, -1296(%rbp)
 6360      FAFFFF
 6361 1f5d 4883C010 		addq	$16, %rax
 6362 1f61 4C894DC8 		movq	%r9, -56(%rbp)
 6363 1f65 488985D0 		movq	%rax, -1072(%rbp)
 6363      FBFFFF
 6364 1f6c 488D8510 		leaq	-1264(%rbp), %rax
 6364      FBFFFF
 6365 1f73 48C785D8 		movq	$0, -1064(%rbp)
 6365      FBFFFF00 
 6365      000000
 6366 1f7e C685E0FB 		movb	$0, -1056(%rbp)
 6366      FFFF00
 6367 1f85 C78508FB 		movl	$0, -1272(%rbp)
 6367      FFFF0000 
 6367      0000
 6368 1f8f 4889C7   		movq	%rax, %rdi
 6369 1f92 488985E8 		movq	%rax, -1304(%rbp)
 6369      FAFFFF
 6370              	.LEHB235:
 6371 1f99 E8000000 		call	bufInitialise@PLT
 6371      00
 6372              	.LEHE235:
 6373 1f9e 898504FB 		movl	%eax, -1276(%rbp)
 6373      FFFF
 6374              	.LEHB236:
 6375 1fa4 E8000000 		call	_ZN8UnitTest11CurrentTest7DetailsEv@PLT
 6375      00
 6376 1fa9 4C8DB590 		leaq	-1136(%rbp), %r14
 6376      FBFFFF
 6377 1fb0 488B30   		movq	(%rax), %rsi
 6378 1fb3 BAC40000 		movl	$196, %edx
 6378      00
 6379 1fb8 4C89F7   		movq	%r14, %rdi
 6380 1fbb E8000000 		call	_ZN8UnitTest11TestDetailsC1ERKS0_i@PLT
 6380      00
 6381 1fc0 C78570FB 		movl	$0, -1168(%rbp)
 6381      FFFF0000 
 6381      0000
 6382 1fca E8000000 		call	_ZN8UnitTest11CurrentTest7ResultsEv@PLT
 6382      00
 6383 1fcf 488D8D70 		leaq	-1168(%rbp), %rcx
 6383      FBFFFF
 6384 1fd6 488B38   		movq	(%rax), %rdi
 6385 1fd9 488D9504 		leaq	-1276(%rbp), %rdx
 6385      FBFFFF
 6386 1fe0 4889CE   		movq	%rcx, %rsi
 6387 1fe3 4C89F1   		movq	%r14, %rcx
 6388 1fe6 E8000000 		call	_ZN8UnitTest10CheckEqualI12BufferStatusS1_EEvRNS_11TestResultsERKT_RKT0_RKNS_11TestDetailsE
 6388      00
 6389              	.LEHE236:
 6390              	.L483:
 6391 1feb 488D8530 		leaq	-1232(%rbp), %rax
 6391      FBFFFF
 6392 1ff2 31C9     		xorl	%ecx, %ecx
 6393 1ff4 31D2     		xorl	%edx, %edx
 6394 1ff6 BE000400 		movl	$1024, %esi
 6394      00
 6395 1ffb 4889C7   		movq	%rax, %rdi
 6396 1ffe 488985E0 		movq	%rax, -1312(%rbp)
 6396      FAFFFF
 6397              	.LEHB237:
 6398 2005 E8000000 		call	bufInitialise@PLT
 6398      00
 6399              	.LEHE237:
 6400 200a 898504FB 		movl	%eax, -1276(%rbp)
 6400      FFFF
 6401              	.LEHB238:
 6402 2010 E8000000 		call	_ZN8UnitTest11CurrentTest7DetailsEv@PLT
 6402      00
 6403 2015 488B30   		movq	(%rax), %rsi
 6404 2018 BAC60000 		movl	$198, %edx
 6404      00
 6405 201d 4C89F7   		movq	%r14, %rdi
 6406 2020 E8000000 		call	_ZN8UnitTest11TestDetailsC1ERKS0_i@PLT
 6406      00
 6407 2025 C78570FB 		movl	$0, -1168(%rbp)
 6407      FFFF0000 
 6407      0000
 6408 202f E8000000 		call	_ZN8UnitTest11CurrentTest7ResultsEv@PLT
 6408      00
 6409 2034 488D8D70 		leaq	-1168(%rbp), %rcx
 6409      FBFFFF
 6410 203b 488B38   		movq	(%rax), %rdi
 6411 203e 488D9504 		leaq	-1276(%rbp), %rdx
 6411      FBFFFF
 6412 2045 4889CE   		movq	%rcx, %rsi
 6413 2048 4C89F1   		movq	%r14, %rcx
 6414 204b E8000000 		call	_ZN8UnitTest10CheckEqualI12BufferStatusS1_EEvRNS_11TestResultsERKT_RKT0_RKNS_11TestDetailsE
 6414      00
 6415              	.LEHE238:
 6416              	.L486:
 6417 2050 488D4510 		leaq	16(%rbp), %rax
 6418 2054 4C8DA508 		leaq	-1272(%rbp), %r12
 6418      FBFFFF
 6419 205b 4C8DAD04 		leaq	-1276(%rbp), %r13
 6419      FBFFFF
 6420 2062 C785B8FB 		movl	$8, -1096(%rbp)
 6420      FFFF0800 
 6420      0000
 6421 206c 49BFFFFF 		movabsq	$9223372036854775807, %r15
 6421      FFFFFFFF 
 6421      FF7F
 6422 2076 488985C0 		movq	%rax, -1088(%rbp)
 6422      FBFFFF
 6423 207d 488D45A0 		leaq	-96(%rbp), %rax
 6424 2081 488985C8 		movq	%rax, -1080(%rbp)
 6424      FBFFFF
 6425 2088 488D8503 		leaq	-1277(%rbp), %rax
 6425      FBFFFF
 6426 208f 488985D8 		movq	%rax, -1320(%rbp)
 6426      FAFFFF
 6427 2096 488D8570 		leaq	-1168(%rbp), %rax
 6427      FBFFFF
 6428 209d 488985D0 		movq	%rax, -1328(%rbp)
 6428      FAFFFF
 6429 20a4 488B85F0 		movq	-1296(%rbp), %rax
 6429      FAFFFF
 6430 20ab 4883C010 		addq	$16, %rax
 6431 20af 488985C8 		movq	%rax, -1336(%rbp)
 6431      FAFFFF
 6432 20b6 662E0F1F 		.p2align 4,,10
 6432      84000000 
 6432      0000
 6433              		.p2align 3
 6434              	.L448:
 6435 20c0 4883EC08 		subq	$8, %rsp
 6436 20c4 4C8B8DD8 		movq	-1320(%rbp), %r9
 6436      FAFFFF
 6437 20cb 488B8DE0 		movq	-1312(%rbp), %rcx
 6437      FAFFFF
 6438 20d2 488B95E8 		movq	-1304(%rbp), %rdx
 6438      FAFFFF
 6439 20d9 6A00     		pushq	$0
 6440 20db 4D89E0   		movq	%r12, %r8
 6441 20de 31F6     		xorl	%esi, %esi
 6442 20e0 4889DF   		movq	%rbx, %rdi
 6443              	.LEHB239:
 6444              		.cfi_escape 0x2e,0x10
 6445 20e3 E8000000 		call	bufProcessLine@PLT
 6445      00
 6446              	.LEHE239:
 6447 20e8 5A       		popq	%rdx
 6448 20e9 59       		popq	%rcx
 6449 20ea 898504FB 		movl	%eax, -1276(%rbp)
 6449      FFFF
 6450              	.LEHB240:
 6451              		.cfi_escape 0x2e,0
 6452 20f0 E8000000 		call	_ZN8UnitTest11CurrentTest7DetailsEv@PLT
 6452      00
 6453 20f5 488B30   		movq	(%rax), %rsi
 6454 20f8 BACB0000 		movl	$203, %edx
 6454      00
 6455 20fd 4C89F7   		movq	%r14, %rdi
 6456 2100 E8000000 		call	_ZN8UnitTest11TestDetailsC1ERKS0_i@PLT
 6456      00
 6457 2105 C78570FB 		movl	$0, -1168(%rbp)
 6457      FFFF0000 
 6457      0000
 6458 210f E8000000 		call	_ZN8UnitTest11CurrentTest7ResultsEv@PLT
 6458      00
 6459 2114 488BB5D0 		movq	-1328(%rbp), %rsi
 6459      FAFFFF
 6460 211b 488B38   		movq	(%rax), %rdi
 6461 211e 4C89F1   		movq	%r14, %rcx
 6462 2121 4C89EA   		movq	%r13, %rdx
 6463 2124 E8000000 		call	_ZN8UnitTest10CheckEqualI12BufferStatusS1_EEvRNS_11TestResultsERKT_RKT0_RKNS_11TestDetailsE
 6463      00
 6464              	.LEHE240:
 6465              	.L489:
 6466 2129 4889DF   		movq	%rbx, %rdi
 6467 212c E8000000 		call	strlen@PLT
 6467      00
 6468 2131 4C89FA   		movq	%r15, %rdx
 6469 2134 482B95D8 		subq	-1064(%rbp), %rdx
 6469      FBFFFF
 6470 213b 4839D0   		cmpq	%rdx, %rax
 6471 213e 0F874A09 		ja	.L574
 6471      0000
 6472 2144 488BBDF0 		movq	-1296(%rbp), %rdi
 6472      FAFFFF
 6473 214b 4889C2   		movq	%rax, %rdx
 6474 214e 4889DE   		movq	%rbx, %rsi
 6475              	.LEHB241:
 6476 2151 E8000000 		call	_ZNSt7__cxx1112basic_stringIcSt11char_traitsIcESaIcEE9_M_appendEPKcm@PLT
 6476      00
 6477 2156 488B9DD8 		movq	-1064(%rbp), %rbx
 6477      FBFFFF
 6478 215d BA0F0000 		movl	$15, %edx
 6478      00
 6479 2162 488D4301 		leaq	1(%rbx), %rax
 6480 2166 488985F8 		movq	%rax, -1288(%rbp)
 6480      FAFFFF
 6481 216d 488B85D0 		movq	-1072(%rbp), %rax
 6481      FBFFFF
 6482 2174 483B85C8 		cmpq	-1336(%rbp), %rax
 6482      FAFFFF
 6483 217b 7407     		je	.L450
 6484 217d 488B95E0 		movq	-1056(%rbp), %rdx
 6484      FBFFFF
 6485              	.L450:
 6486 2184 483995F8 		cmpq	%rdx, -1288(%rbp)
 6486      FAFFFF
 6487 218b 0F876708 		ja	.L575
 6487      0000
 6488              	.L451:
 6489 2191 C604180A 		movb	$10, (%rax,%rbx)
 6490 2195 488D4301 		leaq	1(%rbx), %rax
 6491 2199 488985D8 		movq	%rax, -1064(%rbp)
 6491      FBFFFF
 6492 21a0 488B85D0 		movq	-1072(%rbp), %rax
 6492      FBFFFF
 6493 21a7 C6441801 		movb	$0, 1(%rax,%rbx)
 6493      00
 6494 21ac 8B85B8FB 		movl	-1096(%rbp), %eax
 6494      FFFF
 6495 21b2 83F82F   		cmpl	$47, %eax
 6496 21b5 0F871308 		ja	.L452
 6496      0000
 6497 21bb 89C2     		movl	%eax, %edx
 6498 21bd 480395C8 		addq	-1080(%rbp), %rdx
 6498      FBFFFF
 6499 21c4 83C008   		addl	$8, %eax
 6500 21c7 8985B8FB 		movl	%eax, -1096(%rbp)
 6500      FFFF
 6501 21cd 488B1A   		movq	(%rdx), %rbx
 6502 21d0 4885DB   		testq	%rbx, %rbx
 6503 21d3 0F85E7FE 		jne	.L448
 6503      FFFF
 6504 21d9 0F1F8000 		.p2align 4,,10
 6504      000000
 6505              		.p2align 3
 6506              	.L453:
 6507 21e0 48B8FFFF 		movabsq	$9223372036854775807, %rax
 6507      FFFFFFFF 
 6507      FF7F
 6508 21ea 482B85D8 		subq	-1064(%rbp), %rax
 6508      FBFFFF
 6509 21f1 4883F80B 		cmpq	$11, %rax
 6510 21f5 0F86CB08 		jbe	.L576
 6510      0000
 6511 21fb 488BBDF0 		movq	-1296(%rbp), %rdi
 6511      FAFFFF
 6512 2202 488D3500 		leaq	.LC23(%rip), %rsi
 6512      000000
 6513 2209 BA0C0000 		movl	$12, %edx
 6513      00
 6514 220e E8000000 		call	_ZNSt7__cxx1112basic_stringIcSt11char_traitsIcESaIcEE9_M_appendEPKcm@PLT
 6514      00
 6515 2213 488BB5E0 		movq	-1312(%rbp), %rsi
 6515      FAFFFF
 6516 221a 488BBDE8 		movq	-1304(%rbp), %rdi
 6516      FAFFFF
 6517 2221 488D1500 		leaq	.LC39(%rip), %rdx
 6517      000000
 6518 2228 4531C9   		xorl	%r9d, %r9d
 6519 222b 4531C0   		xorl	%r8d, %r8d
 6520 222e B9100000 		movl	$16, %ecx
 6520      00
 6521 2233 E8000000 		call	bufWriteToIntelHexFile@PLT
 6521      00
 6522              	.LEHE241:
 6523 2238 898504FB 		movl	%eax, -1276(%rbp)
 6523      FFFF
 6524              	.LEHB242:
 6525 223e E8000000 		call	_ZN8UnitTest11CurrentTest7DetailsEv@PLT
 6525      00
 6526 2243 488B30   		movq	(%rax), %rsi
 6527 2246 BAD30000 		movl	$211, %edx
 6527      00
 6528 224b 4C89F7   		movq	%r14, %rdi
 6529 224e E8000000 		call	_ZN8UnitTest11TestDetailsC1ERKS0_i@PLT
 6529      00
 6530 2253 C78570FB 		movl	$0, -1168(%rbp)
 6530      FFFF0000 
 6530      0000
 6531 225d E8000000 		call	_ZN8UnitTest11CurrentTest7ResultsEv@PLT
 6531      00
 6532 2262 488D8D70 		leaq	-1168(%rbp), %rcx
 6532      FBFFFF
 6533 2269 488B38   		movq	(%rax), %rdi
 6534 226c 488D9504 		leaq	-1276(%rbp), %rdx
 6534      FBFFFF
 6535 2273 4889CE   		movq	%rcx, %rsi
 6536 2276 4C89F1   		movq	%r14, %rcx
 6537 2279 E8000000 		call	_ZN8UnitTest10CheckEqualI12BufferStatusS1_EEvRNS_11TestResultsERKT_RKT0_RKNS_11TestDetailsE
 6537      00
 6538              	.LEHE242:
 6539              	.L492:
 6540 227e 488D9D90 		leaq	-624(%rbp), %rbx
 6540      FDFFFF
 6541 2285 488DBB00 		leaq	256(%rbx), %rdi
 6541      010000
 6542 228c E8000000 		call	_ZNSt8ios_baseC2Ev@PLT
 6542      00
 6543 2291 4C8B3D00 		movq	8+_ZTTSt14basic_ifstreamIcSt11char_traitsIcEE(%rip), %r15
 6543      000000
 6544 2298 488D0500 		leaq	16+_ZTVSt9basic_iosIcSt11char_traitsIcEE(%rip), %rax
 6544      000000
 6545 229f C68570FF 		movb	$0, -144(%rbp)
 6545      FFFF00
 6546 22a6 488B0D00 		movq	16+_ZTTSt14basic_ifstreamIcSt11char_traitsIcEE(%rip), %rcx
 6546      000000
 6547 22ad 48C78568 		movq	$0, -152(%rbp)
 6547      FFFFFF00 
 6547      000000
 6548 22b8 31F6     		xorl	%esi, %esi
 6549 22ba 48898590 		movq	%rax, -368(%rbp)
 6549      FEFFFF
 6550 22c1 C68571FF 		movb	$0, -143(%rbp)
 6550      FFFF00
 6551 22c8 498B47E8 		movq	-24(%r15), %rax
 6552 22cc 48C78578 		movq	$0, -136(%rbp)
 6552      FFFFFF00 
 6552      000000
 6553 22d7 48C74580 		movq	$0, -128(%rbp)
 6553      00000000 
 6554 22df 48C74588 		movq	$0, -120(%rbp)
 6554      00000000 
 6555 22e7 48C74590 		movq	$0, -112(%rbp)
 6555      00000000 
 6556 22ef 4C89BD90 		movq	%r15, -624(%rbp)
 6556      FDFFFF
 6557 22f6 48898C05 		movq	%rcx, -624(%rbp,%rax)
 6557      90FDFFFF 
 6558 22fe 48C78598 		movq	$0, -616(%rbp)
 6558      FDFFFF00 
 6558      000000
 6559 2309 498B7FE8 		movq	-24(%r15), %rdi
 6560 230d 4801DF   		addq	%rbx, %rdi
 6561              	.LEHB243:
 6562 2310 E8000000 		call	_ZNSt9basic_iosIcSt11char_traitsIcEE4initEPSt15basic_streambufIcS1_E@PLT
 6562      00
 6563              	.LEHE243:
 6564 2315 488D0500 		leaq	24+_ZTVSt14basic_ifstreamIcSt11char_traitsIcEE(%rip), %rax
 6564      000000
 6565 231c 488D7B10 		leaq	16(%rbx), %rdi
 6566 2320 48898590 		movq	%rax, -624(%rbp)
 6566      FDFFFF
 6567 2327 4883C028 		addq	$40, %rax
 6568 232b 48898590 		movq	%rax, -368(%rbp)
 6568      FEFFFF
 6569              	.LEHB244:
 6570 2332 E8000000 		call	_ZNSt13basic_filebufIcSt11char_traitsIcEEC1Ev@PLT
 6570      00
 6571              	.LEHE244:
 6572 2337 488D7310 		leaq	16(%rbx), %rsi
 6573 233b 488DBB00 		leaq	256(%rbx), %rdi
 6573      010000
 6574              	.LEHB245:
 6575 2342 E8000000 		call	_ZNSt9basic_iosIcSt11char_traitsIcEE4initEPSt15basic_streambufIcS1_E@PLT
 6575      00
 6576              	.LEHE245:
 6577 2347 488D7B10 		leaq	16(%rbx), %rdi
 6578 234b 488D3500 		leaq	.LC39(%rip), %rsi
 6578      000000
 6579 2352 BA0A0000 		movl	$10, %edx
 6579      00
 6580              	.LEHB246:
 6581 2357 E8000000 		call	_ZNSt13basic_filebufIcSt11char_traitsIcEE4openEPKcSt13_Ios_Openmode@PLT
 6581      00
 6582 235c 488B9590 		movq	-624(%rbp), %rdx
 6582      FDFFFF
 6583 2363 488B7AE8 		movq	-24(%rdx), %rdi
 6584 2367 4801DF   		addq	%rbx, %rdi
 6585 236a 4885C0   		testq	%rax, %rax
 6586 236d 0F84ED06 		je	.L577
 6586      0000
 6587 2373 31F6     		xorl	%esi, %esi
 6588 2375 E8000000 		call	_ZNSt9basic_iosIcSt11char_traitsIcEE5clearESt12_Ios_Iostate@PLT
 6588      00
 6589              	.L464:
 6590 237a 488D7B78 		leaq	120(%rbx), %rdi
 6591 237e E8000000 		call	_ZNKSt12__basic_fileIcE7is_openEv@PLT
 6591      00
 6592 2383 84C0     		testb	%al, %al
 6593 2385 0F849506 		je	.L578
 6593      0000
 6594              	.L465:
 6595 238b 4889DF   		movq	%rbx, %rdi
 6596 238e E8000000 		call	_ZNSi5tellgEv@PLT
 6596      00
 6597              	.LEHE246:
 6598 2393 4989C5   		movq	%rax, %r13
 6599              	.LEHB247:
 6600 2396 E8000000 		call	_ZN8UnitTest11CurrentTest7DetailsEv@PLT
 6600      00
 6601 239b 488B30   		movq	(%rax), %rsi
 6602 239e BADA0000 		movl	$218, %edx
 6602      00
 6603 23a3 4C89F7   		movq	%r14, %rdi
 6604 23a6 E8000000 		call	_ZN8UnitTest11TestDetailsC1ERKS0_i@PLT
 6604      00
 6605 23ab 4C8BA5D8 		movq	-1064(%rbp), %r12
 6605      FBFFFF
 6606 23b2 4C89A5D8 		movq	%r12, -1320(%rbp)
 6606      FAFFFF
 6607 23b9 E8000000 		call	_ZN8UnitTest11CurrentTest7ResultsEv@PLT
 6607      00
 6608              	.LEHE247:
 6609 23be 4489EE   		movl	%r13d, %esi
 6610 23c1 4939F4   		cmpq	%rsi, %r12
 6611 23c4 4889B5F8 		movq	%rsi, -1288(%rbp)
 6611      FAFFFF
 6612 23cb 0F848102 		je	.L497
 6612      0000
 6613 23d1 488B00   		movq	(%rax), %rax
 6614 23d4 4C8DA5F0 		leaq	-1040(%rbp), %r12
 6614      FBFFFF
 6615 23db 488985D0 		movq	%rax, -1328(%rbp)
 6615      FAFFFF
 6616 23e2 498D8424 		leaq	144(%r12), %rax
 6616      90000000 
 6617 23ea 4889C7   		movq	%rax, %rdi
 6618 23ed 488985C8 		movq	%rax, -1336(%rbp)
 6618      FAFFFF
 6619 23f4 E8000000 		call	_ZNSt8ios_baseC2Ev@PLT
 6619      00
 6620 23f9 488D0500 		leaq	24+_ZTCN8UnitTest15MemoryOutStreamE0_So(%rip), %rax
 6620      000000
 6621 2400 31F6     		xorl	%esi, %esi
 6622 2402 48C78558 		movq	$0, -680(%rbp)
 6622      FDFFFF00 
 6622      000000
 6623 240d C68560FD 		movb	$0, -672(%rbp)
 6623      FFFF00
 6624 2414 C68561FD 		movb	$0, -671(%rbp)
 6624      FFFF00
 6625 241b 488985F0 		movq	%rax, -1040(%rbp)
 6625      FBFFFF
 6626 2422 4883C028 		addq	$40, %rax
 6627 2426 48C78568 		movq	$0, -664(%rbp)
 6627      FDFFFF00 
 6627      000000
 6628 2431 48898580 		movq	%rax, -896(%rbp)
 6628      FCFFFF
 6629 2438 488B85C8 		movq	-1336(%rbp), %rax
 6629      FAFFFF
 6630 243f 48C78570 		movq	$0, -656(%rbp)
 6630      FDFFFF00 
 6630      000000
 6631 244a 48C78578 		movq	$0, -648(%rbp)
 6631      FDFFFF00 
 6631      000000
 6632 2455 48C78580 		movq	$0, -640(%rbp)
 6632      FDFFFF00 
 6632      000000
 6633 2460 4889C7   		movq	%rax, %rdi
 6634              	.LEHB248:
 6635 2463 E8000000 		call	_ZNSt9basic_iosIcSt11char_traitsIcEE4initEPSt15basic_streambufIcS1_E@PLT
 6635      00
 6636              	.LEHE248:
 6637 2468 488D0500 		leaq	24+_ZTCN8UnitTest15MemoryOutStreamE0_NSt7__cxx1119basic_ostringstreamIcSt11char_traitsIcESaIc
 6637      000000
 6638 246f 660FEFC0 		pxor	%xmm0, %xmm0
 6639 2473 498D7C24 		leaq	64(%r12), %rdi
 6639      40
 6640 2478 488985F0 		movq	%rax, -1040(%rbp)
 6640      FBFFFF
 6641 247f 4883C028 		addq	$40, %rax
 6642 2483 48898580 		movq	%rax, -896(%rbp)
 6642      FCFFFF
 6643 248a 488D0500 		leaq	16+_ZTVSt15basic_streambufIcSt11char_traitsIcEE(%rip), %rax
 6643      000000
 6644 2491 0F298500 		movaps	%xmm0, -1024(%rbp)
 6644      FCFFFF
 6645 2498 488985F8 		movq	%rax, -1032(%rbp)
 6645      FBFFFF
 6646 249f 0F298510 		movaps	%xmm0, -1008(%rbp)
 6646      FCFFFF
 6647 24a6 0F298520 		movaps	%xmm0, -992(%rbp)
 6647      FCFFFF
 6648 24ad E8000000 		call	_ZNSt6localeC1Ev@PLT
 6648      00
 6649 24b2 488D0500 		leaq	16+_ZTVNSt7__cxx1115basic_stringbufIcSt11char_traitsIcESaIcEEE(%rip), %rax
 6649      000000
 6650 24b9 498D7424 		leaq	8(%r12), %rsi
 6650      08
 6651 24be 488985F8 		movq	%rax, -1032(%rbp)
 6651      FBFFFF
 6652 24c5 498D4424 		leaq	96(%r12), %rax
 6652      60
 6653 24ca C78538FC 		movl	$16, -968(%rbp)
 6653      FFFF1000 
 6653      0000
 6654 24d4 48C78548 		movq	$0, -952(%rbp)
 6654      FCFFFF00 
 6654      000000
 6655 24df C68550FC 		movb	$0, -944(%rbp)
 6655      FFFF00
 6656 24e6 48898540 		movq	%rax, -960(%rbp)
 6656      FCFFFF
 6657 24ed 488B85F0 		movq	-1040(%rbp), %rax
 6657      FBFFFF
 6658 24f4 488B78E8 		movq	-24(%rax), %rdi
 6659 24f8 4C01E7   		addq	%r12, %rdi
 6660              	.LEHB249:
 6661 24fb E8000000 		call	_ZNSt9basic_iosIcSt11char_traitsIcEE4initEPSt15basic_streambufIcS1_E@PLT
 6661      00
 6662              	.LEHE249:
 6663 2500 488D0500 		leaq	24+_ZTVN8UnitTest15MemoryOutStreamE(%rip), %rax
 6663      000000
 6664 2507 488D3500 		leaq	.LC0(%rip), %rsi
 6664      000000
 6665 250e BA090000 		movl	$9, %edx
 6665      00
 6666 2513 4C89E7   		movq	%r12, %rdi
 6667 2516 48C78568 		movq	$0, -920(%rbp)
 6667      FCFFFF00 
 6667      000000
 6668 2521 C68570FC 		movb	$0, -912(%rbp)
 6668      FFFF00
 6669 2528 488985F0 		movq	%rax, -1040(%rbp)
 6669      FBFFFF
 6670 252f 4883C028 		addq	$40, %rax
 6671 2533 48898580 		movq	%rax, -896(%rbp)
 6671      FCFFFF
 6672 253a 498D8424 		leaq	128(%r12), %rax
 6672      80000000 
 6673 2542 48898560 		movq	%rax, -928(%rbp)
 6673      FCFFFF
 6674              	.LEHB250:
 6675 2549 E8000000 		call	_ZSt16__ostream_insertIcSt11char_traitsIcEERSt13basic_ostreamIT_T0_ES6_PKS3_l@PLT
 6675      00
 6676 254e 488BB5D8 		movq	-1320(%rbp), %rsi
 6676      FAFFFF
 6677 2555 4C89E7   		movq	%r12, %rdi
 6678 2558 E8000000 		call	_ZNSo9_M_insertImEERSoT_@PLT
 6678      00
 6679 255d 488D3500 		leaq	.LC1(%rip), %rsi
 6679      000000
 6680 2564 BA090000 		movl	$9, %edx
 6680      00
 6681 2569 4889C7   		movq	%rax, %rdi
 6682 256c 488985D8 		movq	%rax, -1320(%rbp)
 6682      FAFFFF
 6683 2573 E8000000 		call	_ZSt16__ostream_insertIcSt11char_traitsIcEERSt13basic_ostreamIT_T0_ES6_PKS3_l@PLT
 6683      00
 6684 2578 488BB5F8 		movq	-1288(%rbp), %rsi
 6684      FAFFFF
 6685 257f 488BBDD8 		movq	-1320(%rbp), %rdi
 6685      FAFFFF
 6686 2586 E8000000 		call	_ZNSo9_M_insertImEERSoT_@PLT
 6686      00
 6687 258b 4C89E7   		movq	%r12, %rdi
 6688 258e E8000000 		call	_ZNK8UnitTest15MemoryOutStream7GetTextEv@PLT
 6688      00
 6689 2593 488BBDD0 		movq	-1328(%rbp), %rdi
 6689      FAFFFF
 6690 259a 4889C2   		movq	%rax, %rdx
 6691 259d 4C89F6   		movq	%r14, %rsi
 6692 25a0 E8000000 		call	_ZN8UnitTest11TestResults13OnTestFailureERKNS_11TestDetailsEPKc@PLT
 6692      00
 6693              	.LEHE250:
 6694 25a5 488D0500 		leaq	24+_ZTVN8UnitTest15MemoryOutStreamE(%rip), %rax
 6694      000000
 6695 25ac 488BBD60 		movq	-928(%rbp), %rdi
 6695      FCFFFF
 6696 25b3 488985F0 		movq	%rax, -1040(%rbp)
 6696      FBFFFF
 6697 25ba 4883C028 		addq	$40, %rax
 6698 25be 48898580 		movq	%rax, -896(%rbp)
 6698      FCFFFF
 6699 25c5 498D8424 		leaq	128(%r12), %rax
 6699      80000000 
 6700 25cd 4839C7   		cmpq	%rax, %rdi
 6701 25d0 7405     		je	.L472
 6702 25d2 E8000000 		call	_ZdlPv@PLT
 6702      00
 6703              	.L472:
 6704 25d7 488D0500 		leaq	64+_ZTCN8UnitTest15MemoryOutStreamE0_NSt7__cxx1119basic_ostringstreamIcSt11char_traitsIcESaIc
 6704      000000
 6705 25de 488BBD40 		movq	-960(%rbp), %rdi
 6705      FCFFFF
 6706 25e5 F30F7E05 		movq	.LC2(%rip), %xmm0
 6706      00000000 
 6707 25ed 48898580 		movq	%rax, -896(%rbp)
 6707      FCFFFF
 6708 25f4 498D4424 		leaq	96(%r12), %rax
 6708      60
 6709 25f9 0F160500 		movhps	.LC3(%rip), %xmm0
 6709      000000
 6710 2600 4839C7   		cmpq	%rax, %rdi
 6711 2603 0F2985F0 		movaps	%xmm0, -1040(%rbp)
 6711      FBFFFF
 6712 260a 7405     		je	.L473
 6713 260c E8000000 		call	_ZdlPv@PLT
 6713      00
 6714              	.L473:
 6715 2611 488D0500 		leaq	16+_ZTVSt15basic_streambufIcSt11char_traitsIcEE(%rip), %rax
 6715      000000
 6716 2618 498D7C24 		leaq	64(%r12), %rdi
 6716      40
 6717 261d 488985F8 		movq	%rax, -1032(%rbp)
 6717      FBFFFF
 6718 2624 E8000000 		call	_ZNSt6localeD1Ev@PLT
 6718      00
 6719 2629 488D0500 		leaq	24+_ZTCN8UnitTest15MemoryOutStreamE0_So(%rip), %rax
 6719      000000
 6720 2630 498DBC24 		leaq	144(%r12), %rdi
 6720      90000000 
 6721 2638 488985F0 		movq	%rax, -1040(%rbp)
 6721      FBFFFF
 6722 263f 488D0500 		leaq	16+_ZTVSt9basic_iosIcSt11char_traitsIcEE(%rip), %rax
 6722      000000
 6723 2646 48898580 		movq	%rax, -896(%rbp)
 6723      FCFFFF
 6724              	.LEHB251:
 6725 264d E8000000 		call	_ZNSt8ios_baseD2Ev@PLT
 6725      00
 6726              	.LEHE251:
 6727              	.L497:
 6728 2652 488BBDF8 		movq	-1288(%rbp), %rdi
 6728      FAFFFF
 6729              	.LEHB252:
 6730 2659 E8000000 		call	_Znam@PLT
 6730      00
 6731 265e 31D2     		xorl	%edx, %edx
 6732 2660 31F6     		xorl	%esi, %esi
 6733 2662 4889DF   		movq	%rbx, %rdi
 6734 2665 4989C4   		movq	%rax, %r12
 6735 2668 E8000000 		call	_ZNSi5seekgElSt12_Ios_Seekdir@PLT
 6735      00
 6736 266d 4C89EA   		movq	%r13, %rdx
 6737 2670 4C89E6   		movq	%r12, %rsi
 6738 2673 4889DF   		movq	%rbx, %rdi
 6739 2676 E8000000 		call	_ZNSi4readEPcl@PLT
 6739      00
 6740 267b 488D7B10 		leaq	16(%rbx), %rdi
 6741 267f E8000000 		call	_ZNSt13basic_filebufIcSt11char_traitsIcEE5closeEv@PLT
 6741      00
 6742              	.LEHE252:
 6743 2684 4885C0   		testq	%rax, %rax
 6744 2687 0F84E303 		je	.L475
 6744      0000
 6745              	.L477:
 6746              	.LEHB253:
 6747 268d E8000000 		call	_ZN8UnitTest11CurrentTest7DetailsEv@PLT
 6747      00
 6748 2692 488B30   		movq	(%rax), %rsi
 6749 2695 BADF0000 		movl	$223, %edx
 6749      00
 6750 269a 4C89F7   		movq	%r14, %rdi
 6751 269d E8000000 		call	_ZN8UnitTest11TestDetailsC1ERKS0_i@PLT
 6751      00
 6752 26a2 488B85D0 		movq	-1072(%rbp), %rax
 6752      FBFFFF
 6753 26a9 4C89A570 		movq	%r12, -1168(%rbp)
 6753      FBFFFF
 6754 26b0 48898550 		movq	%rax, -1200(%rbp)
 6754      FBFFFF
 6755 26b7 E8000000 		call	_ZN8UnitTest11CurrentTest7ResultsEv@PLT
 6755      00
 6756 26bc 488D8D70 		leaq	-1168(%rbp), %rcx
 6756      FBFFFF
 6757 26c3 4C8DA550 		leaq	-1200(%rbp), %r12
 6757      FBFFFF
 6758 26ca 488B38   		movq	(%rax), %rdi
 6759 26cd 4D89F0   		movq	%r14, %r8
 6760 26d0 4889CA   		movq	%rcx, %rdx
 6761 26d3 4C89E6   		movq	%r12, %rsi
 6762 26d6 4489E9   		movl	%r13d, %ecx
 6763 26d9 E8000000 		call	_ZN8UnitTest15CheckArrayEqualIPKcS2_EEvRNS_11TestResultsERKT_RKT0_iRKNS_11TestDetailsE
 6763      00
 6764              	.LEHE253:
 6765              	.L500:
 6766 26de 31C9     		xorl	%ecx, %ecx
 6767 26e0 31D2     		xorl	%edx, %edx
 6768 26e2 BE000400 		movl	$1024, %esi
 6768      00
 6769 26e7 4C89E7   		movq	%r12, %rdi
 6770              	.LEHB254:
 6771 26ea E8000000 		call	bufInitialise@PLT
 6771      00
 6772              	.LEHE254:
 6773 26ef 898504FB 		movl	%eax, -1276(%rbp)
 6773      FFFF
 6774              	.LEHB255:
 6775 26f5 E8000000 		call	_ZN8UnitTest11CurrentTest7DetailsEv@PLT
 6775      00
 6776 26fa 488B30   		movq	(%rax), %rsi
 6777 26fd BAE20000 		movl	$226, %edx
 6777      00
 6778 2702 4C89F7   		movq	%r14, %rdi
 6779 2705 E8000000 		call	_ZN8UnitTest11TestDetailsC1ERKS0_i@PLT
 6779      00
 6780 270a C78570FB 		movl	$0, -1168(%rbp)
 6780      FFFF0000 
 6780      0000
 6781 2714 E8000000 		call	_ZN8UnitTest11CurrentTest7ResultsEv@PLT
 6781      00
 6782 2719 488D8D70 		leaq	-1168(%rbp), %rcx
 6782      FBFFFF
 6783 2720 488B38   		movq	(%rax), %rdi
 6784 2723 488D9504 		leaq	-1276(%rbp), %rdx
 6784      FBFFFF
 6785 272a 4889CE   		movq	%rcx, %rsi
 6786 272d 48898DF8 		movq	%rcx, -1288(%rbp)
 6786      FAFFFF
 6787 2734 4C89F1   		movq	%r14, %rcx
 6788 2737 E8000000 		call	_ZN8UnitTest10CheckEqualI12BufferStatusS1_EEvRNS_11TestResultsERKT_RKT0_RKNS_11TestDetailsE
 6788      00
 6789              	.LEHE255:
 6790              	.L503:
 6791 273c 488BBDF8 		movq	-1288(%rbp), %rdi
 6791      FAFFFF
 6792 2743 31C9     		xorl	%ecx, %ecx
 6793 2745 31D2     		xorl	%edx, %edx
 6794 2747 BE000400 		movl	$1024, %esi
 6794      00
 6795              	.LEHB256:
 6796 274c E8000000 		call	bufInitialise@PLT
 6796      00
 6797              	.LEHE256:
 6798 2751 898504FB 		movl	%eax, -1276(%rbp)
 6798      FFFF
 6799              	.LEHB257:
 6800 2757 E8000000 		call	_ZN8UnitTest11CurrentTest7DetailsEv@PLT
 6800      00
 6801 275c 488B30   		movq	(%rax), %rsi
 6802 275f BAE40000 		movl	$228, %edx
 6802      00
 6803 2764 4C89F7   		movq	%r14, %rdi
 6804 2767 E8000000 		call	_ZN8UnitTest11TestDetailsC1ERKS0_i@PLT
 6804      00
 6805 276c C7850CFB 		movl	$0, -1268(%rbp)
 6805      FFFF0000 
 6805      0000
 6806 2776 E8000000 		call	_ZN8UnitTest11CurrentTest7ResultsEv@PLT
 6806      00
 6807 277b 488B38   		movq	(%rax), %rdi
 6808 277e 488D9504 		leaq	-1276(%rbp), %rdx
 6808      FBFFFF
 6809 2785 488DB50C 		leaq	-1268(%rbp), %rsi
 6809      FBFFFF
 6810 278c 4C89F1   		movq	%r14, %rcx
 6811 278f E8000000 		call	_ZN8UnitTest10CheckEqualI12BufferStatusS1_EEvRNS_11TestResultsERKT_RKT0_RKNS_11TestDetailsE
 6811      00
 6812              	.LEHE257:
 6813              	.L506:
 6814 2794 488BB5F8 		movq	-1288(%rbp), %rsi
 6814      FAFFFF
 6815 279b 488D1500 		leaq	.LC39(%rip), %rdx
 6815      000000
 6816 27a2 31C9     		xorl	%ecx, %ecx
 6817 27a4 4C89E7   		movq	%r12, %rdi
 6818              	.LEHB258:
 6819 27a7 E8000000 		call	bufReadFromIntelHexFile@PLT
 6819      00
 6820              	.LEHE258:
 6821 27ac 898504FB 		movl	%eax, -1276(%rbp)
 6821      FFFF
 6822              	.LEHB259:
 6823 27b2 E8000000 		call	_ZN8UnitTest11CurrentTest7DetailsEv@PLT
 6823      00
 6824 27b7 488B30   		movq	(%rax), %rsi
 6825 27ba BAE60000 		movl	$230, %edx
 6825      00
 6826 27bf 4C89F7   		movq	%r14, %rdi
 6827 27c2 E8000000 		call	_ZN8UnitTest11TestDetailsC1ERKS0_i@PLT
 6827      00
 6828 27c7 C7850CFB 		movl	$0, -1268(%rbp)
 6828      FFFF0000 
 6828      0000
 6829 27d1 E8000000 		call	_ZN8UnitTest11CurrentTest7ResultsEv@PLT
 6829      00
 6830 27d6 488B38   		movq	(%rax), %rdi
 6831 27d9 488D9504 		leaq	-1276(%rbp), %rdx
 6831      FBFFFF
 6832 27e0 488DB50C 		leaq	-1268(%rbp), %rsi
 6832      FBFFFF
 6833 27e7 4C89F1   		movq	%r14, %rcx
 6834 27ea E8000000 		call	_ZN8UnitTest10CheckEqualI12BufferStatusS1_EEvRNS_11TestResultsERKT_RKT0_RKNS_11TestDetailsE
 6834      00
 6835              	.LEHE259:
 6836              	.L509:
 6837              	.LEHB260:
 6838 27ef E8000000 		call	_ZN8UnitTest11CurrentTest7DetailsEv@PLT
 6838      00
 6839 27f4 488B30   		movq	(%rax), %rsi
 6840 27f7 BAE70000 		movl	$231, %edx
 6840      00
 6841 27fc 4C89F7   		movq	%r14, %rdi
 6842 27ff E8000000 		call	_ZN8UnitTest11TestDetailsC1ERKS0_i@PLT
 6842      00
 6843 2804 E8000000 		call	_ZN8UnitTest11CurrentTest7ResultsEv@PLT
 6843      00
 6844 2809 488B8DE8 		movq	-1304(%rbp), %rcx
 6844      FAFFFF
 6845 2810 488B38   		movq	(%rax), %rdi
 6846 2813 498D5424 		leaq	8(%r12), %rdx
 6846      08
 6847 2818 488D7108 		leaq	8(%rcx), %rsi
 6848 281c 4C89F1   		movq	%r14, %rcx
 6849 281f E8000000 		call	_ZN8UnitTest10CheckEqualImmEEvRNS_11TestResultsERKT_RKT0_RKNS_11TestDetailsE
 6849      00
 6850              	.LEHE260:
 6851              	.L512:
 6852              	.LEHB261:
 6853 2824 E8000000 		call	_ZN8UnitTest11CurrentTest7DetailsEv@PLT
 6853      00
 6854 2829 488B30   		movq	(%rax), %rsi
 6855 282c BAE80000 		movl	$232, %edx
 6855      00
 6856 2831 4C89F7   		movq	%r14, %rdi
 6857 2834 E8000000 		call	_ZN8UnitTest11TestDetailsC1ERKS0_i@PLT
 6857      00
 6858 2839 4C8BAD18 		movq	-1256(%rbp), %r13
 6858      FBFFFF
 6859 2840 E8000000 		call	_ZN8UnitTest11CurrentTest7ResultsEv@PLT
 6859      00
 6860 2845 488BB5E8 		movq	-1304(%rbp), %rsi
 6860      FAFFFF
 6861 284c 488B38   		movq	(%rax), %rdi
 6862 284f 4D89F0   		movq	%r14, %r8
 6863 2852 4489E9   		movl	%r13d, %ecx
 6864 2855 4C89E2   		movq	%r12, %rdx
 6865 2858 E8000000 		call	_ZN8UnitTest15CheckArrayEqualIPhS1_EEvRNS_11TestResultsERKT_RKT0_iRKNS_11TestDetailsE
 6865      00
 6866              	.LEHE261:
 6867              	.L515:
 6868              	.LEHB262:
 6869 285d E8000000 		call	_ZN8UnitTest11CurrentTest7DetailsEv@PLT
 6869      00
 6870 2862 488B30   		movq	(%rax), %rsi
 6871 2865 BAE90000 		movl	$233, %edx
 6871      00
 6872 286a 4C89F7   		movq	%r14, %rdi
 6873 286d E8000000 		call	_ZN8UnitTest11TestDetailsC1ERKS0_i@PLT
 6873      00
 6874 2872 E8000000 		call	_ZN8UnitTest11CurrentTest7ResultsEv@PLT
 6874      00
 6875 2877 488B8DF8 		movq	-1288(%rbp), %rcx
 6875      FAFFFF
 6876 287e 488B38   		movq	(%rax), %rdi
 6877 2881 488D5108 		leaq	8(%rcx), %rdx
 6878 2885 488B8DE0 		movq	-1312(%rbp), %rcx
 6878      FAFFFF
 6879 288c 488D7108 		leaq	8(%rcx), %rsi
 6880 2890 4C89F1   		movq	%r14, %rcx
 6881 2893 E8000000 		call	_ZN8UnitTest10CheckEqualImmEEvRNS_11TestResultsERKT_RKT0_RKNS_11TestDetailsE
 6881      00
 6882              	.LEHE262:
 6883              	.L518:
 6884              	.LEHB263:
 6885 2898 E8000000 		call	_ZN8UnitTest11CurrentTest7DetailsEv@PLT
 6885      00
 6886 289d 488B30   		movq	(%rax), %rsi
 6887 28a0 BAEA0000 		movl	$234, %edx
 6887      00
 6888 28a5 4C89F7   		movq	%r14, %rdi
 6889 28a8 E8000000 		call	_ZN8UnitTest11TestDetailsC1ERKS0_i@PLT
 6889      00
 6890 28ad 4C8BAD38 		movq	-1224(%rbp), %r13
 6890      FBFFFF
 6891 28b4 E8000000 		call	_ZN8UnitTest11CurrentTest7ResultsEv@PLT
 6891      00
 6892 28b9 488B95F8 		movq	-1288(%rbp), %rdx
 6892      FAFFFF
 6893 28c0 488BB5E0 		movq	-1312(%rbp), %rsi
 6893      FAFFFF
 6894 28c7 4D89F0   		movq	%r14, %r8
 6895 28ca 488B38   		movq	(%rax), %rdi
 6896 28cd 4489E9   		movl	%r13d, %ecx
 6897 28d0 E8000000 		call	_ZN8UnitTest15CheckArrayEqualIPhS1_EEvRNS_11TestResultsERKT_RKT0_iRKNS_11TestDetailsE
 6897      00
 6898              	.LEHE263:
 6899              	.L521:
 6900 28d5 488BBDF8 		movq	-1288(%rbp), %rdi
 6900      FAFFFF
 6901              	.LEHB264:
 6902 28dc E8000000 		call	bufDestroy@PLT
 6902      00
 6903 28e1 4C89E7   		movq	%r12, %rdi
 6904 28e4 E8000000 		call	bufDestroy@PLT
 6904      00
 6905 28e9 488BBDE0 		movq	-1312(%rbp), %rdi
 6905      FAFFFF
 6906 28f0 E8000000 		call	bufDestroy@PLT
 6906      00
 6907 28f5 488BBDE8 		movq	-1304(%rbp), %rdi
 6907      FAFFFF
 6908 28fc E8000000 		call	bufDestroy@PLT
 6908      00
 6909              	.LEHE264:
 6910 2901 488D0500 		leaq	24+_ZTVSt14basic_ifstreamIcSt11char_traitsIcEE(%rip), %rax
 6910      000000
 6911 2908 488D7B10 		leaq	16(%rbx), %rdi
 6912 290c 48898590 		movq	%rax, -624(%rbp)
 6912      FDFFFF
 6913 2913 4883C028 		addq	$40, %rax
 6914 2917 48898590 		movq	%rax, -368(%rbp)
 6914      FEFFFF
 6915 291e 488D0500 		leaq	16+_ZTVSt13basic_filebufIcSt11char_traitsIcEE(%rip), %rax
 6915      000000
 6916 2925 488985A0 		movq	%rax, -608(%rbp)
 6916      FDFFFF
 6917              	.LEHB265:
 6918 292c E8000000 		call	_ZNSt13basic_filebufIcSt11char_traitsIcEE5closeEv@PLT
 6918      00
 6919              	.LEHE265:
 6920 2931 488D7B78 		leaq	120(%rbx), %rdi
 6921              	.LEHB266:
 6922 2935 E8000000 		call	_ZNSt12__basic_fileIcED1Ev@PLT
 6922      00
 6923              	.LEHE266:
 6924 293a 488D0500 		leaq	16+_ZTVSt15basic_streambufIcSt11char_traitsIcEE(%rip), %rax
 6924      000000
 6925 2941 488D7B48 		leaq	72(%rbx), %rdi
 6926 2945 488985A0 		movq	%rax, -608(%rbp)
 6926      FDFFFF
 6927 294c E8000000 		call	_ZNSt6localeD1Ev@PLT
 6927      00
 6928 2951 498B47E8 		movq	-24(%r15), %rax
 6929 2955 488B0D00 		movq	16+_ZTTSt14basic_ifstreamIcSt11char_traitsIcEE(%rip), %rcx
 6929      000000
 6930 295c 488DBB00 		leaq	256(%rbx), %rdi
 6930      010000
 6931 2963 4C89BD90 		movq	%r15, -624(%rbp)
 6931      FDFFFF
 6932 296a 48898C05 		movq	%rcx, -624(%rbp,%rax)
 6932      90FDFFFF 
 6933 2972 488D0500 		leaq	16+_ZTVSt9basic_iosIcSt11char_traitsIcEE(%rip), %rax
 6933      000000
 6934 2979 48C78598 		movq	$0, -616(%rbp)
 6934      FDFFFF00 
 6934      000000
 6935 2984 48898590 		movq	%rax, -368(%rbp)
 6935      FEFFFF
 6936              	.LEHB267:
 6937 298b E8000000 		call	_ZNSt8ios_baseD2Ev@PLT
 6937      00
 6938 2990 488B85F0 		movq	-1296(%rbp), %rax
 6938      FAFFFF
 6939 2997 488BBDD0 		movq	-1072(%rbp), %rdi
 6939      FBFFFF
 6940 299e 4883C010 		addq	$16, %rax
 6941 29a2 4839C7   		cmpq	%rax, %rdi
 6942 29a5 7405     		je	.L447
 6943 29a7 E8000000 		call	_ZdlPv@PLT
 6943      00
 6944              	.L447:
 6945 29ac 488B4598 		movq	-104(%rbp), %rax
 6946 29b0 64483304 		xorq	%fs:40, %rax
 6946      25280000 
 6946      00
 6947 29b9 0F850201 		jne	.L579
 6947      0000
 6948 29bf 488D65D8 		leaq	-40(%rbp), %rsp
 6949 29c3 5B       		popq	%rbx
 6950 29c4 415C     		popq	%r12
 6951 29c6 415D     		popq	%r13
 6952 29c8 415E     		popq	%r14
 6953 29ca 415F     		popq	%r15
 6954 29cc 5D       		popq	%rbp
 6955              		.cfi_remember_state
 6956              		.cfi_def_cfa 7, 8
 6957 29cd C3       		ret
 6958              	.L452:
 6959              		.cfi_restore_state
 6960 29ce 488B85C0 		movq	-1088(%rbp), %rax
 6960      FBFFFF
 6961 29d5 488B18   		movq	(%rax), %rbx
 6962 29d8 488D5008 		leaq	8(%rax), %rdx
 6963 29dc 488995C0 		movq	%rdx, -1088(%rbp)
 6963      FBFFFF
 6964 29e3 4885DB   		testq	%rbx, %rbx
 6965 29e6 0F85D4F6 		jne	.L448
 6965      FFFF
 6966 29ec E9EFF7FF 		jmp	.L453
 6966      FF
 6967              		.p2align 4,,10
 6968 29f1 0F1F8000 		.p2align 3
 6968      000000
 6969              	.L575:
 6970 29f8 488BBDF0 		movq	-1296(%rbp), %rdi
 6970      FAFFFF
 6971 29ff 41B80100 		movl	$1, %r8d
 6971      0000
 6972 2a05 31C9     		xorl	%ecx, %ecx
 6973 2a07 31D2     		xorl	%edx, %edx
 6974 2a09 4889DE   		movq	%rbx, %rsi
 6975 2a0c E8000000 		call	_ZNSt7__cxx1112basic_stringIcSt11char_traitsIcESaIcEE9_M_mutateEmmPKcm@PLT
 6975      00
 6976              	.LEHE267:
 6977 2a11 488B85D0 		movq	-1072(%rbp), %rax
 6977      FBFFFF
 6978 2a18 E974F7FF 		jmp	.L451
 6978      FF
 6979 2a1d 0F1F00   		.p2align 4,,10
 6980              		.p2align 3
 6981              	.L578:
 6982              	.LEHB268:
 6983 2a20 E8000000 		call	_ZN8UnitTest11CurrentTest7ResultsEv@PLT
 6983      00
 6984 2a25 488B00   		movq	(%rax), %rax
 6985 2a28 4989C5   		movq	%rax, %r13
 6986 2a2b E8000000 		call	_ZN8UnitTest11CurrentTest7DetailsEv@PLT
 6986      00
 6987 2a30 488B30   		movq	(%rax), %rsi
 6988 2a33 BAD80000 		movl	$216, %edx
 6988      00
 6989 2a38 4C89F7   		movq	%r14, %rdi
 6990 2a3b E8000000 		call	_ZN8UnitTest11TestDetailsC1ERKS0_i@PLT
 6990      00
 6991 2a40 488D1500 		leaq	.LC40(%rip), %rdx
 6991      000000
 6992 2a47 4C89F6   		movq	%r14, %rsi
 6993 2a4a 4C89EF   		movq	%r13, %rdi
 6994 2a4d E8000000 		call	_ZN8UnitTest11TestResults13OnTestFailureERKNS_11TestDetailsEPKc@PLT
 6994      00
 6995              	.LEHE268:
 6996 2a52 E934F9FF 		jmp	.L465
 6996      FF
 6997 2a57 660F1F84 		.p2align 4,,10
 6997      00000000 
 6997      00
 6998              		.p2align 3
 6999              	.L577:
 7000 2a60 8B7720   		movl	32(%rdi), %esi
 7001 2a63 83CE04   		orl	$4, %esi
 7002              	.LEHB269:
 7003 2a66 E8000000 		call	_ZNSt9basic_iosIcSt11char_traitsIcEE5clearESt12_Ios_Iostate@PLT
 7003      00
 7004 2a6b E90AF9FF 		jmp	.L464
 7004      FF
 7005              		.p2align 4,,10
 7006              		.p2align 3
 7007              	.L475:
 7008 2a70 488B8590 		movq	-624(%rbp), %rax
 7008      FDFFFF
 7009 2a77 488B78E8 		movq	-24(%rax), %rdi
 7010 2a7b 4801DF   		addq	%rbx, %rdi
 7011 2a7e 8B7720   		movl	32(%rdi), %esi
 7012 2a81 83CE04   		orl	$4, %esi
 7013 2a84 E8000000 		call	_ZNSt9basic_iosIcSt11char_traitsIcEE5clearESt12_Ios_Iostate@PLT
 7013      00
 7014              	.LEHE269:
 7015 2a89 E9FFFBFF 		jmp	.L477
 7015      FF
 7016              	.L574:
 7017 2a8e 488D3D00 		leaq	.LC38(%rip), %rdi
 7017      000000
 7018              	.LEHB270:
 7019 2a95 E8000000 		call	_ZSt20__throw_length_errorPKc@PLT
 7019      00
 7020              	.LEHE270:
 7021              	.L526:
 7022 2a9a 4889C3   		movq	%rax, %rbx
 7023              	.L460:
 7024 2a9d 488B95F0 		movq	-1296(%rbp), %rdx
 7024      FAFFFF
 7025 2aa4 488BBDD0 		movq	-1072(%rbp), %rdi
 7025      FBFFFF
 7026 2aab 4883C210 		addq	$16, %rdx
 7027 2aaf 4839D7   		cmpq	%rdx, %rdi
 7028 2ab2 7405     		je	.L523
 7029 2ab4 E8000000 		call	_ZdlPv@PLT
 7029      00
 7030              	.L523:
 7031 2ab9 4889DF   		movq	%rbx, %rdi
 7032              	.LEHB271:
 7033 2abc E8000000 		call	_Unwind_Resume@PLT
 7033      00
 7034              	.LEHE271:
 7035              	.L579:
 7036 2ac1 E8000000 		call	__stack_chk_fail@PLT
 7036      00
 7037              	.L576:
 7038 2ac6 488D3D00 		leaq	.LC38(%rip), %rdi
 7038      000000
 7039              	.LEHB272:
 7040 2acd E8000000 		call	_ZSt20__throw_length_errorPKc@PLT
 7040      00
 7041              	.LEHE272:
 7042              	.L558:
 7043 2ad2 488D7B10 		leaq	16(%rbx), %rdi
 7044 2ad6 4989C6   		movq	%rax, %r14
 7045 2ad9 E8000000 		call	_ZNSt13basic_filebufIcSt11char_traitsIcEED1Ev@PLT
 7045      00
 7046 2ade 4C89F6   		movq	%r14, %rsi
 7047              	.L458:
 7048 2ae1 498B47E8 		movq	-24(%r15), %rax
 7049 2ae5 488B0D00 		movq	16+_ZTTSt14basic_ifstreamIcSt11char_traitsIcEE(%rip), %rcx
 7049      000000
 7050 2aec 4C89BD90 		movq	%r15, -624(%rbp)
 7050      FDFFFF
 7051 2af3 4989F7   		movq	%rsi, %r15
 7052 2af6 48898C05 		movq	%rcx, -624(%rbp,%rax)
 7052      90FDFFFF 
 7053 2afe 48C78598 		movq	$0, -616(%rbp)
 7053      FDFFFF00 
 7053      000000
 7054              	.L459:
 7055 2b09 488D0500 		leaq	16+_ZTVSt9basic_iosIcSt11char_traitsIcEE(%rip), %rax
 7055      000000
 7056 2b10 488DBB00 		leaq	256(%rbx), %rdi
 7056      010000
 7057 2b17 4C89FB   		movq	%r15, %rbx
 7058 2b1a 48898590 		movq	%rax, -368(%rbp)
 7058      FEFFFF
 7059 2b21 E8000000 		call	_ZNSt8ios_baseD2Ev@PLT
 7059      00
 7060 2b26 E972FFFF 		jmp	.L460
 7060      FF
 7061              	.L557:
 7062 2b2b 4889C6   		movq	%rax, %rsi
 7063 2b2e EBB1     		jmp	.L458
 7064              	.L556:
 7065 2b30 4989C7   		movq	%rax, %r15
 7066 2b33 EBD4     		jmp	.L459
 7067              	.L533:
 7068 2b35 4889C7   		movq	%rax, %rdi
 7069 2b38 E8000000 		call	__cxa_begin_catch@PLT
 7069      00
 7070              	.LEHB273:
 7071 2b3d E8000000 		call	_ZN8UnitTest11CurrentTest7ResultsEv@PLT
 7071      00
 7072 2b42 488B18   		movq	(%rax), %rbx
 7073 2b45 E8000000 		call	_ZN8UnitTest11CurrentTest7DetailsEv@PLT
 7073      00
 7074 2b4a 488B30   		movq	(%rax), %rsi
 7075 2b4d BAD30000 		movl	$211, %edx
 7075      00
 7076 2b52 4C89F7   		movq	%r14, %rdi
 7077 2b55 E8000000 		call	_ZN8UnitTest11TestDetailsC1ERKS0_i@PLT
 7077      00
 7078 2b5a 488D1500 		leaq	.LC5(%rip), %rdx
 7078      000000
 7079 2b61 4C89F6   		movq	%r14, %rsi
 7080 2b64 4889DF   		movq	%rbx, %rdi
 7081 2b67 E8000000 		call	_ZN8UnitTest11TestResults13OnTestFailureERKNS_11TestDetailsEPKc@PLT
 7081      00
 7082              	.LEHE273:
 7083              	.LEHB274:
 7084 2b6c E8000000 		call	__cxa_end_catch@PLT
 7084      00
 7085              	.LEHE274:
 7086 2b71 E908F7FF 		jmp	.L492
 7086      FF
 7087              	.L559:
 7088 2b76 4C89E7   		movq	%r12, %rdi
 7089 2b79 488985F8 		movq	%rax, -1288(%rbp)
 7089      FAFFFF
 7090 2b80 E8000000 		call	_ZN8UnitTest15MemoryOutStreamD1Ev
 7090      00
 7091 2b85 488B85F8 		movq	-1288(%rbp), %rax
 7091      FAFFFF
 7092              	.L471:
 7093 2b8c 4889C7   		movq	%rax, %rdi
 7094 2b8f E8000000 		call	__cxa_begin_catch@PLT
 7094      00
 7095              	.LEHB275:
 7096 2b94 E8000000 		call	_ZN8UnitTest11CurrentTest7ResultsEv@PLT
 7096      00
 7097 2b99 488B00   		movq	(%rax), %rax
 7098 2b9c 4989C4   		movq	%rax, %r12
 7099 2b9f E8000000 		call	_ZN8UnitTest11CurrentTest7DetailsEv@PLT
 7099      00
 7100 2ba4 488B30   		movq	(%rax), %rsi
 7101 2ba7 BADA0000 		movl	$218, %edx
 7101      00
 7102 2bac 4C89F7   		movq	%r14, %rdi
 7103 2baf E8000000 		call	_ZN8UnitTest11TestDetailsC1ERKS0_i@PLT
 7103      00
 7104 2bb4 488D1500 		leaq	.LC42(%rip), %rdx
 7104      000000
 7105 2bbb 4C89F6   		movq	%r14, %rsi
 7106 2bbe 4C89E7   		movq	%r12, %rdi
 7107 2bc1 E8000000 		call	_ZN8UnitTest11TestResults13OnTestFailureERKNS_11TestDetailsEPKc@PLT
 7107      00
 7108              	.LEHE275:
 7109              	.LEHB276:
 7110 2bc6 E8000000 		call	__cxa_end_catch@PLT
 7110      00
 7111              	.LEHE276:
 7112 2bcb 4489E8   		movl	%r13d, %eax
 7113 2bce 488985F8 		movq	%rax, -1288(%rbp)
 7113      FAFFFF
 7114 2bd5 E978FAFF 		jmp	.L497
 7114      FF
 7115              	.L527:
 7116 2bda 4889C7   		movq	%rax, %rdi
 7117 2bdd E8000000 		call	__cxa_begin_catch@PLT
 7117      00
 7118              	.LEHB277:
 7119 2be2 E8000000 		call	_ZN8UnitTest11CurrentTest7ResultsEv@PLT
 7119      00
 7120 2be7 488B00   		movq	(%rax), %rax
 7121 2bea 4989C7   		movq	%rax, %r15
 7122 2bed E8000000 		call	_ZN8UnitTest11CurrentTest7DetailsEv@PLT
 7122      00
 7123 2bf2 4C8DB590 		leaq	-1136(%rbp), %r14
 7123      FBFFFF
 7124 2bf9 488B30   		movq	(%rax), %rsi
 7125 2bfc BAC40000 		movl	$196, %edx
 7125      00
 7126 2c01 4C89F7   		movq	%r14, %rdi
 7127 2c04 E8000000 		call	_ZN8UnitTest11TestDetailsC1ERKS0_i@PLT
 7127      00
 7128 2c09 488D1500 		leaq	.LC5(%rip), %rdx
 7128      000000
 7129 2c10 4C89F6   		movq	%r14, %rsi
 7130 2c13 4C89FF   		movq	%r15, %rdi
 7131 2c16 E8000000 		call	_ZN8UnitTest11TestResults13OnTestFailureERKNS_11TestDetailsEPKc@PLT
 7131      00
 7132              	.LEHE277:
 7133              	.LEHB278:
 7134 2c1b E8000000 		call	__cxa_end_catch@PLT
 7134      00
 7135              	.LEHE278:
 7136 2c20 E9C6F3FF 		jmp	.L483
 7136      FF
 7137              	.L539:
 7138 2c25 4989C7   		movq	%rax, %r15
 7139 2c28 E8000000 		call	__cxa_end_catch@PLT
 7139      00
 7140              	.L496:
 7141 2c2d 4889DF   		movq	%rbx, %rdi
 7142 2c30 4C89FB   		movq	%r15, %rbx
 7143 2c33 E8000000 		call	_ZNSt14basic_ifstreamIcSt11char_traitsIcEED1Ev@PLT
 7143      00
 7144 2c38 E960FEFF 		jmp	.L460
 7144      FF
 7145              	.L528:
 7146 2c3d 4889C3   		movq	%rax, %rbx
 7147 2c40 E8000000 		call	__cxa_end_catch@PLT
 7147      00
 7148 2c45 E953FEFF 		jmp	.L460
 7148      FF
 7149              	.L561:
 7150 2c4a 498D7C24 		leaq	8(%r12), %rdi
 7150      08
 7151 2c4f 488985F8 		movq	%rax, -1288(%rbp)
 7151      FAFFFF
 7152 2c56 E8000000 		call	_ZNSt7__cxx1115basic_stringbufIcSt11char_traitsIcESaIcEED1Ev
 7152      00
 7153 2c5b 488D0D00 		leaq	24+_ZTCN8UnitTest15MemoryOutStreamE0_So(%rip), %rcx
 7153      000000
 7154 2c62 48898DF0 		movq	%rcx, -1040(%rbp)
 7154      FBFFFF
 7155              	.L469:
 7156 2c69 488D0500 		leaq	16+_ZTVSt9basic_iosIcSt11char_traitsIcEE(%rip), %rax
 7156      000000
 7157 2c70 498DBC24 		leaq	144(%r12), %rdi
 7157      90000000 
 7158 2c78 48898580 		movq	%rax, -896(%rbp)
 7158      FCFFFF
 7159 2c7f E8000000 		call	_ZNSt8ios_baseD2Ev@PLT
 7159      00
 7160 2c84 488B85F8 		movq	-1288(%rbp), %rax
 7160      FAFFFF
 7161 2c8b E9FCFEFF 		jmp	.L471
 7161      FF
 7162              	.L534:
 7163 2c90 4889C3   		movq	%rax, %rbx
 7164 2c93 E8000000 		call	__cxa_end_catch@PLT
 7164      00
 7165 2c98 E900FEFF 		jmp	.L460
 7165      FF
 7166              	.L531:
 7167 2c9d 4889C7   		movq	%rax, %rdi
 7168 2ca0 E8000000 		call	__cxa_begin_catch@PLT
 7168      00
 7169              	.LEHB279:
 7170 2ca5 E8000000 		call	_ZN8UnitTest11CurrentTest7ResultsEv@PLT
 7170      00
 7171 2caa 488B00   		movq	(%rax), %rax
 7172 2cad 488985F8 		movq	%rax, -1288(%rbp)
 7172      FAFFFF
 7173 2cb4 E8000000 		call	_ZN8UnitTest11CurrentTest7DetailsEv@PLT
 7173      00
 7174 2cb9 488B30   		movq	(%rax), %rsi
 7175 2cbc BACB0000 		movl	$203, %edx
 7175      00
 7176 2cc1 4C89F7   		movq	%r14, %rdi
 7177 2cc4 E8000000 		call	_ZN8UnitTest11TestDetailsC1ERKS0_i@PLT
 7177      00
 7178 2cc9 488BBDF8 		movq	-1288(%rbp), %rdi
 7178      FAFFFF
 7179 2cd0 488D1500 		leaq	.LC5(%rip), %rdx
 7179      000000
 7180 2cd7 4C89F6   		movq	%r14, %rsi
 7181 2cda E8000000 		call	_ZN8UnitTest11TestResults13OnTestFailureERKNS_11TestDetailsEPKc@PLT
 7181      00
 7182              	.LEHE279:
 7183              	.LEHB280:
 7184 2cdf E8000000 		call	__cxa_end_catch@PLT
 7184      00
 7185              	.LEHE280:
 7186 2ce4 E940F4FF 		jmp	.L489
 7186      FF
 7187              	.L529:
 7188 2ce9 4889C7   		movq	%rax, %rdi
 7189 2cec E8000000 		call	__cxa_begin_catch@PLT
 7189      00
 7190              	.LEHB281:
 7191 2cf1 E8000000 		call	_ZN8UnitTest11CurrentTest7ResultsEv@PLT
 7191      00
 7192 2cf6 488B00   		movq	(%rax), %rax
 7193 2cf9 4989C7   		movq	%rax, %r15
 7194 2cfc E8000000 		call	_ZN8UnitTest11CurrentTest7DetailsEv@PLT
 7194      00
 7195 2d01 488B30   		movq	(%rax), %rsi
 7196 2d04 BAC60000 		movl	$198, %edx
 7196      00
 7197 2d09 4C89F7   		movq	%r14, %rdi
 7198 2d0c E8000000 		call	_ZN8UnitTest11TestDetailsC1ERKS0_i@PLT
 7198      00
 7199 2d11 488D1500 		leaq	.LC5(%rip), %rdx
 7199      000000
 7200 2d18 4C89F6   		movq	%r14, %rsi
 7201 2d1b 4C89FF   		movq	%r15, %rdi
 7202 2d1e E8000000 		call	_ZN8UnitTest11TestResults13OnTestFailureERKNS_11TestDetailsEPKc@PLT
 7202      00
 7203              	.LEHE281:
 7204              	.LEHB282:
 7205 2d23 E8000000 		call	__cxa_end_catch@PLT
 7205      00
 7206              	.LEHE282:
 7207 2d28 E923F3FF 		jmp	.L486
 7207      FF
 7208              	.L532:
 7209 2d2d 4889C3   		movq	%rax, %rbx
 7210 2d30 E8000000 		call	__cxa_end_catch@PLT
 7210      00
 7211 2d35 E963FDFF 		jmp	.L460
 7211      FF
 7212              	.L530:
 7213 2d3a 4889C3   		movq	%rax, %rbx
 7214 2d3d E8000000 		call	__cxa_end_catch@PLT
 7214      00
 7215 2d42 E956FDFF 		jmp	.L460
 7215      FF
 7216              	.L548:
 7217 2d47 4889C7   		movq	%rax, %rdi
 7218 2d4a E8000000 		call	__cxa_begin_catch@PLT
 7218      00
 7219              	.LEHB283:
 7220 2d4f E8000000 		call	_ZN8UnitTest11CurrentTest7ResultsEv@PLT
 7220      00
 7221 2d54 4C8B28   		movq	(%rax), %r13
 7222 2d57 E8000000 		call	_ZN8UnitTest11CurrentTest7DetailsEv@PLT
 7222      00
 7223 2d5c 488B30   		movq	(%rax), %rsi
 7224 2d5f BAE70000 		movl	$231, %edx
 7224      00
 7225 2d64 4C89F7   		movq	%r14, %rdi
 7226 2d67 E8000000 		call	_ZN8UnitTest11TestDetailsC1ERKS0_i@PLT
 7226      00
 7227 2d6c 488D1500 		leaq	.LC44(%rip), %rdx
 7227      000000
 7228 2d73 4C89F6   		movq	%r14, %rsi
 7229 2d76 4C89EF   		movq	%r13, %rdi
 7230 2d79 E8000000 		call	_ZN8UnitTest11TestResults13OnTestFailureERKNS_11TestDetailsEPKc@PLT
 7230      00
 7231              	.LEHE283:
 7232              	.LEHB284:
 7233 2d7e E8000000 		call	__cxa_end_catch@PLT
 7233      00
 7234              	.LEHE284:
 7235 2d83 E99CFAFF 		jmp	.L512
 7235      FF
 7236              	.L546:
 7237 2d88 4889C7   		movq	%rax, %rdi
 7238 2d8b E8000000 		call	__cxa_begin_catch@PLT
 7238      00
 7239              	.LEHB285:
 7240 2d90 E8000000 		call	_ZN8UnitTest11CurrentTest7ResultsEv@PLT
 7240      00
 7241 2d95 4C8B28   		movq	(%rax), %r13
 7242 2d98 E8000000 		call	_ZN8UnitTest11CurrentTest7DetailsEv@PLT
 7242      00
 7243 2d9d 488B30   		movq	(%rax), %rsi
 7244 2da0 BAE60000 		movl	$230, %edx
 7244      00
 7245 2da5 4C89F7   		movq	%r14, %rdi
 7246 2da8 E8000000 		call	_ZN8UnitTest11TestDetailsC1ERKS0_i@PLT
 7246      00
 7247 2dad 488D1500 		leaq	.LC5(%rip), %rdx
 7247      000000
 7248 2db4 4C89F6   		movq	%r14, %rsi
 7249 2db7 4C89EF   		movq	%r13, %rdi
 7250 2dba E8000000 		call	_ZN8UnitTest11TestResults13OnTestFailureERKNS_11TestDetailsEPKc@PLT
 7250      00
 7251              	.LEHE285:
 7252              	.LEHB286:
 7253 2dbf E8000000 		call	__cxa_end_catch@PLT
 7253      00
 7254              	.LEHE286:
 7255 2dc4 E926FAFF 		jmp	.L509
 7255      FF
 7256              	.L549:
 7257 2dc9 4989C7   		movq	%rax, %r15
 7258 2dcc E8000000 		call	__cxa_end_catch@PLT
 7258      00
 7259 2dd1 E957FEFF 		jmp	.L496
 7259      FF
 7260              	.L547:
 7261 2dd6 4989C7   		movq	%rax, %r15
 7262 2dd9 E8000000 		call	__cxa_end_catch@PLT
 7262      00
 7263 2dde E94AFEFF 		jmp	.L496
 7263      FF
 7264              	.L563:
 7265 2de3 488D7B78 		leaq	120(%rbx), %rdi
 7266 2de7 4989C6   		movq	%rax, %r14
 7267 2dea E8000000 		call	_ZNSt12__basic_fileIcED1Ev@PLT
 7267      00
 7268              	.L480:
 7269 2def 488D0500 		leaq	16+_ZTVSt15basic_streambufIcSt11char_traitsIcEE(%rip), %rax
 7269      000000
 7270 2df6 488D7B48 		leaq	72(%rbx), %rdi
 7271 2dfa 488985A0 		movq	%rax, -608(%rbp)
 7271      FDFFFF
 7272 2e01 E8000000 		call	_ZNSt6localeD1Ev@PLT
 7272      00
 7273 2e06 498B47E8 		movq	-24(%r15), %rax
 7274 2e0a 488B0D00 		movq	16+_ZTTSt14basic_ifstreamIcSt11char_traitsIcEE(%rip), %rcx
 7274      000000
 7275 2e11 488DBB00 		leaq	256(%rbx), %rdi
 7275      010000
 7276 2e18 4C89BD90 		movq	%r15, -624(%rbp)
 7276      FDFFFF
 7277 2e1f 4C89F3   		movq	%r14, %rbx
 7278 2e22 48898C05 		movq	%rcx, -624(%rbp,%rax)
 7278      90FDFFFF 
 7279 2e2a 488D0500 		leaq	16+_ZTVSt9basic_iosIcSt11char_traitsIcEE(%rip), %rax
 7279      000000
 7280 2e31 48C78598 		movq	$0, -616(%rbp)
 7280      FDFFFF00 
 7280      000000
 7281 2e3c 48898590 		movq	%rax, -368(%rbp)
 7281      FEFFFF
 7282 2e43 E8000000 		call	_ZNSt8ios_baseD2Ev@PLT
 7282      00
 7283 2e48 E950FCFF 		jmp	.L460
 7283      FF
 7284              	.L554:
 7285 2e4d 4889C7   		movq	%rax, %rdi
 7286 2e50 E8000000 		call	__cxa_begin_catch@PLT
 7286      00
 7287              	.LEHB287:
 7288 2e55 E8000000 		call	_ZN8UnitTest11CurrentTest7ResultsEv@PLT
 7288      00
 7289 2e5a 4C8B28   		movq	(%rax), %r13
 7290 2e5d E8000000 		call	_ZN8UnitTest11CurrentTest7DetailsEv@PLT
 7290      00
 7291 2e62 488B30   		movq	(%rax), %rsi
 7292 2e65 BAEA0000 		movl	$234, %edx
 7292      00
 7293 2e6a 4C89F7   		movq	%r14, %rdi
 7294 2e6d E8000000 		call	_ZN8UnitTest11TestDetailsC1ERKS0_i@PLT
 7294      00
 7295 2e72 488D1500 		leaq	.LC47(%rip), %rdx
 7295      000000
 7296 2e79 4C89F6   		movq	%r14, %rsi
 7297 2e7c 4C89EF   		movq	%r13, %rdi
 7298 2e7f E8000000 		call	_ZN8UnitTest11TestResults13OnTestFailureERKNS_11TestDetailsEPKc@PLT
 7298      00
 7299              	.LEHE287:
 7300              	.LEHB288:
 7301 2e84 E8000000 		call	__cxa_end_catch@PLT
 7301      00
 7302              	.LEHE288:
 7303 2e89 E947FAFF 		jmp	.L521
 7303      FF
 7304              	.L552:
 7305 2e8e 4889C7   		movq	%rax, %rdi
 7306 2e91 E8000000 		call	__cxa_begin_catch@PLT
 7306      00
 7307              	.LEHB289:
 7308 2e96 E8000000 		call	_ZN8UnitTest11CurrentTest7ResultsEv@PLT
 7308      00
 7309 2e9b 4C8B28   		movq	(%rax), %r13
 7310 2e9e E8000000 		call	_ZN8UnitTest11CurrentTest7DetailsEv@PLT
 7310      00
 7311 2ea3 488B30   		movq	(%rax), %rsi
 7312 2ea6 BAE90000 		movl	$233, %edx
 7312      00
 7313 2eab 4C89F7   		movq	%r14, %rdi
 7314 2eae E8000000 		call	_ZN8UnitTest11TestDetailsC1ERKS0_i@PLT
 7314      00
 7315 2eb3 488D1500 		leaq	.LC46(%rip), %rdx
 7315      000000
 7316 2eba 4C89F6   		movq	%r14, %rsi
 7317 2ebd 4C89EF   		movq	%r13, %rdi
 7318 2ec0 E8000000 		call	_ZN8UnitTest11TestResults13OnTestFailureERKNS_11TestDetailsEPKc@PLT
 7318      00
 7319              	.LEHE289:
 7320              	.LEHB290:
 7321 2ec5 E8000000 		call	__cxa_end_catch@PLT
 7321      00
 7322              	.LEHE290:
 7323 2eca E9C9F9FF 		jmp	.L518
 7323      FF
 7324              	.L550:
 7325 2ecf 4889C7   		movq	%rax, %rdi
 7326 2ed2 E8000000 		call	__cxa_begin_catch@PLT
 7326      00
 7327              	.LEHB291:
 7328 2ed7 E8000000 		call	_ZN8UnitTest11CurrentTest7ResultsEv@PLT
 7328      00
 7329 2edc 4C8B28   		movq	(%rax), %r13
 7330 2edf E8000000 		call	_ZN8UnitTest11CurrentTest7DetailsEv@PLT
 7330      00
 7331 2ee4 488B30   		movq	(%rax), %rsi
 7332 2ee7 BAE80000 		movl	$232, %edx
 7332      00
 7333 2eec 4C89F7   		movq	%r14, %rdi
 7334 2eef E8000000 		call	_ZN8UnitTest11TestDetailsC1ERKS0_i@PLT
 7334      00
 7335 2ef4 488D1500 		leaq	.LC45(%rip), %rdx
 7335      000000
 7336 2efb 4C89F6   		movq	%r14, %rsi
 7337 2efe 4C89EF   		movq	%r13, %rdi
 7338 2f01 E8000000 		call	_ZN8UnitTest11TestResults13OnTestFailureERKNS_11TestDetailsEPKc@PLT
 7338      00
 7339              	.LEHE291:
 7340              	.LEHB292:
 7341 2f06 E8000000 		call	__cxa_end_catch@PLT
 7341      00
 7342              	.LEHE292:
 7343 2f0b E94DF9FF 		jmp	.L515
 7343      FF
 7344              	.L555:
 7345 2f10 4989C7   		movq	%rax, %r15
 7346 2f13 E8000000 		call	__cxa_end_catch@PLT
 7346      00
 7347 2f18 E910FDFF 		jmp	.L496
 7347      FF
 7348              	.L553:
 7349 2f1d 4989C7   		movq	%rax, %r15
 7350 2f20 E8000000 		call	__cxa_end_catch@PLT
 7350      00
 7351 2f25 E903FDFF 		jmp	.L496
 7351      FF
 7352              	.L551:
 7353 2f2a 4989C7   		movq	%rax, %r15
 7354 2f2d E8000000 		call	__cxa_end_catch@PLT
 7354      00
 7355 2f32 E9F6FCFF 		jmp	.L496
 7355      FF
 7356              	.L535:
 7357 2f37 4989C7   		movq	%rax, %r15
 7358 2f3a E9EEFCFF 		jmp	.L496
 7358      FF
 7359              	.L540:
 7360 2f3f 4889C7   		movq	%rax, %rdi
 7361 2f42 E8000000 		call	__cxa_begin_catch@PLT
 7361      00
 7362              	.LEHB293:
 7363 2f47 E8000000 		call	_ZN8UnitTest11CurrentTest7ResultsEv@PLT
 7363      00
 7364 2f4c 488B00   		movq	(%rax), %rax
 7365 2f4f 4989C5   		movq	%rax, %r13
 7366 2f52 E8000000 		call	_ZN8UnitTest11CurrentTest7DetailsEv@PLT
 7366      00
 7367 2f57 488B30   		movq	(%rax), %rsi
 7368 2f5a BADF0000 		movl	$223, %edx
 7368      00
 7369 2f5f 4C89F7   		movq	%r14, %rdi
 7370 2f62 E8000000 		call	_ZN8UnitTest11TestDetailsC1ERKS0_i@PLT
 7370      00
 7371 2f67 488D1500 		leaq	.LC43(%rip), %rdx
 7371      000000
 7372 2f6e 4C89F6   		movq	%r14, %rsi
 7373 2f71 4C89EF   		movq	%r13, %rdi
 7374 2f74 E8000000 		call	_ZN8UnitTest11TestResults13OnTestFailureERKNS_11TestDetailsEPKc@PLT
 7374      00
 7375              	.LEHE293:
 7376              	.LEHB294:
 7377 2f79 E8000000 		call	__cxa_end_catch@PLT
 7377      00
 7378              	.LEHE294:
 7379 2f7e 4C8DA550 		leaq	-1200(%rbp), %r12
 7379      FBFFFF
 7380 2f85 E954F7FF 		jmp	.L500
 7380      FF
 7381              	.L544:
 7382 2f8a 4889C7   		movq	%rax, %rdi
 7383 2f8d E8000000 		call	__cxa_begin_catch@PLT
 7383      00
 7384              	.LEHB295:
 7385 2f92 E8000000 		call	_ZN8UnitTest11CurrentTest7ResultsEv@PLT
 7385      00
 7386 2f97 4C8B28   		movq	(%rax), %r13
 7387 2f9a E8000000 		call	_ZN8UnitTest11CurrentTest7DetailsEv@PLT
 7387      00
 7388 2f9f 488B30   		movq	(%rax), %rsi
 7389 2fa2 BAE40000 		movl	$228, %edx
 7389      00
 7390 2fa7 4C89F7   		movq	%r14, %rdi
 7391 2faa E8000000 		call	_ZN8UnitTest11TestDetailsC1ERKS0_i@PLT
 7391      00
 7392 2faf 488D1500 		leaq	.LC5(%rip), %rdx
 7392      000000
 7393 2fb6 4C89F6   		movq	%r14, %rsi
 7394 2fb9 4C89EF   		movq	%r13, %rdi
 7395 2fbc E8000000 		call	_ZN8UnitTest11TestResults13OnTestFailureERKNS_11TestDetailsEPKc@PLT
 7395      00
 7396              	.LEHE295:
 7397              	.LEHB296:
 7398 2fc1 E8000000 		call	__cxa_end_catch@PLT
 7398      00
 7399              	.LEHE296:
 7400 2fc6 E9C9F7FF 		jmp	.L506
 7400      FF
 7401              	.L542:
 7402 2fcb 4889C7   		movq	%rax, %rdi
 7403 2fce E8000000 		call	__cxa_begin_catch@PLT
 7403      00
 7404              	.LEHB297:
 7405 2fd3 E8000000 		call	_ZN8UnitTest11CurrentTest7ResultsEv@PLT
 7405      00
 7406 2fd8 488B00   		movq	(%rax), %rax
 7407 2fdb 4989C5   		movq	%rax, %r13
 7408 2fde E8000000 		call	_ZN8UnitTest11CurrentTest7DetailsEv@PLT
 7408      00
 7409 2fe3 488B30   		movq	(%rax), %rsi
 7410 2fe6 BAE20000 		movl	$226, %edx
 7410      00
 7411 2feb 4C89F7   		movq	%r14, %rdi
 7412 2fee E8000000 		call	_ZN8UnitTest11TestDetailsC1ERKS0_i@PLT
 7412      00
 7413 2ff3 488D1500 		leaq	.LC5(%rip), %rdx
 7413      000000
 7414 2ffa 4C89F6   		movq	%r14, %rsi
 7415 2ffd 4C89EF   		movq	%r13, %rdi
 7416 3000 E8000000 		call	_ZN8UnitTest11TestResults13OnTestFailureERKNS_11TestDetailsEPKc@PLT
 7416      00
 7417              	.LEHE297:
 7418              	.LEHB298:
 7419 3005 E8000000 		call	__cxa_end_catch@PLT
 7419      00
 7420              	.LEHE298:
 7421 300a 488D8570 		leaq	-1168(%rbp), %rax
 7421      FBFFFF
 7422 3011 488985F8 		movq	%rax, -1288(%rbp)
 7422      FAFFFF
 7423 3018 E91FF7FF 		jmp	.L503
 7423      FF
 7424              	.L541:
 7425 301d 4989C7   		movq	%rax, %r15
 7426 3020 E8000000 		call	__cxa_end_catch@PLT
 7426      00
 7427 3025 E903FCFF 		jmp	.L496
 7427      FF
 7428              	.L545:
 7429 302a 4989C7   		movq	%rax, %r15
 7430 302d E8000000 		call	__cxa_end_catch@PLT
 7430      00
 7431 3032 E9F6FBFF 		jmp	.L496
 7431      FF
 7432              	.L543:
 7433 3037 4989C7   		movq	%rax, %r15
 7434 303a E8000000 		call	__cxa_end_catch@PLT
 7434      00
 7435 303f E9E9FBFF 		jmp	.L496
 7435      FF
 7436              	.L562:
 7437 3044 4989C6   		movq	%rax, %r14
 7438 3047 E9A3FDFF 		jmp	.L480
 7438      FF
 7439              	.L536:
 7440 304c 4889C7   		movq	%rax, %rdi
 7441 304f E8000000 		call	__cxa_begin_catch@PLT
 7441      00
 7442              	.LEHB299:
 7443 3054 E8000000 		call	_ZN8UnitTest11CurrentTest7ResultsEv@PLT
 7443      00
 7444 3059 488B00   		movq	(%rax), %rax
 7445 305c 4989C5   		movq	%rax, %r13
 7446 305f E8000000 		call	_ZN8UnitTest11CurrentTest7DetailsEv@PLT
 7446      00
 7447 3064 488B30   		movq	(%rax), %rsi
 7448 3067 BAD80000 		movl	$216, %edx
 7448      00
 7449 306c 4C89F7   		movq	%r14, %rdi
 7450 306f E8000000 		call	_ZN8UnitTest11TestDetailsC1ERKS0_i@PLT
 7450      00
 7451 3074 488D1500 		leaq	.LC41(%rip), %rdx
 7451      000000
 7452 307b 4C89F6   		movq	%r14, %rsi
 7453 307e 4C89EF   		movq	%r13, %rdi
 7454 3081 E8000000 		call	_ZN8UnitTest11TestResults13OnTestFailureERKNS_11TestDetailsEPKc@PLT
 7454      00
 7455              	.LEHE299:
 7456              	.LEHB300:
 7457 3086 E8000000 		call	__cxa_end_catch@PLT
 7457      00
 7458              	.LEHE300:
 7459 308b E9FBF2FF 		jmp	.L465
 7459      FF
 7460              	.L560:
 7461 3090 488985F8 		movq	%rax, -1288(%rbp)
 7461      FAFFFF
 7462 3097 E9CDFBFF 		jmp	.L469
 7462      FF
 7463              	.L538:
 7464 309c E9EBFAFF 		jmp	.L471
 7464      FF
 7465              	.L537:
 7466 30a1 4989C7   		movq	%rax, %r15
 7467 30a4 E8000000 		call	__cxa_end_catch@PLT
 7467      00
 7468 30a9 E97FFBFF 		jmp	.L496
 7468      FF
 7469              		.cfi_endproc
 7470              	.LFE1285:
 7471              		.section	.gcc_except_table
 7472              		.align 4
 7473              	.LLSDA1285:
 7474 04bc FF       		.byte	0xff
 7475 04bd 9B       		.byte	0x9b
 7476 04be 9803     		.uleb128 .LLSDATT1285-.LLSDATTD1285
 7477              	.LLSDATTD1285:
 7478 04c0 01       		.byte	0x1
 7479 04c1 8D03     		.uleb128 .LLSDACSE1285-.LLSDACSB1285
 7480              	.LLSDACSB1285:
 7481 04c3 8901     		.uleb128 .LEHB235-.LFB1285
 7482 04c5 05       		.uleb128 .LEHE235-.LEHB235
 7483 04c6 8A17     		.uleb128 .L526-.LFB1285
 7484 04c8 00       		.uleb128 0
 7485 04c9 9401     		.uleb128 .LEHB236-.LFB1285
 7486 04cb 47       		.uleb128 .LEHE236-.LEHB236
 7487 04cc CA19     		.uleb128 .L527-.LFB1285
 7488 04ce 01       		.uleb128 0x1
 7489 04cf F501     		.uleb128 .LEHB237-.LFB1285
 7490 04d1 05       		.uleb128 .LEHE237-.LEHB237
 7491 04d2 8A17     		.uleb128 .L526-.LFB1285
 7492 04d4 00       		.uleb128 0
 7493 04d5 8002     		.uleb128 .LEHB238-.LFB1285
 7494 04d7 40       		.uleb128 .LEHE238-.LEHB238
 7495 04d8 D91B     		.uleb128 .L529-.LFB1285
 7496 04da 01       		.uleb128 0x1
 7497 04db D303     		.uleb128 .LEHB239-.LFB1285
 7498 04dd 05       		.uleb128 .LEHE239-.LEHB239
 7499 04de 8A17     		.uleb128 .L526-.LFB1285
 7500 04e0 00       		.uleb128 0
 7501 04e1 E003     		.uleb128 .LEHB240-.LFB1285
 7502 04e3 39       		.uleb128 .LEHE240-.LEHB240
 7503 04e4 8D1B     		.uleb128 .L531-.LFB1285
 7504 04e6 01       		.uleb128 0x1
 7505 04e7 C104     		.uleb128 .LEHB241-.LFB1285
 7506 04e9 E701     		.uleb128 .LEHE241-.LEHB241
 7507 04eb 8A17     		.uleb128 .L526-.LFB1285
 7508 04ed 00       		.uleb128 0
 7509 04ee AE06     		.uleb128 .LEHB242-.LFB1285
 7510 04f0 40       		.uleb128 .LEHE242-.LEHB242
 7511 04f1 A518     		.uleb128 .L533-.LFB1285
 7512 04f3 01       		.uleb128 0x1
 7513 04f4 8008     		.uleb128 .LEHB243-.LFB1285
 7514 04f6 05       		.uleb128 .LEHE243-.LEHB243
 7515 04f7 A018     		.uleb128 .L556-.LFB1285
 7516 04f9 00       		.uleb128 0
 7517 04fa A208     		.uleb128 .LEHB244-.LFB1285
 7518 04fc 05       		.uleb128 .LEHE244-.LEHB244
 7519 04fd 9B18     		.uleb128 .L557-.LFB1285
 7520 04ff 00       		.uleb128 0
 7521 0500 B208     		.uleb128 .LEHB245-.LFB1285
 7522 0502 05       		.uleb128 .LEHE245-.LEHB245
 7523 0503 C217     		.uleb128 .L558-.LFB1285
 7524 0505 00       		.uleb128 0
 7525 0506 C708     		.uleb128 .LEHB246-.LFB1285
 7526 0508 3C       		.uleb128 .LEHE246-.LEHB246
 7527 0509 A720     		.uleb128 .L535-.LFB1285
 7528 050b 00       		.uleb128 0
 7529 050c 8609     		.uleb128 .LEHB247-.LFB1285
 7530 050e 28       		.uleb128 .LEHE247-.LEHB247
 7531 050f 8C23     		.uleb128 .L538-.LFB1285
 7532 0511 01       		.uleb128 0x1
 7533 0512 D30A     		.uleb128 .LEHB248-.LFB1285
 7534 0514 05       		.uleb128 .LEHE248-.LEHB248
 7535 0515 8023     		.uleb128 .L560-.LFB1285
 7536 0517 01       		.uleb128 0x1
 7537 0518 EB0B     		.uleb128 .LEHB249-.LFB1285
 7538 051a 05       		.uleb128 .LEHE249-.LEHB249
 7539 051b BA1A     		.uleb128 .L561-.LFB1285
 7540 051d 01       		.uleb128 0x1
 7541 051e B90C     		.uleb128 .LEHB250-.LFB1285
 7542 0520 5C       		.uleb128 .LEHE250-.LEHB250
 7543 0521 E618     		.uleb128 .L559-.LFB1285
 7544 0523 01       		.uleb128 0x1
 7545 0524 BD0E     		.uleb128 .LEHB251-.LFB1285
 7546 0526 05       		.uleb128 .LEHE251-.LEHB251
 7547 0527 8C23     		.uleb128 .L538-.LFB1285
 7548 0529 01       		.uleb128 0x1
 7549 052a C90E     		.uleb128 .LEHB252-.LFB1285
 7550 052c 2B       		.uleb128 .LEHE252-.LEHB252
 7551 052d A720     		.uleb128 .L535-.LFB1285
 7552 052f 00       		.uleb128 0
 7553 0530 FD0E     		.uleb128 .LEHB253-.LFB1285
 7554 0532 51       		.uleb128 .LEHE253-.LEHB253
 7555 0533 AF20     		.uleb128 .L540-.LFB1285
 7556 0535 01       		.uleb128 0x1
 7557 0536 DA0F     		.uleb128 .LEHB254-.LFB1285
 7558 0538 05       		.uleb128 .LEHE254-.LEHB254
 7559 0539 A720     		.uleb128 .L535-.LFB1285
 7560 053b 00       		.uleb128 0
 7561 053c E50F     		.uleb128 .LEHB255-.LFB1285
 7562 053e 47       		.uleb128 .LEHE255-.LEHB255
 7563 053f BB21     		.uleb128 .L542-.LFB1285
 7564 0541 01       		.uleb128 0x1
 7565 0542 BC10     		.uleb128 .LEHB256-.LFB1285
 7566 0544 05       		.uleb128 .LEHE256-.LEHB256
 7567 0545 A720     		.uleb128 .L535-.LFB1285
 7568 0547 00       		.uleb128 0
 7569 0548 C710     		.uleb128 .LEHB257-.LFB1285
 7570 054a 3D       		.uleb128 .LEHE257-.LEHB257
 7571 054b FA20     		.uleb128 .L544-.LFB1285
 7572 054d 01       		.uleb128 0x1
 7573 054e 9711     		.uleb128 .LEHB258-.LFB1285
 7574 0550 05       		.uleb128 .LEHE258-.LEHB258
 7575 0551 A720     		.uleb128 .L535-.LFB1285
 7576 0553 00       		.uleb128 0
 7577 0554 A211     		.uleb128 .LEHB259-.LFB1285
 7578 0556 3D       		.uleb128 .LEHE259-.LEHB259
 7579 0557 F81C     		.uleb128 .L546-.LFB1285
 7580 0559 01       		.uleb128 0x1
 7581 055a DF11     		.uleb128 .LEHB260-.LFB1285
 7582 055c 35       		.uleb128 .LEHE260-.LEHB260
 7583 055d B71C     		.uleb128 .L548-.LFB1285
 7584 055f 01       		.uleb128 0x1
 7585 0560 9412     		.uleb128 .LEHB261-.LFB1285
 7586 0562 39       		.uleb128 .LEHE261-.LEHB261
 7587 0563 BF1F     		.uleb128 .L550-.LFB1285
 7588 0565 01       		.uleb128 0x1
 7589 0566 CD12     		.uleb128 .LEHB262-.LFB1285
 7590 0568 3B       		.uleb128 .LEHE262-.LEHB262
 7591 0569 FE1E     		.uleb128 .L552-.LFB1285
 7592 056b 01       		.uleb128 0x1
 7593 056c 8813     		.uleb128 .LEHB263-.LFB1285
 7594 056e 3D       		.uleb128 .LEHE263-.LEHB263
 7595 056f BD1E     		.uleb128 .L554-.LFB1285
 7596 0571 01       		.uleb128 0x1
 7597 0572 CC13     		.uleb128 .LEHB264-.LFB1285
 7598 0574 25       		.uleb128 .LEHE264-.LEHB264
 7599 0575 A720     		.uleb128 .L535-.LFB1285
 7600 0577 00       		.uleb128 0
 7601 0578 9C14     		.uleb128 .LEHB265-.LFB1285
 7602 057a 05       		.uleb128 .LEHE265-.LEHB265
 7603 057b D31D     		.uleb128 .L563-.LFB1285
 7604 057d 00       		.uleb128 0
 7605 057e A514     		.uleb128 .LEHB266-.LFB1285
 7606 0580 05       		.uleb128 .LEHE266-.LEHB266
 7607 0581 B422     		.uleb128 .L562-.LFB1285
 7608 0583 00       		.uleb128 0
 7609 0584 FB14     		.uleb128 .LEHB267-.LFB1285
 7610 0586 8601     		.uleb128 .LEHE267-.LEHB267
 7611 0588 8A17     		.uleb128 .L526-.LFB1285
 7612 058a 00       		.uleb128 0
 7613 058b 9016     		.uleb128 .LEHB268-.LFB1285
 7614 058d 32       		.uleb128 .LEHE268-.LEHB268
 7615 058e BC22     		.uleb128 .L536-.LFB1285
 7616 0590 01       		.uleb128 0x1
 7617 0591 D616     		.uleb128 .LEHB269-.LFB1285
 7618 0593 23       		.uleb128 .LEHE269-.LEHB269
 7619 0594 A720     		.uleb128 .L535-.LFB1285
 7620 0596 00       		.uleb128 0
 7621 0597 8517     		.uleb128 .LEHB270-.LFB1285
 7622 0599 05       		.uleb128 .LEHE270-.LEHB270
 7623 059a 8A17     		.uleb128 .L526-.LFB1285
 7624 059c 00       		.uleb128 0
 7625 059d AC17     		.uleb128 .LEHB271-.LFB1285
 7626 059f 05       		.uleb128 .LEHE271-.LEHB271
 7627 05a0 00       		.uleb128 0
 7628 05a1 00       		.uleb128 0
 7629 05a2 BD17     		.uleb128 .LEHB272-.LFB1285
 7630 05a4 05       		.uleb128 .LEHE272-.LEHB272
 7631 05a5 8A17     		.uleb128 .L526-.LFB1285
 7632 05a7 00       		.uleb128 0
 7633 05a8 AD18     		.uleb128 .LEHB273-.LFB1285
 7634 05aa 2F       		.uleb128 .LEHE273-.LEHB273
 7635 05ab 801B     		.uleb128 .L534-.LFB1285
 7636 05ad 00       		.uleb128 0
 7637 05ae DC18     		.uleb128 .LEHB274-.LFB1285
 7638 05b0 05       		.uleb128 .LEHE274-.LEHB274
 7639 05b1 8A17     		.uleb128 .L526-.LFB1285
 7640 05b3 00       		.uleb128 0
 7641 05b4 8419     		.uleb128 .LEHB275-.LFB1285
 7642 05b6 32       		.uleb128 .LEHE275-.LEHB275
 7643 05b7 951A     		.uleb128 .L539-.LFB1285
 7644 05b9 00       		.uleb128 0
 7645 05ba B619     		.uleb128 .LEHB276-.LFB1285
 7646 05bc 05       		.uleb128 .LEHE276-.LEHB276
 7647 05bd A720     		.uleb128 .L535-.LFB1285
 7648 05bf 00       		.uleb128 0
 7649 05c0 D219     		.uleb128 .LEHB277-.LFB1285
 7650 05c2 39       		.uleb128 .LEHE277-.LEHB277
 7651 05c3 AD1A     		.uleb128 .L528-.LFB1285
 7652 05c5 00       		.uleb128 0
 7653 05c6 8B1A     		.uleb128 .LEHB278-.LFB1285
 7654 05c8 05       		.uleb128 .LEHE278-.LEHB278
 7655 05c9 8A17     		.uleb128 .L526-.LFB1285
 7656 05cb 00       		.uleb128 0
 7657 05cc 951B     		.uleb128 .LEHB279-.LFB1285
 7658 05ce 3A       		.uleb128 .LEHE279-.LEHB279
 7659 05cf 9D1C     		.uleb128 .L532-.LFB1285
 7660 05d1 00       		.uleb128 0
 7661 05d2 CF1B     		.uleb128 .LEHB280-.LFB1285
 7662 05d4 05       		.uleb128 .LEHE280-.LEHB280
 7663 05d5 8A17     		.uleb128 .L526-.LFB1285
 7664 05d7 00       		.uleb128 0
 7665 05d8 E11B     		.uleb128 .LEHB281-.LFB1285
 7666 05da 32       		.uleb128 .LEHE281-.LEHB281
 7667 05db AA1C     		.uleb128 .L530-.LFB1285
 7668 05dd 00       		.uleb128 0
 7669 05de 931C     		.uleb128 .LEHB282-.LFB1285
 7670 05e0 05       		.uleb128 .LEHE282-.LEHB282
 7671 05e1 8A17     		.uleb128 .L526-.LFB1285
 7672 05e3 00       		.uleb128 0
 7673 05e4 BF1C     		.uleb128 .LEHB283-.LFB1285
 7674 05e6 2F       		.uleb128 .LEHE283-.LEHB283
 7675 05e7 B91D     		.uleb128 .L549-.LFB1285
 7676 05e9 00       		.uleb128 0
 7677 05ea EE1C     		.uleb128 .LEHB284-.LFB1285
 7678 05ec 05       		.uleb128 .LEHE284-.LEHB284
 7679 05ed A720     		.uleb128 .L535-.LFB1285
 7680 05ef 00       		.uleb128 0
 7681 05f0 801D     		.uleb128 .LEHB285-.LFB1285
 7682 05f2 2F       		.uleb128 .LEHE285-.LEHB285
 7683 05f3 C61D     		.uleb128 .L547-.LFB1285
 7684 05f5 00       		.uleb128 0
 7685 05f6 AF1D     		.uleb128 .LEHB286-.LFB1285
 7686 05f8 05       		.uleb128 .LEHE286-.LEHB286
 7687 05f9 A720     		.uleb128 .L535-.LFB1285
 7688 05fb 00       		.uleb128 0
 7689 05fc C51E     		.uleb128 .LEHB287-.LFB1285
 7690 05fe 2F       		.uleb128 .LEHE287-.LEHB287
 7691 05ff 8020     		.uleb128 .L555-.LFB1285
 7692 0601 00       		.uleb128 0
 7693 0602 F41E     		.uleb128 .LEHB288-.LFB1285
 7694 0604 05       		.uleb128 .LEHE288-.LEHB288
 7695 0605 A720     		.uleb128 .L535-.LFB1285
 7696 0607 00       		.uleb128 0
 7697 0608 861F     		.uleb128 .LEHB289-.LFB1285
 7698 060a 2F       		.uleb128 .LEHE289-.LEHB289
 7699 060b 8D20     		.uleb128 .L553-.LFB1285
 7700 060d 00       		.uleb128 0
 7701 060e B51F     		.uleb128 .LEHB290-.LFB1285
 7702 0610 05       		.uleb128 .LEHE290-.LEHB290
 7703 0611 A720     		.uleb128 .L535-.LFB1285
 7704 0613 00       		.uleb128 0
 7705 0614 C71F     		.uleb128 .LEHB291-.LFB1285
 7706 0616 2F       		.uleb128 .LEHE291-.LEHB291
 7707 0617 9A20     		.uleb128 .L551-.LFB1285
 7708 0619 00       		.uleb128 0
 7709 061a F61F     		.uleb128 .LEHB292-.LFB1285
 7710 061c 05       		.uleb128 .LEHE292-.LEHB292
 7711 061d A720     		.uleb128 .L535-.LFB1285
 7712 061f 00       		.uleb128 0
 7713 0620 B720     		.uleb128 .LEHB293-.LFB1285
 7714 0622 32       		.uleb128 .LEHE293-.LEHB293
 7715 0623 8D22     		.uleb128 .L541-.LFB1285
 7716 0625 00       		.uleb128 0
 7717 0626 E920     		.uleb128 .LEHB294-.LFB1285
 7718 0628 05       		.uleb128 .LEHE294-.LEHB294
 7719 0629 A720     		.uleb128 .L535-.LFB1285
 7720 062b 00       		.uleb128 0
 7721 062c 8221     		.uleb128 .LEHB295-.LFB1285
 7722 062e 2F       		.uleb128 .LEHE295-.LEHB295
 7723 062f 9A22     		.uleb128 .L545-.LFB1285
 7724 0631 00       		.uleb128 0
 7725 0632 B121     		.uleb128 .LEHB296-.LFB1285
 7726 0634 05       		.uleb128 .LEHE296-.LEHB296
 7727 0635 A720     		.uleb128 .L535-.LFB1285
 7728 0637 00       		.uleb128 0
 7729 0638 C321     		.uleb128 .LEHB297-.LFB1285
 7730 063a 32       		.uleb128 .LEHE297-.LEHB297
 7731 063b A722     		.uleb128 .L543-.LFB1285
 7732 063d 00       		.uleb128 0
 7733 063e F521     		.uleb128 .LEHB298-.LFB1285
 7734 0640 05       		.uleb128 .LEHE298-.LEHB298
 7735 0641 A720     		.uleb128 .L535-.LFB1285
 7736 0643 00       		.uleb128 0
 7737 0644 C422     		.uleb128 .LEHB299-.LFB1285
 7738 0646 32       		.uleb128 .LEHE299-.LEHB299
 7739 0647 9123     		.uleb128 .L537-.LFB1285
 7740 0649 00       		.uleb128 0
 7741 064a F622     		.uleb128 .LEHB300-.LFB1285
 7742 064c 05       		.uleb128 .LEHE300-.LEHB300
 7743 064d A720     		.uleb128 .L535-.LFB1285
 7744 064f 00       		.uleb128 0
 7745              	.LLSDACSE1285:
 7746 0650 01       		.byte	0x1
 7747 0651 00       		.byte	0
 7748 0652 0000     		.align 4
 7749 0654 00000000 		.long	0
 7750              	
 7751              	.LLSDATT1285:
 7752              		.text
 7754              		.section	.rodata.str1.1
 7755              	.LC48:
 7756 012d 3A303631 		.string	":061270000895F894FFCF81"
 7756      32373030 
 7756      30303839 
 7756      35463839 
 7756      34464643 
 7757              		.section	.rodata.str1.8
 7758 0697 00       		.align 8
 7759              	.LC49:
 7760 0698 3A313031 		.string	":10126000E80083FF01C03DDC17701093E9001F9177"
 7760      32363030 
 7760      30453830 
 7760      30383346 
 7760      46303143 
 7761 06c4 00000000 		.align 8
 7762              	.LC50:
 7763 06c8 3A313031 		.string	":101250000801882361F01091E9001092E900809163"
 7763      32353030 
 7763      30303830 
 7763      31383832 
 7763      33363146 
 7764 06f4 00000000 		.align 8
 7765              	.LC51:
 7766 06f8 3A313031 		.string	":10121000E10082FF0AC08091E20082FF06C0809157"
 7766      32313030 
 7766      30453130 
 7766      30383246 
 7766      46304143 
 7767 0724 00000000 		.align 8
 7768              	.LC52:
 7769 0728 3A313031 		.string	":10120000E200A5DD80E060E042E18EDD71DF8091EB"
 7769      32303030 
 7769      30453230 
 7769      30413544 
 7769      44383045 
 7770 0754 00000000 		.align 8
 7771              	.LC53:
 7772 0758 3A313031 		.string	":1011F000E2008E7F8093E2008091E2008061809324"
 7772      31463030 
 7772      30453230 
 7772      30384537 
 7772      46383039 
 7773              		.section	.rodata.str1.1
 7774              	.LC54:
 7775 0145 3A303631 		.string	":061220000895F894FFCFD1"
 7775      32323030 
 7775      30303839 
 7775      35463839 
 7775      34464643 
 7776              	.LC55:
 7777 015d 3A303130 		.string	":0100CF00CF61"
 7777      30434630 
 7777      30434636 
 7777      3100
 7778              		.section	.rodata.str1.8
 7779 0784 00000000 		.align 8
 7780              	.LC56:
 7781 0788 3A304530 		.string	":0E00C00085BF889585B78F7D85BFF8CFF894F2"
 7781      30433030 
 7781      30383542 
 7781      46383839 
 7781      35383542 
 7782              		.align 8
 7783              	.LC57:
 7784 07b0 3A313030 		.string	":1000B0009BBD8ABD89B7806489BF789485B780620B"
 7784      30423030 
 7784      30394242 
 7784      44384142 
 7784      44383942 
 7785 07dc 00000000 		.align 8
 7786              	.LC58:
 7787 07e0 3A313030 		.string	":1000A00018958FEF8ABB1FBC8DE08EBD89E09DE364"
 7787      30413030 
 7787      30313839 
 7787      35384645 
 7787      46384142 
 7788 080c 00000000 		.align 8
 7789              	.LC59:
 7790 0810 3A313030 		.string	":1000B0009BBD8ABD89B7FFFFFFFFFF9485B78062B4"
 7790      30423030 
 7790      30394242 
 7790      44384142 
 7790      44383942 
 7791 083c 00000000 		.align 8
 7792              	.LC60:
 7793 0840 3A313030 		.string	":10001000BEBAFECA6E3B8209D926430DADDEADDE07"
 7793      30313030 
 7793      30424542 
 7793      41464543 
 7793      41364533 
 7794 086c 00000000 		.align 8
 7795              	.LC61:
 7796 0870 3A313030 		.string	":10000000BEBAFECA6E3B8209D926430DADDEADDE17"
 7796      30303030 
 7796      30424542 
 7796      41464543 
 7796      41364533 
 7797              		.section	.rodata.str1.1
 7798              	.LC62:
 7799 016b 3A303230 		.string	":020000021000EC"
 7799      30303030 
 7799      32313030 
 7799      30454300 
 7800              		.section	.rodata.str1.8
 7801 089c 00000000 		.align 8
 7802              	.LC63:
 7803 08a0 3A313046 		.string	":10FFF000BEBAFECA6E3B8209D926430DADDEADDE28"
 7803      46463030 
 7803      30424542 
 7803      41464543 
 7803      41364533 
 7804 08cc 00000000 		.align 8
 7805              	.LC64:
 7806 08d0 3A313046 		.string	":10FFE000BEBAFECA6E3B8209D926430DADDEADDE38"
 7806      46453030 
 7806      30424542 
 7806      41464543 
 7806      41364533 
 7807              		.text
 7808              		.align 2
 7809 30ae 6690     		.p2align 4,,15
 7810              		.globl	_ZNK23TestHexIO_testRoundTrip7RunImplEv
 7812              	_ZNK23TestHexIO_testRoundTrip7RunImplEv:
 7813              	.LFB1289:
 7814              		.cfi_startproc
 7815 30b0 4883EC10 		subq	$16, %rsp
 7816              		.cfi_def_cfa_offset 24
 7817 30b4 4C8D0D00 		leaq	.LC48(%rip), %r9
 7817      000000
 7818 30bb 4C8D0500 		leaq	.LC49(%rip), %r8
 7818      000000
 7819 30c2 6A00     		pushq	$0
 7820              		.cfi_def_cfa_offset 32
 7821 30c4 488D0D00 		leaq	.LC50(%rip), %rcx
 7821      000000
 7822 30cb 488D1500 		leaq	.LC51(%rip), %rdx
 7822      000000
 7823 30d2 488D3500 		leaq	.LC52(%rip), %rsi
 7823      000000
 7824 30d9 488D3D00 		leaq	.LC53(%rip), %rdi
 7824      000000
 7825 30e0 31C0     		xorl	%eax, %eax
 7826 30e2 E8000000 		call	_Z13testRoundTripPKcz
 7826      00
 7827 30e7 58       		popq	%rax
 7828              		.cfi_def_cfa_offset 24
 7829 30e8 488D0500 		leaq	.LC48(%rip), %rax
 7829      000000
 7830 30ef 4C8D0D00 		leaq	.LC49(%rip), %r9
 7830      000000
 7831 30f6 4C8D0500 		leaq	.LC50(%rip), %r8
 7831      000000
 7832 30fd 5A       		popq	%rdx
 7833              		.cfi_def_cfa_offset 16
 7834 30fe 488D0D00 		leaq	.LC54(%rip), %rcx
 7834      000000
 7835 3105 6A00     		pushq	$0
 7836              		.cfi_def_cfa_offset 24
 7837 3107 488D1500 		leaq	.LC51(%rip), %rdx
 7837      000000
 7838 310e 50       		pushq	%rax
 7839              		.cfi_def_cfa_offset 32
 7840 310f 488D3500 		leaq	.LC52(%rip), %rsi
 7840      000000
 7841 3116 488D3D00 		leaq	.LC53(%rip), %rdi
 7841      000000
 7842 311d 31C0     		xorl	%eax, %eax
 7843 311f E8000000 		call	_Z13testRoundTripPKcz
 7843      00
 7844 3124 59       		popq	%rcx
 7845              		.cfi_def_cfa_offset 24
 7846 3125 5E       		popq	%rsi
 7847              		.cfi_def_cfa_offset 16
 7848 3126 488D0D00 		leaq	.LC55(%rip), %rcx
 7848      000000
 7849 312d 488D1500 		leaq	.LC56(%rip), %rdx
 7849      000000
 7850 3134 488D3500 		leaq	.LC57(%rip), %rsi
 7850      000000
 7851 313b 488D3D00 		leaq	.LC58(%rip), %rdi
 7851      000000
 7852 3142 4531C0   		xorl	%r8d, %r8d
 7853 3145 31C0     		xorl	%eax, %eax
 7854 3147 E8000000 		call	_Z13testRoundTripPKcz
 7854      00
 7855 314c 488D3D00 		leaq	.LC59(%rip), %rdi
 7855      000000
 7856 3153 31F6     		xorl	%esi, %esi
 7857 3155 31C0     		xorl	%eax, %eax
 7858 3157 E8000000 		call	_Z13testRoundTripPKcz
 7858      00
 7859 315c 4C8D0500 		leaq	.LC60(%rip), %r8
 7859      000000
 7860 3163 488D0D00 		leaq	.LC61(%rip), %rcx
 7860      000000
 7861 316a 488D1500 		leaq	.LC62(%rip), %rdx
 7861      000000
 7862 3171 488D3500 		leaq	.LC63(%rip), %rsi
 7862      000000
 7863 3178 488D3D00 		leaq	.LC64(%rip), %rdi
 7863      000000
 7864 317f 4531C9   		xorl	%r9d, %r9d
 7865 3182 31C0     		xorl	%eax, %eax
 7866 3184 4883C408 		addq	$8, %rsp
 7867              		.cfi_def_cfa_offset 8
 7868 3188 E983EDFF 		jmp	_Z13testRoundTripPKcz
 7868      FF
 7869              		.cfi_endproc
 7870              	.LFE1289:
 7872              		.section	.text._ZN8UnitTest15CheckArrayEqualIPKcPhEEvRNS_11TestResultsERKT_RKT0_iRKNS_11TestDetail
 7873              		.p2align 4,,15
 7874              		.weak	_ZN8UnitTest15CheckArrayEqualIPKcPhEEvRNS_11TestResultsERKT_RKT0_iRKNS_11TestDetailsE
 7876              	_ZN8UnitTest15CheckArrayEqualIPKcPhEEvRNS_11TestResultsERKT_RKT0_iRKNS_11TestDetailsE:
 7877              	.LFB1349:
 7878              		.cfi_startproc
 7879              		.cfi_personality 0x9b,DW.ref.__gxx_personality_v0
 7880              		.cfi_lsda 0x1b,.LLSDA1349
 7881 0000 4157     		pushq	%r15
 7882              		.cfi_def_cfa_offset 16
 7883              		.cfi_offset 15, -16
 7884 0002 4156     		pushq	%r14
 7885              		.cfi_def_cfa_offset 24
 7886              		.cfi_offset 14, -24
 7887 0004 4155     		pushq	%r13
 7888              		.cfi_def_cfa_offset 32
 7889              		.cfi_offset 13, -32
 7890 0006 4154     		pushq	%r12
 7891              		.cfi_def_cfa_offset 40
 7892              		.cfi_offset 12, -40
 7893 0008 55       		pushq	%rbp
 7894              		.cfi_def_cfa_offset 48
 7895              		.cfi_offset 6, -48
 7896 0009 53       		pushq	%rbx
 7897              		.cfi_def_cfa_offset 56
 7898              		.cfi_offset 3, -56
 7899 000a 4881ECD8 		subq	$472, %rsp
 7899      010000
 7900              		.cfi_def_cfa_offset 528
 7901 0011 64488B04 		movq	%fs:40, %rax
 7901      25280000 
 7901      00
 7902 001a 48898424 		movq	%rax, 456(%rsp)
 7902      C8010000 
 7903 0022 31C0     		xorl	%eax, %eax
 7904 0024 85C9     		testl	%ecx, %ecx
 7905 0026 48897C24 		movq	%rdi, 16(%rsp)
 7905      10
 7906 002b 4C894424 		movq	%r8, 24(%rsp)
 7906      18
 7907 0030 7E3B     		jle	.L582
 7908 0032 4989F6   		movq	%rsi, %r14
 7909 0035 4C8B06   		movq	(%rsi), %r8
 7910 0038 488B3A   		movq	(%rdx), %rdi
 7911 003b 8D71FF   		leal	-1(%rcx), %esi
 7912 003e 4989D5   		movq	%rdx, %r13
 7913 0041 31DB     		xorl	%ebx, %ebx
 7914 0043 B8010000 		movl	$1, %eax
 7914      00
 7915 0048 4883C601 		addq	$1, %rsi
 7916 004c 0F1F4000 		.p2align 4,,10
 7917              		.p2align 3
 7918              	.L584:
 7919 0050 0FB6141F 		movzbl	(%rdi,%rbx), %edx
 7920 0054 410FBE0C 		movsbl	(%r8,%rbx), %ecx
 7920      18
 7921 0059 39D1     		cmpl	%edx, %ecx
 7922 005b 0F94C2   		sete	%dl
 7923 005e 4883C301 		addq	$1, %rbx
 7924 0062 21D0     		andl	%edx, %eax
 7925 0064 4839DE   		cmpq	%rbx, %rsi
 7926 0067 75E7     		jne	.L584
 7927 0069 84C0     		testb	%al, %al
 7928 006b 7433     		je	.L604
 7929              	.L582:
 7930 006d 488B8424 		movq	456(%rsp), %rax
 7930      C8010000 
 7931 0075 64483304 		xorq	%fs:40, %rax
 7931      25280000 
 7931      00
 7932 007e 0F85FE02 		jne	.L605
 7932      0000
 7933 0084 4881C4D8 		addq	$472, %rsp
 7933      010000
 7934              		.cfi_remember_state
 7935              		.cfi_def_cfa_offset 56
 7936 008b 5B       		popq	%rbx
 7937              		.cfi_def_cfa_offset 48
 7938 008c 5D       		popq	%rbp
 7939              		.cfi_def_cfa_offset 40
 7940 008d 415C     		popq	%r12
 7941              		.cfi_def_cfa_offset 32
 7942 008f 415D     		popq	%r13
 7943              		.cfi_def_cfa_offset 24
 7944 0091 415E     		popq	%r14
 7945              		.cfi_def_cfa_offset 16
 7946 0093 415F     		popq	%r15
 7947              		.cfi_def_cfa_offset 8
 7948 0095 C3       		ret
 7949 0096 662E0F1F 		.p2align 4,,10
 7949      84000000 
 7949      0000
 7950              		.p2align 3
 7951              	.L604:
 7952              		.cfi_restore_state
 7953 00a0 4C8D6424 		leaq	48(%rsp), %r12
 7953      30
 7954 00a5 498DAC24 		leaq	144(%r12), %rbp
 7954      90000000 
 7955 00ad 4889EF   		movq	%rbp, %rdi
 7956 00b0 E8000000 		call	_ZNSt8ios_baseC2Ev@PLT
 7956      00
 7957 00b5 488D0500 		leaq	24+_ZTCN8UnitTest15MemoryOutStreamE0_So(%rip), %rax
 7957      000000
 7958 00bc 31F6     		xorl	%esi, %esi
 7959 00be 4889EF   		movq	%rbp, %rdi
 7960 00c1 48C78424 		movq	$0, 408(%rsp)
 7960      98010000 
 7960      00000000 
 7961 00cd C68424A0 		movb	$0, 416(%rsp)
 7961      01000000 
 7962 00d5 48894424 		movq	%rax, 48(%rsp)
 7962      30
 7963 00da 4883C028 		addq	$40, %rax
 7964 00de C68424A1 		movb	$0, 417(%rsp)
 7964      01000000 
 7965 00e6 48C78424 		movq	$0, 424(%rsp)
 7965      A8010000 
 7965      00000000 
 7966 00f2 48C78424 		movq	$0, 432(%rsp)
 7966      B0010000 
 7966      00000000 
 7967 00fe 48C78424 		movq	$0, 440(%rsp)
 7967      B8010000 
 7967      00000000 
 7968 010a 48C78424 		movq	$0, 448(%rsp)
 7968      C0010000 
 7968      00000000 
 7969 0116 48898424 		movq	%rax, 192(%rsp)
 7969      C0000000 
 7970              	.LEHB301:
 7971 011e E8000000 		call	_ZNSt9basic_iosIcSt11char_traitsIcEE4initEPSt15basic_streambufIcS1_E@PLT
 7971      00
 7972              	.LEHE301:
 7973 0123 488D0500 		leaq	24+_ZTCN8UnitTest15MemoryOutStreamE0_NSt7__cxx1119basic_ostringstreamIcSt11char_traitsIcESaIc
 7973      000000
 7974 012a 660FEFC0 		pxor	%xmm0, %xmm0
 7975 012e 498D7C24 		leaq	64(%r12), %rdi
 7975      40
 7976 0133 48894424 		movq	%rax, 48(%rsp)
 7976      30
 7977 0138 4883C028 		addq	$40, %rax
 7978 013c 48898424 		movq	%rax, 192(%rsp)
 7978      C0000000 
 7979 0144 488D0500 		leaq	16+_ZTVSt15basic_streambufIcSt11char_traitsIcEE(%rip), %rax
 7979      000000
 7980 014b 0F294424 		movaps	%xmm0, 64(%rsp)
 7980      40
 7981 0150 48894424 		movq	%rax, 56(%rsp)
 7981      38
 7982 0155 0F294424 		movaps	%xmm0, 80(%rsp)
 7982      50
 7983 015a 0F294424 		movaps	%xmm0, 96(%rsp)
 7983      60
 7984 015f E8000000 		call	_ZNSt6localeC1Ev@PLT
 7984      00
 7985 0164 488D0500 		leaq	16+_ZTVNSt7__cxx1115basic_stringbufIcSt11char_traitsIcESaIcEEE(%rip), %rax
 7985      000000
 7986 016b 498D7424 		leaq	8(%r12), %rsi
 7986      08
 7987 0170 48894424 		movq	%rax, 56(%rsp)
 7987      38
 7988 0175 498D4424 		leaq	96(%r12), %rax
 7988      60
 7989 017a C7442478 		movl	$16, 120(%rsp)
 7989      10000000 
 7990 0182 48C78424 		movq	$0, 136(%rsp)
 7990      88000000 
 7990      00000000 
 7991 018e C6842490 		movb	$0, 144(%rsp)
 7991      00000000 
 7992 0196 48898424 		movq	%rax, 128(%rsp)
 7992      80000000 
 7993 019e 488B4424 		movq	48(%rsp), %rax
 7993      30
 7994 01a3 488B78E8 		movq	-24(%rax), %rdi
 7995 01a7 4C01E7   		addq	%r12, %rdi
 7996              	.LEHB302:
 7997 01aa E8000000 		call	_ZNSt9basic_iosIcSt11char_traitsIcEE4initEPSt15basic_streambufIcS1_E@PLT
 7997      00
 7998              	.LEHE302:
 7999 01af 488D0500 		leaq	24+_ZTVN8UnitTest15MemoryOutStreamE(%rip), %rax
 7999      000000
 8000 01b6 488D3500 		leaq	.LC28(%rip), %rsi
 8000      000000
 8001 01bd BA0B0000 		movl	$11, %edx
 8001      00
 8002 01c2 4C89E7   		movq	%r12, %rdi
 8003 01c5 48C78424 		movq	$0, 168(%rsp)
 8003      A8000000 
 8003      00000000 
 8004 01d1 C68424B0 		movb	$0, 176(%rsp)
 8004      00000000 
 8005 01d9 48894424 		movq	%rax, 48(%rsp)
 8005      30
 8006 01de 4883C028 		addq	$40, %rax
 8007 01e2 48898424 		movq	%rax, 192(%rsp)
 8007      C0000000 
 8008 01ea 498D8424 		leaq	128(%r12), %rax
 8008      80000000 
 8009 01f2 48898424 		movq	%rax, 160(%rsp)
 8009      A0000000 
 8010              	.LEHB303:
 8011 01fa E8000000 		call	_ZSt16__ostream_insertIcSt11char_traitsIcEERSt13basic_ostreamIT_T0_ES6_PKS3_l@PLT
 8011      00
 8012 01ff 488D4424 		leaq	46(%rsp), %rax
 8012      2E
 8013 0204 4C8D3D00 		leaq	.LC29(%rip), %r15
 8013      000000
 8014 020b 31ED     		xorl	%ebp, %ebp
 8015 020d 48894424 		movq	%rax, 8(%rsp)
 8015      08
 8016              		.p2align 4,,10
 8017 0212 660F1F44 		.p2align 3
 8017      0000
 8018              	.L588:
 8019 0218 498B06   		movq	(%r14), %rax
 8020 021b 488B7424 		movq	8(%rsp), %rsi
 8020      08
 8021 0220 BA010000 		movl	$1, %edx
 8021      00
 8022 0225 4C89E7   		movq	%r12, %rdi
 8023 0228 0FB60428 		movzbl	(%rax,%rbp), %eax
 8024 022c 8844242E 		movb	%al, 46(%rsp)
 8025 0230 E8000000 		call	_ZSt16__ostream_insertIcSt11char_traitsIcEERSt13basic_ostreamIT_T0_ES6_PKS3_l@PLT
 8025      00
 8026 0235 BA010000 		movl	$1, %edx
 8026      00
 8027 023a 4C89FE   		movq	%r15, %rsi
 8028 023d 4889C7   		movq	%rax, %rdi
 8029 0240 E8000000 		call	_ZSt16__ostream_insertIcSt11char_traitsIcEERSt13basic_ostreamIT_T0_ES6_PKS3_l@PLT
 8029      00
 8030 0245 4883C501 		addq	$1, %rbp
 8031 0249 4839EB   		cmpq	%rbp, %rbx
 8032 024c 75CA     		jne	.L588
 8033 024e 488D3500 		leaq	.LC30(%rip), %rsi
 8033      000000
 8034 0255 BA0C0000 		movl	$12, %edx
 8034      00
 8035 025a 4C89E7   		movq	%r12, %rdi
 8036 025d E8000000 		call	_ZSt16__ostream_insertIcSt11char_traitsIcEERSt13basic_ostreamIT_T0_ES6_PKS3_l@PLT
 8036      00
 8037 0262 4C8D7424 		leaq	47(%rsp), %r14
 8037      2F
 8038 0267 4C8D3D00 		leaq	.LC29(%rip), %r15
 8038      000000
 8039 026e 31DB     		xorl	%ebx, %ebx
 8040              		.p2align 4,,10
 8041              		.p2align 3
 8042              	.L589:
 8043 0270 498B4500 		movq	0(%r13), %rax
 8044 0274 BA010000 		movl	$1, %edx
 8044      00
 8045 0279 4C89F6   		movq	%r14, %rsi
 8046 027c 4C89E7   		movq	%r12, %rdi
 8047 027f 0FB60418 		movzbl	(%rax,%rbx), %eax
 8048 0283 8844242F 		movb	%al, 47(%rsp)
 8049 0287 E8000000 		call	_ZSt16__ostream_insertIcSt11char_traitsIcEERSt13basic_ostreamIT_T0_ES6_PKS3_l@PLT
 8049      00
 8050 028c BA010000 		movl	$1, %edx
 8050      00
 8051 0291 4C89FE   		movq	%r15, %rsi
 8052 0294 4889C7   		movq	%rax, %rdi
 8053 0297 E8000000 		call	_ZSt16__ostream_insertIcSt11char_traitsIcEERSt13basic_ostreamIT_T0_ES6_PKS3_l@PLT
 8053      00
 8054 029c 4883C301 		addq	$1, %rbx
 8055 02a0 4839DD   		cmpq	%rbx, %rbp
 8056 02a3 75CB     		jne	.L589
 8057 02a5 488D3500 		leaq	.LC31(%rip), %rsi
 8057      000000
 8058 02ac BA010000 		movl	$1, %edx
 8058      00
 8059 02b1 4C89E7   		movq	%r12, %rdi
 8060 02b4 E8000000 		call	_ZSt16__ostream_insertIcSt11char_traitsIcEERSt13basic_ostreamIT_T0_ES6_PKS3_l@PLT
 8060      00
 8061 02b9 4C89E7   		movq	%r12, %rdi
 8062 02bc E8000000 		call	_ZNK8UnitTest15MemoryOutStream7GetTextEv@PLT
 8062      00
 8063 02c1 488B7424 		movq	24(%rsp), %rsi
 8063      18
 8064 02c6 488B7C24 		movq	16(%rsp), %rdi
 8064      10
 8065 02cb 4889C2   		movq	%rax, %rdx
 8066 02ce E8000000 		call	_ZN8UnitTest11TestResults13OnTestFailureERKNS_11TestDetailsEPKc@PLT
 8066      00
 8067              	.LEHE303:
 8068 02d3 488D0500 		leaq	24+_ZTVN8UnitTest15MemoryOutStreamE(%rip), %rax
 8068      000000
 8069 02da 488BBC24 		movq	160(%rsp), %rdi
 8069      A0000000 
 8070 02e2 48894424 		movq	%rax, 48(%rsp)
 8070      30
 8071 02e7 4883C028 		addq	$40, %rax
 8072 02eb 48898424 		movq	%rax, 192(%rsp)
 8072      C0000000 
 8073 02f3 498D8424 		leaq	128(%r12), %rax
 8073      80000000 
 8074 02fb 4839C7   		cmpq	%rax, %rdi
 8075 02fe 7405     		je	.L590
 8076 0300 E8000000 		call	_ZdlPv@PLT
 8076      00
 8077              	.L590:
 8078 0305 488D0500 		leaq	64+_ZTCN8UnitTest15MemoryOutStreamE0_NSt7__cxx1119basic_ostringstreamIcSt11char_traitsIcESaIc
 8078      000000
 8079 030c 488BBC24 		movq	128(%rsp), %rdi
 8079      80000000 
 8080 0314 F30F7E05 		movq	.LC2(%rip), %xmm0
 8080      00000000 
 8081 031c 48898424 		movq	%rax, 192(%rsp)
 8081      C0000000 
 8082 0324 498D4424 		leaq	96(%r12), %rax
 8082      60
 8083 0329 0F160500 		movhps	.LC3(%rip), %xmm0
 8083      000000
 8084 0330 4839C7   		cmpq	%rax, %rdi
 8085 0333 0F294424 		movaps	%xmm0, 48(%rsp)
 8085      30
 8086 0338 7405     		je	.L591
 8087 033a E8000000 		call	_ZdlPv@PLT
 8087      00
 8088              	.L591:
 8089 033f 488D0500 		leaq	16+_ZTVSt15basic_streambufIcSt11char_traitsIcEE(%rip), %rax
 8089      000000
 8090 0346 498D7C24 		leaq	64(%r12), %rdi
 8090      40
 8091 034b 48894424 		movq	%rax, 56(%rsp)
 8091      38
 8092 0350 E8000000 		call	_ZNSt6localeD1Ev@PLT
 8092      00
 8093 0355 488D0500 		leaq	24+_ZTCN8UnitTest15MemoryOutStreamE0_So(%rip), %rax
 8093      000000
 8094 035c 498DBC24 		leaq	144(%r12), %rdi
 8094      90000000 
 8095 0364 48894424 		movq	%rax, 48(%rsp)
 8095      30
 8096 0369 488D0500 		leaq	16+_ZTVSt9basic_iosIcSt11char_traitsIcEE(%rip), %rax
 8096      000000
 8097 0370 48898424 		movq	%rax, 192(%rsp)
 8097      C0000000 
 8098              	.LEHB304:
 8099 0378 E8000000 		call	_ZNSt8ios_baseD2Ev@PLT
 8099      00
 8100              	.LEHE304:
 8101 037d E9EBFCFF 		jmp	.L582
 8101      FF
 8102              	.L605:
 8103 0382 E8000000 		call	__stack_chk_fail@PLT
 8103      00
 8104              	.L596:
 8105 0387 4889C3   		movq	%rax, %rbx
 8106              	.L587:
 8107 038a 488D0500 		leaq	16+_ZTVSt9basic_iosIcSt11char_traitsIcEE(%rip), %rax
 8107      000000
 8108 0391 498DBC24 		leaq	144(%r12), %rdi
 8108      90000000 
 8109 0399 48898424 		movq	%rax, 192(%rsp)
 8109      C0000000 
 8110 03a1 E8000000 		call	_ZNSt8ios_baseD2Ev@PLT
 8110      00
 8111 03a6 4889DF   		movq	%rbx, %rdi
 8112              	.LEHB305:
 8113 03a9 E8000000 		call	_Unwind_Resume@PLT
 8113      00
 8114              	.LEHE305:
 8115              	.L597:
 8116 03ae 498D7C24 		leaq	8(%r12), %rdi
 8116      08
 8117 03b3 4889C3   		movq	%rax, %rbx
 8118 03b6 E8000000 		call	_ZNSt7__cxx1115basic_stringbufIcSt11char_traitsIcESaIcEED1Ev
 8118      00
 8119 03bb 488D0500 		leaq	24+_ZTCN8UnitTest15MemoryOutStreamE0_So(%rip), %rax
 8119      000000
 8120 03c2 48894424 		movq	%rax, 48(%rsp)
 8120      30
 8121 03c7 EBC1     		jmp	.L587
 8122              	.L595:
 8123 03c9 4889C3   		movq	%rax, %rbx
 8124 03cc 4C89E7   		movq	%r12, %rdi
 8125 03cf E8000000 		call	_ZN8UnitTest15MemoryOutStreamD1Ev
 8125      00
 8126 03d4 4889DF   		movq	%rbx, %rdi
 8127              	.LEHB306:
 8128 03d7 E8000000 		call	_Unwind_Resume@PLT
 8128      00
 8129              	.LEHE306:
 8130              		.cfi_endproc
 8131              	.LFE1349:
 8132              		.section	.gcc_except_table
 8133              	.LLSDA1349:
 8134 0658 FF       		.byte	0xff
 8135 0659 FF       		.byte	0xff
 8136 065a 01       		.byte	0x1
 8137 065b 22       		.uleb128 .LLSDACSE1349-.LLSDACSB1349
 8138              	.LLSDACSB1349:
 8139 065c 9E02     		.uleb128 .LEHB301-.LFB1349
 8140 065e 05       		.uleb128 .LEHE301-.LEHB301
 8141 065f 8707     		.uleb128 .L596-.LFB1349
 8142 0661 00       		.uleb128 0
 8143 0662 AA03     		.uleb128 .LEHB302-.LFB1349
 8144 0664 05       		.uleb128 .LEHE302-.LEHB302
 8145 0665 AE07     		.uleb128 .L597-.LFB1349
 8146 0667 00       		.uleb128 0
 8147 0668 FA03     		.uleb128 .LEHB303-.LFB1349
 8148 066a D901     		.uleb128 .LEHE303-.LEHB303
 8149 066c C907     		.uleb128 .L595-.LFB1349
 8150 066e 00       		.uleb128 0
 8151 066f F806     		.uleb128 .LEHB304-.LFB1349
 8152 0671 05       		.uleb128 .LEHE304-.LEHB304
 8153 0672 00       		.uleb128 0
 8154 0673 00       		.uleb128 0
 8155 0674 A907     		.uleb128 .LEHB305-.LFB1349
 8156 0676 05       		.uleb128 .LEHE305-.LEHB305
 8157 0677 00       		.uleb128 0
 8158 0678 00       		.uleb128 0
 8159 0679 D707     		.uleb128 .LEHB306-.LFB1349
 8160 067b 05       		.uleb128 .LEHE306-.LEHB306
 8161 067c 00       		.uleb128 0
 8162 067d 00       		.uleb128 0
 8163              	.LLSDACSE1349:
 8164              		.section	.text._ZN8UnitTest15CheckArrayEqualIPKcPhEEvRNS_11TestResultsERKT_RKT0_iRKNS_11TestDetail
 8166              		.section	.rodata.str1.8
 8167 08fc 00000000 		.align 8
 8168              	.LC65:
 8169 0900 556E6861 		.string	"Unhandled exception in CHECK_EQUAL(data.length, mask.length)"
 8169      6E646C65 
 8169      64206578 
 8169      63657074 
 8169      696F6E20 
 8170 093d 000000   		.align 8
 8171              	.LC66:
 8172 0940 556E6861 		.string	"Unhandled exception in CHECK_ARRAY_EQUAL(expectedWriteMap, mask.data)"
 8172      6E646C65 
 8172      64206578 
 8172      63657074 
 8172      696F6E20 
 8173              		.text
 8174 318d 0F1F00   		.p2align 4,,15
 8175              		.globl	_Z18testDeriveWriteMapPKcS0_
 8177              	_Z18testDeriveWriteMapPKcS0_:
 8178              	.LFB1290:
 8179              		.cfi_startproc
 8180              		.cfi_personality 0x9b,DW.ref.__gxx_personality_v0
 8181              		.cfi_lsda 0x1b,.LLSDA1290
 8182 3190 4156     		pushq	%r14
 8183              		.cfi_def_cfa_offset 16
 8184              		.cfi_offset 14, -16
 8185 3192 4155     		pushq	%r13
 8186              		.cfi_def_cfa_offset 24
 8187              		.cfi_offset 13, -24
 8188 3194 31C9     		xorl	%ecx, %ecx
 8189 3196 4154     		pushq	%r12
 8190              		.cfi_def_cfa_offset 32
 8191              		.cfi_offset 12, -32
 8192 3198 55       		pushq	%rbp
 8193              		.cfi_def_cfa_offset 40
 8194              		.cfi_offset 6, -40
 8195 3199 4989FD   		movq	%rdi, %r13
 8196 319c 53       		pushq	%rbx
 8197              		.cfi_def_cfa_offset 48
 8198              		.cfi_offset 3, -48
 8199 319d BA2E0000 		movl	$46, %edx
 8199      00
 8200 31a2 4881EC90 		subq	$144, %rsp
 8200      000000
 8201              		.cfi_def_cfa_offset 192
 8202 31a9 4C8D6424 		leaq	32(%rsp), %r12
 8202      20
 8203 31ae 48897424 		movq	%rsi, 8(%rsp)
 8203      08
 8204 31b3 BE000400 		movl	$1024, %esi
 8204      00
 8205 31b8 64488B04 		movq	%fs:40, %rax
 8205      25280000 
 8205      00
 8206 31c1 48898424 		movq	%rax, 136(%rsp)
 8206      88000000 
 8207 31c9 31C0     		xorl	%eax, %eax
 8208 31cb 4C89E7   		movq	%r12, %rdi
 8209              	.LEHB307:
 8210 31ce E8000000 		call	bufInitialise@PLT
 8210      00
 8211              	.LEHE307:
 8212 31d3 89442418 		movl	%eax, 24(%rsp)
 8213              	.LEHB308:
 8214 31d7 E8000000 		call	_ZN8UnitTest11CurrentTest7DetailsEv@PLT
 8214      00
 8215 31dc 488D5C24 		leaq	96(%rsp), %rbx
 8215      60
 8216 31e1 488B30   		movq	(%rax), %rsi
 8217 31e4 BA1B0100 		movl	$283, %edx
 8217      00
 8218 31e9 4889DF   		movq	%rbx, %rdi
 8219 31ec E8000000 		call	_ZN8UnitTest11TestDetailsC1ERKS0_i@PLT
 8219      00
 8220 31f1 C7442440 		movl	$0, 64(%rsp)
 8220      00000000 
 8221 31f9 E8000000 		call	_ZN8UnitTest11CurrentTest7ResultsEv@PLT
 8221      00
 8222 31fe 488D6C24 		leaq	64(%rsp), %rbp
 8222      40
 8223 3203 488B38   		movq	(%rax), %rdi
 8224 3206 488D5424 		leaq	24(%rsp), %rdx
 8224      18
 8225 320b 4889D9   		movq	%rbx, %rcx
 8226 320e 4889EE   		movq	%rbp, %rsi
 8227 3211 E8000000 		call	_ZN8UnitTest10CheckEqualI12BufferStatusS1_EEvRNS_11TestResultsERKT_RKT0_RKNS_11TestDetailsE
 8227      00
 8228              	.LEHE308:
 8229              	.L612:
 8230 3216 31C9     		xorl	%ecx, %ecx
 8231 3218 31D2     		xorl	%edx, %edx
 8232 321a BE000400 		movl	$1024, %esi
 8232      00
 8233 321f 4889EF   		movq	%rbp, %rdi
 8234              	.LEHB309:
 8235 3222 E8000000 		call	bufInitialise@PLT
 8235      00
 8236              	.LEHE309:
 8237 3227 89442418 		movl	%eax, 24(%rsp)
 8238              	.LEHB310:
 8239 322b E8000000 		call	_ZN8UnitTest11CurrentTest7DetailsEv@PLT
 8239      00
 8240 3230 488B30   		movq	(%rax), %rsi
 8241 3233 BA1D0100 		movl	$285, %edx
 8241      00
 8242 3238 4889DF   		movq	%rbx, %rdi
 8243 323b E8000000 		call	_ZN8UnitTest11TestDetailsC1ERKS0_i@PLT
 8243      00
 8244 3240 C744241C 		movl	$0, 28(%rsp)
 8244      00000000 
 8245 3248 E8000000 		call	_ZN8UnitTest11CurrentTest7ResultsEv@PLT
 8245      00
 8246 324d 488B38   		movq	(%rax), %rdi
 8247 3250 488D5424 		leaq	24(%rsp), %rdx
 8247      18
 8248 3255 488D7424 		leaq	28(%rsp), %rsi
 8248      1C
 8249 325a 4889D9   		movq	%rbx, %rcx
 8250 325d E8000000 		call	_ZN8UnitTest10CheckEqualI12BufferStatusS1_EEvRNS_11TestResultsERKT_RKT0_RKNS_11TestDetailsE
 8250      00
 8251              	.LEHE310:
 8252              	.L615:
 8253 3262 4C89EF   		movq	%r13, %rdi
 8254 3265 E8000000 		call	strlen@PLT
 8254      00
 8255 326a 4531C0   		xorl	%r8d, %r8d
 8256 326d 4889C1   		movq	%rax, %rcx
 8257 3270 4C89EA   		movq	%r13, %rdx
 8258 3273 31F6     		xorl	%esi, %esi
 8259 3275 4C89E7   		movq	%r12, %rdi
 8260              	.LEHB311:
 8261 3278 E8000000 		call	bufWriteBlock@PLT
 8261      00
 8262              	.LEHE311:
 8263 327d 89442418 		movl	%eax, 24(%rsp)
 8264              	.LEHB312:
 8265 3281 E8000000 		call	_ZN8UnitTest11CurrentTest7DetailsEv@PLT
 8265      00
 8266 3286 488B30   		movq	(%rax), %rsi
 8267 3289 BA1F0100 		movl	$287, %edx
 8267      00
 8268 328e 4889DF   		movq	%rbx, %rdi
 8269 3291 E8000000 		call	_ZN8UnitTest11TestDetailsC1ERKS0_i@PLT
 8269      00
 8270 3296 C744241C 		movl	$0, 28(%rsp)
 8270      00000000 
 8271 329e E8000000 		call	_ZN8UnitTest11CurrentTest7ResultsEv@PLT
 8271      00
 8272 32a3 488B38   		movq	(%rax), %rdi
 8273 32a6 488D5424 		leaq	24(%rsp), %rdx
 8273      18
 8274 32ab 488D7424 		leaq	28(%rsp), %rsi
 8274      1C
 8275 32b0 4889D9   		movq	%rbx, %rcx
 8276 32b3 E8000000 		call	_ZN8UnitTest10CheckEqualI12BufferStatusS1_EEvRNS_11TestResultsERKT_RKT0_RKNS_11TestDetailsE
 8276      00
 8277              	.LEHE312:
 8278              	.L618:
 8279 32b8 31D2     		xorl	%edx, %edx
 8280 32ba 4889EE   		movq	%rbp, %rsi
 8281 32bd 4C89E7   		movq	%r12, %rdi
 8282              	.LEHB313:
 8283 32c0 E8000000 		call	bufDeriveMask@PLT
 8283      00
 8284              	.LEHE313:
 8285 32c5 89442418 		movl	%eax, 24(%rsp)
 8286              	.LEHB314:
 8287 32c9 E8000000 		call	_ZN8UnitTest11CurrentTest7DetailsEv@PLT
 8287      00
 8288 32ce 488B30   		movq	(%rax), %rsi
 8289 32d1 BA210100 		movl	$289, %edx
 8289      00
 8290 32d6 4889DF   		movq	%rbx, %rdi
 8291 32d9 E8000000 		call	_ZN8UnitTest11TestDetailsC1ERKS0_i@PLT
 8291      00
 8292 32de C744241C 		movl	$0, 28(%rsp)
 8292      00000000 
 8293 32e6 E8000000 		call	_ZN8UnitTest11CurrentTest7ResultsEv@PLT
 8293      00
 8294 32eb 488B38   		movq	(%rax), %rdi
 8295 32ee 488D5424 		leaq	24(%rsp), %rdx
 8295      18
 8296 32f3 488D7424 		leaq	28(%rsp), %rsi
 8296      1C
 8297 32f8 4889D9   		movq	%rbx, %rcx
 8298 32fb E8000000 		call	_ZN8UnitTest10CheckEqualI12BufferStatusS1_EEvRNS_11TestResultsERKT_RKT0_RKNS_11TestDetailsE
 8298      00
 8299              	.LEHE314:
 8300              	.L621:
 8301              	.LEHB315:
 8302 3300 E8000000 		call	_ZN8UnitTest11CurrentTest7DetailsEv@PLT
 8302      00
 8303 3305 488B30   		movq	(%rax), %rsi
 8304 3308 BA220100 		movl	$290, %edx
 8304      00
 8305 330d 4889DF   		movq	%rbx, %rdi
 8306 3310 E8000000 		call	_ZN8UnitTest11TestDetailsC1ERKS0_i@PLT
 8306      00
 8307 3315 E8000000 		call	_ZN8UnitTest11CurrentTest7ResultsEv@PLT
 8307      00
 8308 331a 488B38   		movq	(%rax), %rdi
 8309 331d 488D5508 		leaq	8(%rbp), %rdx
 8310 3321 498D7424 		leaq	8(%r12), %rsi
 8310      08
 8311 3326 4889D9   		movq	%rbx, %rcx
 8312 3329 E8000000 		call	_ZN8UnitTest10CheckEqualImmEEvRNS_11TestResultsERKT_RKT0_RKNS_11TestDetailsE
 8312      00
 8313              	.LEHE315:
 8314              	.L624:
 8315 332e 48837C24 		cmpq	$0, 72(%rsp)
 8315      4800
 8316 3334 7425     		je	.L607
 8317 3336 31C0     		xorl	%eax, %eax
 8318 3338 0F1F8400 		.p2align 4,,10
 8318      00000000 
 8319              		.p2align 3
 8320              	.L608:
 8321 3340 488B5424 		movq	64(%rsp), %rdx
 8321      40
 8322 3345 4801C2   		addq	%rax, %rdx
 8323 3348 803A00   		cmpb	$0, (%rdx)
 8324 334b 747B     		je	.L609
 8325 334d C6022A   		movb	$42, (%rdx)
 8326 3350 4883C001 		addq	$1, %rax
 8327 3354 48394424 		cmpq	%rax, 72(%rsp)
 8327      48
 8328 3359 77E5     		ja	.L608
 8329              	.L607:
 8330              	.LEHB316:
 8331 335b E8000000 		call	_ZN8UnitTest11CurrentTest7DetailsEv@PLT
 8331      00
 8332 3360 488B30   		movq	(%rax), %rsi
 8333 3363 BA2A0100 		movl	$298, %edx
 8333      00
 8334 3368 4889DF   		movq	%rbx, %rdi
 8335 336b E8000000 		call	_ZN8UnitTest11TestDetailsC1ERKS0_i@PLT
 8335      00
 8336 3370 4C8B6C24 		movq	72(%rsp), %r13
 8336      48
 8337 3375 E8000000 		call	_ZN8UnitTest11CurrentTest7ResultsEv@PLT
 8337      00
 8338 337a 488B38   		movq	(%rax), %rdi
 8339 337d 488D7424 		leaq	8(%rsp), %rsi
 8339      08
 8340 3382 4989D8   		movq	%rbx, %r8
 8341 3385 4489E9   		movl	%r13d, %ecx
 8342 3388 4889EA   		movq	%rbp, %rdx
 8343 338b E8000000 		call	_ZN8UnitTest15CheckArrayEqualIPKcPhEEvRNS_11TestResultsERKT_RKT0_iRKNS_11TestDetailsE
 8343      00
 8344              	.LEHE316:
 8345              	.L627:
 8346 3390 4C89E7   		movq	%r12, %rdi
 8347              	.LEHB317:
 8348 3393 E8000000 		call	bufDestroy@PLT
 8348      00
 8349 3398 4889EF   		movq	%rbp, %rdi
 8350 339b E8000000 		call	bufDestroy@PLT
 8350      00
 8351              	.LEHE317:
 8352 33a0 488B8424 		movq	136(%rsp), %rax
 8352      88000000 
 8353 33a8 64483304 		xorq	%fs:40, %rax
 8353      25280000 
 8353      00
 8354 33b1 752C     		jne	.L644
 8355 33b3 4881C490 		addq	$144, %rsp
 8355      000000
 8356              		.cfi_remember_state
 8357              		.cfi_def_cfa_offset 48
 8358 33ba 5B       		popq	%rbx
 8359              		.cfi_def_cfa_offset 40
 8360 33bb 5D       		popq	%rbp
 8361              		.cfi_def_cfa_offset 32
 8362 33bc 415C     		popq	%r12
 8363              		.cfi_def_cfa_offset 24
 8364 33be 415D     		popq	%r13
 8365              		.cfi_def_cfa_offset 16
 8366 33c0 415E     		popq	%r14
 8367              		.cfi_def_cfa_offset 8
 8368 33c2 C3       		ret
 8369              		.p2align 4,,10
 8370 33c3 0F1F4400 		.p2align 3
 8370      00
 8371              	.L609:
 8372              		.cfi_restore_state
 8373 33c8 C6022E   		movb	$46, (%rdx)
 8374 33cb 4883C001 		addq	$1, %rax
 8375 33cf 483B4424 		cmpq	72(%rsp), %rax
 8375      48
 8376 33d4 0F8266FF 		jb	.L608
 8376      FFFF
 8377 33da E97CFFFF 		jmp	.L607
 8377      FF
 8378              	.L644:
 8379 33df E8000000 		call	__stack_chk_fail@PLT
 8379      00
 8380              	.L640:
 8381 33e4 4889C7   		movq	%rax, %rdi
 8382 33e7 E8000000 		call	__cxa_begin_catch@PLT
 8382      00
 8383              	.LEHB318:
 8384 33ec E8000000 		call	_ZN8UnitTest11CurrentTest7ResultsEv@PLT
 8384      00
 8385 33f1 4C8B28   		movq	(%rax), %r13
 8386 33f4 E8000000 		call	_ZN8UnitTest11CurrentTest7DetailsEv@PLT
 8386      00
 8387 33f9 488B30   		movq	(%rax), %rsi
 8388 33fc BA2A0100 		movl	$298, %edx
 8388      00
 8389 3401 4889DF   		movq	%rbx, %rdi
 8390 3404 E8000000 		call	_ZN8UnitTest11TestDetailsC1ERKS0_i@PLT
 8390      00
 8391 3409 488D1500 		leaq	.LC66(%rip), %rdx
 8391      000000
 8392 3410 4889DE   		movq	%rbx, %rsi
 8393 3413 4C89EF   		movq	%r13, %rdi
 8394 3416 E8000000 		call	_ZN8UnitTest11TestResults13OnTestFailureERKNS_11TestDetailsEPKc@PLT
 8394      00
 8395              	.LEHE318:
 8396              	.LEHB319:
 8397 341b E8000000 		call	__cxa_end_catch@PLT
 8397      00
 8398              	.LEHE319:
 8399 3420 E96BFFFF 		jmp	.L627
 8399      FF
 8400              	.L638:
 8401 3425 4889C7   		movq	%rax, %rdi
 8402 3428 E8000000 		call	__cxa_begin_catch@PLT
 8402      00
 8403              	.LEHB320:
 8404 342d E8000000 		call	_ZN8UnitTest11CurrentTest7ResultsEv@PLT
 8404      00
 8405 3432 4C8B28   		movq	(%rax), %r13
 8406 3435 E8000000 		call	_ZN8UnitTest11CurrentTest7DetailsEv@PLT
 8406      00
 8407 343a 488B30   		movq	(%rax), %rsi
 8408 343d BA220100 		movl	$290, %edx
 8408      00
 8409 3442 4889DF   		movq	%rbx, %rdi
 8410 3445 E8000000 		call	_ZN8UnitTest11TestDetailsC1ERKS0_i@PLT
 8410      00
 8411 344a 488D1500 		leaq	.LC65(%rip), %rdx
 8411      000000
 8412 3451 4889DE   		movq	%rbx, %rsi
 8413 3454 4C89EF   		movq	%r13, %rdi
 8414 3457 E8000000 		call	_ZN8UnitTest11TestResults13OnTestFailureERKNS_11TestDetailsEPKc@PLT
 8414      00
 8415              	.LEHE320:
 8416              	.LEHB321:
 8417 345c E8000000 		call	__cxa_end_catch@PLT
 8417      00
 8418              	.LEHE321:
 8419 3461 E9C8FEFF 		jmp	.L624
 8419      FF
 8420              	.L641:
 8421 3466 4889C3   		movq	%rax, %rbx
 8422 3469 E8000000 		call	__cxa_end_catch@PLT
 8422      00
 8423 346e 4889DF   		movq	%rbx, %rdi
 8424              	.LEHB322:
 8425 3471 E8000000 		call	_Unwind_Resume@PLT
 8425      00
 8426              	.LEHE322:
 8427              	.L639:
 8428 3476 4889C3   		movq	%rax, %rbx
 8429 3479 E8000000 		call	__cxa_end_catch@PLT
 8429      00
 8430 347e 4889DF   		movq	%rbx, %rdi
 8431              	.LEHB323:
 8432 3481 E8000000 		call	_Unwind_Resume@PLT
 8432      00
 8433              	.LEHE323:
 8434              	.L636:
 8435 3486 4889C7   		movq	%rax, %rdi
 8436 3489 E8000000 		call	__cxa_begin_catch@PLT
 8436      00
 8437              	.LEHB324:
 8438 348e E8000000 		call	_ZN8UnitTest11CurrentTest7ResultsEv@PLT
 8438      00
 8439 3493 4C8B28   		movq	(%rax), %r13
 8440 3496 E8000000 		call	_ZN8UnitTest11CurrentTest7DetailsEv@PLT
 8440      00
 8441 349b 488B30   		movq	(%rax), %rsi
 8442 349e BA210100 		movl	$289, %edx
 8442      00
 8443 34a3 4889DF   		movq	%rbx, %rdi
 8444 34a6 E8000000 		call	_ZN8UnitTest11TestDetailsC1ERKS0_i@PLT
 8444      00
 8445 34ab 488D1500 		leaq	.LC5(%rip), %rdx
 8445      000000
 8446 34b2 4889DE   		movq	%rbx, %rsi
 8447 34b5 4C89EF   		movq	%r13, %rdi
 8448 34b8 E8000000 		call	_ZN8UnitTest11TestResults13OnTestFailureERKNS_11TestDetailsEPKc@PLT
 8448      00
 8449              	.LEHE324:
 8450              	.LEHB325:
 8451 34bd E8000000 		call	__cxa_end_catch@PLT
 8451      00
 8452              	.LEHE325:
 8453 34c2 E939FEFF 		jmp	.L621
 8453      FF
 8454              	.L634:
 8455 34c7 4889C7   		movq	%rax, %rdi
 8456 34ca E8000000 		call	__cxa_begin_catch@PLT
 8456      00
 8457              	.LEHB326:
 8458 34cf E8000000 		call	_ZN8UnitTest11CurrentTest7ResultsEv@PLT
 8458      00
 8459 34d4 4C8B28   		movq	(%rax), %r13
 8460 34d7 E8000000 		call	_ZN8UnitTest11CurrentTest7DetailsEv@PLT
 8460      00
 8461 34dc 488B30   		movq	(%rax), %rsi
 8462 34df BA1F0100 		movl	$287, %edx
 8462      00
 8463 34e4 4889DF   		movq	%rbx, %rdi
 8464 34e7 E8000000 		call	_ZN8UnitTest11TestDetailsC1ERKS0_i@PLT
 8464      00
 8465 34ec 488D1500 		leaq	.LC5(%rip), %rdx
 8465      000000
 8466 34f3 4889DE   		movq	%rbx, %rsi
 8467 34f6 4C89EF   		movq	%r13, %rdi
 8468 34f9 E8000000 		call	_ZN8UnitTest11TestResults13OnTestFailureERKNS_11TestDetailsEPKc@PLT
 8468      00
 8469              	.LEHE326:
 8470              	.LEHB327:
 8471 34fe E8000000 		call	__cxa_end_catch@PLT
 8471      00
 8472              	.LEHE327:
 8473 3503 E9B0FDFF 		jmp	.L618
 8473      FF
 8474              	.L637:
 8475 3508 4889C3   		movq	%rax, %rbx
 8476 350b E8000000 		call	__cxa_end_catch@PLT
 8476      00
 8477 3510 4889DF   		movq	%rbx, %rdi
 8478              	.LEHB328:
 8479 3513 E8000000 		call	_Unwind_Resume@PLT
 8479      00
 8480              	.LEHE328:
 8481              	.L635:
 8482 3518 4889C3   		movq	%rax, %rbx
 8483 351b E8000000 		call	__cxa_end_catch@PLT
 8483      00
 8484 3520 4889DF   		movq	%rbx, %rdi
 8485              	.LEHB329:
 8486 3523 E8000000 		call	_Unwind_Resume@PLT
 8486      00
 8487              	.LEHE329:
 8488              	.L632:
 8489 3528 4889C7   		movq	%rax, %rdi
 8490 352b E8000000 		call	__cxa_begin_catch@PLT
 8490      00
 8491              	.LEHB330:
 8492 3530 E8000000 		call	_ZN8UnitTest11CurrentTest7ResultsEv@PLT
 8492      00
 8493 3535 4C8B30   		movq	(%rax), %r14
 8494 3538 E8000000 		call	_ZN8UnitTest11CurrentTest7DetailsEv@PLT
 8494      00
 8495 353d 488B30   		movq	(%rax), %rsi
 8496 3540 BA1D0100 		movl	$285, %edx
 8496      00
 8497 3545 4889DF   		movq	%rbx, %rdi
 8498 3548 E8000000 		call	_ZN8UnitTest11TestDetailsC1ERKS0_i@PLT
 8498      00
 8499 354d 488D1500 		leaq	.LC5(%rip), %rdx
 8499      000000
 8500 3554 4889DE   		movq	%rbx, %rsi
 8501 3557 4C89F7   		movq	%r14, %rdi
 8502 355a E8000000 		call	_ZN8UnitTest11TestResults13OnTestFailureERKNS_11TestDetailsEPKc@PLT
 8502      00
 8503              	.LEHE330:
 8504              	.LEHB331:
 8505 355f E8000000 		call	__cxa_end_catch@PLT
 8505      00
 8506              	.LEHE331:
 8507 3564 E9F9FCFF 		jmp	.L615
 8507      FF
 8508              	.L630:
 8509 3569 4889C7   		movq	%rax, %rdi
 8510 356c E8000000 		call	__cxa_begin_catch@PLT
 8510      00
 8511              	.LEHB332:
 8512 3571 E8000000 		call	_ZN8UnitTest11CurrentTest7ResultsEv@PLT
 8512      00
 8513 3576 488B28   		movq	(%rax), %rbp
 8514 3579 E8000000 		call	_ZN8UnitTest11CurrentTest7DetailsEv@PLT
 8514      00
 8515 357e 488D5C24 		leaq	96(%rsp), %rbx
 8515      60
 8516 3583 488B30   		movq	(%rax), %rsi
 8517 3586 BA1B0100 		movl	$283, %edx
 8517      00
 8518 358b 4889DF   		movq	%rbx, %rdi
 8519 358e E8000000 		call	_ZN8UnitTest11TestDetailsC1ERKS0_i@PLT
 8519      00
 8520 3593 488D1500 		leaq	.LC5(%rip), %rdx
 8520      000000
 8521 359a 4889DE   		movq	%rbx, %rsi
 8522 359d 4889EF   		movq	%rbp, %rdi
 8523 35a0 E8000000 		call	_ZN8UnitTest11TestResults13OnTestFailureERKNS_11TestDetailsEPKc@PLT
 8523      00
 8524              	.LEHE332:
 8525              	.LEHB333:
 8526 35a5 E8000000 		call	__cxa_end_catch@PLT
 8526      00
 8527              	.LEHE333:
 8528 35aa 488D6C24 		leaq	64(%rsp), %rbp
 8528      40
 8529 35af E962FCFF 		jmp	.L612
 8529      FF
 8530              	.L633:
 8531 35b4 4889C3   		movq	%rax, %rbx
 8532 35b7 E8000000 		call	__cxa_end_catch@PLT
 8532      00
 8533 35bc 4889DF   		movq	%rbx, %rdi
 8534              	.LEHB334:
 8535 35bf E8000000 		call	_Unwind_Resume@PLT
 8535      00
 8536              	.LEHE334:
 8537              	.L631:
 8538 35c4 4889C3   		movq	%rax, %rbx
 8539 35c7 E8000000 		call	__cxa_end_catch@PLT
 8539      00
 8540 35cc 4889DF   		movq	%rbx, %rdi
 8541              	.LEHB335:
 8542 35cf E8000000 		call	_Unwind_Resume@PLT
 8542      00
 8543              	.LEHE335:
 8544              		.cfi_endproc
 8545              	.LFE1290:
 8546              		.section	.gcc_except_table
 8547 067e 0000     		.align 4
 8548              	.LLSDA1290:
 8549 0680 FF       		.byte	0xff
 8550 0681 9B       		.byte	0x9b
 8551 0682 A401     		.uleb128 .LLSDATT1290-.LLSDATTD1290
 8552              	.LLSDATTD1290:
 8553 0684 01       		.byte	0x1
 8554 0685 9B01     		.uleb128 .LLSDACSE1290-.LLSDACSB1290
 8555              	.LLSDACSB1290:
 8556 0687 3E       		.uleb128 .LEHB307-.LFB1290
 8557 0688 05       		.uleb128 .LEHE307-.LEHB307
 8558 0689 00       		.uleb128 0
 8559 068a 00       		.uleb128 0
 8560 068b 47       		.uleb128 .LEHB308-.LFB1290
 8561 068c 3F       		.uleb128 .LEHE308-.LEHB308
 8562 068d D907     		.uleb128 .L630-.LFB1290
 8563 068f 01       		.uleb128 0x1
 8564 0690 9201     		.uleb128 .LEHB309-.LFB1290
 8565 0692 05       		.uleb128 .LEHE309-.LEHB309
 8566 0693 00       		.uleb128 0
 8567 0694 00       		.uleb128 0
 8568 0695 9B01     		.uleb128 .LEHB310-.LFB1290
 8569 0697 37       		.uleb128 .LEHE310-.LEHB310
 8570 0698 9807     		.uleb128 .L632-.LFB1290
 8571 069a 01       		.uleb128 0x1
 8572 069b E801     		.uleb128 .LEHB311-.LFB1290
 8573 069d 05       		.uleb128 .LEHE311-.LEHB311
 8574 069e 00       		.uleb128 0
 8575 069f 00       		.uleb128 0
 8576 06a0 F101     		.uleb128 .LEHB312-.LFB1290
 8577 06a2 37       		.uleb128 .LEHE312-.LEHB312
 8578 06a3 B706     		.uleb128 .L634-.LFB1290
 8579 06a5 01       		.uleb128 0x1
 8580 06a6 B002     		.uleb128 .LEHB313-.LFB1290
 8581 06a8 05       		.uleb128 .LEHE313-.LEHB313
 8582 06a9 00       		.uleb128 0
 8583 06aa 00       		.uleb128 0
 8584 06ab B902     		.uleb128 .LEHB314-.LFB1290
 8585 06ad 37       		.uleb128 .LEHE314-.LEHB314
 8586 06ae F605     		.uleb128 .L636-.LFB1290
 8587 06b0 01       		.uleb128 0x1
 8588 06b1 F002     		.uleb128 .LEHB315-.LFB1290
 8589 06b3 2E       		.uleb128 .LEHE315-.LEHB315
 8590 06b4 9505     		.uleb128 .L638-.LFB1290
 8591 06b6 01       		.uleb128 0x1
 8592 06b7 CB03     		.uleb128 .LEHB316-.LFB1290
 8593 06b9 35       		.uleb128 .LEHE316-.LEHB316
 8594 06ba D404     		.uleb128 .L640-.LFB1290
 8595 06bc 01       		.uleb128 0x1
 8596 06bd 8304     		.uleb128 .LEHB317-.LFB1290
 8597 06bf 0D       		.uleb128 .LEHE317-.LEHB317
 8598 06c0 00       		.uleb128 0
 8599 06c1 00       		.uleb128 0
 8600 06c2 DC04     		.uleb128 .LEHB318-.LFB1290
 8601 06c4 2F       		.uleb128 .LEHE318-.LEHB318
 8602 06c5 D605     		.uleb128 .L641-.LFB1290
 8603 06c7 00       		.uleb128 0
 8604 06c8 8B05     		.uleb128 .LEHB319-.LFB1290
 8605 06ca 05       		.uleb128 .LEHE319-.LEHB319
 8606 06cb 00       		.uleb128 0
 8607 06cc 00       		.uleb128 0
 8608 06cd 9D05     		.uleb128 .LEHB320-.LFB1290
 8609 06cf 2F       		.uleb128 .LEHE320-.LEHB320
 8610 06d0 E605     		.uleb128 .L639-.LFB1290
 8611 06d2 00       		.uleb128 0
 8612 06d3 CC05     		.uleb128 .LEHB321-.LFB1290
 8613 06d5 05       		.uleb128 .LEHE321-.LEHB321
 8614 06d6 00       		.uleb128 0
 8615 06d7 00       		.uleb128 0
 8616 06d8 E105     		.uleb128 .LEHB322-.LFB1290
 8617 06da 05       		.uleb128 .LEHE322-.LEHB322
 8618 06db 00       		.uleb128 0
 8619 06dc 00       		.uleb128 0
 8620 06dd F105     		.uleb128 .LEHB323-.LFB1290
 8621 06df 05       		.uleb128 .LEHE323-.LEHB323
 8622 06e0 00       		.uleb128 0
 8623 06e1 00       		.uleb128 0
 8624 06e2 FE05     		.uleb128 .LEHB324-.LFB1290
 8625 06e4 2F       		.uleb128 .LEHE324-.LEHB324
 8626 06e5 F806     		.uleb128 .L637-.LFB1290
 8627 06e7 00       		.uleb128 0
 8628 06e8 AD06     		.uleb128 .LEHB325-.LFB1290
 8629 06ea 05       		.uleb128 .LEHE325-.LEHB325
 8630 06eb 00       		.uleb128 0
 8631 06ec 00       		.uleb128 0
 8632 06ed BF06     		.uleb128 .LEHB326-.LFB1290
 8633 06ef 2F       		.uleb128 .LEHE326-.LEHB326
 8634 06f0 8807     		.uleb128 .L635-.LFB1290
 8635 06f2 00       		.uleb128 0
 8636 06f3 EE06     		.uleb128 .LEHB327-.LFB1290
 8637 06f5 05       		.uleb128 .LEHE327-.LEHB327
 8638 06f6 00       		.uleb128 0
 8639 06f7 00       		.uleb128 0
 8640 06f8 8307     		.uleb128 .LEHB328-.LFB1290
 8641 06fa 05       		.uleb128 .LEHE328-.LEHB328
 8642 06fb 00       		.uleb128 0
 8643 06fc 00       		.uleb128 0
 8644 06fd 9307     		.uleb128 .LEHB329-.LFB1290
 8645 06ff 05       		.uleb128 .LEHE329-.LEHB329
 8646 0700 00       		.uleb128 0
 8647 0701 00       		.uleb128 0
 8648 0702 A007     		.uleb128 .LEHB330-.LFB1290
 8649 0704 2F       		.uleb128 .LEHE330-.LEHB330
 8650 0705 A408     		.uleb128 .L633-.LFB1290
 8651 0707 00       		.uleb128 0
 8652 0708 CF07     		.uleb128 .LEHB331-.LFB1290
 8653 070a 05       		.uleb128 .LEHE331-.LEHB331
 8654 070b 00       		.uleb128 0
 8655 070c 00       		.uleb128 0
 8656 070d E107     		.uleb128 .LEHB332-.LFB1290
 8657 070f 34       		.uleb128 .LEHE332-.LEHB332
 8658 0710 B408     		.uleb128 .L631-.LFB1290
 8659 0712 00       		.uleb128 0
 8660 0713 9508     		.uleb128 .LEHB333-.LFB1290
 8661 0715 05       		.uleb128 .LEHE333-.LEHB333
 8662 0716 00       		.uleb128 0
 8663 0717 00       		.uleb128 0
 8664 0718 AF08     		.uleb128 .LEHB334-.LFB1290
 8665 071a 05       		.uleb128 .LEHE334-.LEHB334
 8666 071b 00       		.uleb128 0
 8667 071c 00       		.uleb128 0
 8668 071d BF08     		.uleb128 .LEHB335-.LFB1290
 8669 071f 05       		.uleb128 .LEHE335-.LEHB335
 8670 0720 00       		.uleb128 0
 8671 0721 00       		.uleb128 0
 8672              	.LLSDACSE1290:
 8673 0722 01       		.byte	0x1
 8674 0723 00       		.byte	0
 8675              		.align 4
 8676 0724 00000000 		.long	0
 8677              	
 8678              	.LLSDATT1290:
 8679              		.text
 8681              		.section	.rodata.str1.1
 8682              	.LC67:
 8683 017b 2A2A2A2A 		.string	"*****........*****"
 8683      2A2E2E2E 
 8683      2E2E2E2E 
 8683      2E2A2A2A 
 8683      2A2A00
 8684              	.LC68:
 8685 018e 48656C6C 		.string	"Hello........World"
 8685      6F2E2E2E 
 8685      2E2E2E2E 
 8685      2E576F72 
 8685      6C6400
 8686              	.LC69:
 8687 01a1 2A2A2A2A 		.string	"*****************"
 8687      2A2A2A2A 
 8687      2A2A2A2A 
 8687      2A2A2A2A 
 8687      2A00
 8688              	.LC70:
 8689 01b3 48656C6C 		.string	"Hello.......World"
 8689      6F2E2E2E 
 8689      2E2E2E2E 
 8689      576F726C 
 8689      6400
 8690              		.text
 8691              		.align 2
 8692 35d4 6690662E 		.p2align 4,,15
 8692      0F1F8400 
 8692      00000000 
 8693              		.globl	_ZNK28TestHexIO_testDeriveWriteMap7RunImplEv
 8695              	_ZNK28TestHexIO_testDeriveWriteMap7RunImplEv:
 8696              	.LFB1294:
 8697              		.cfi_startproc
 8698 35e0 488D3500 		leaq	.LC67(%rip), %rsi
 8698      000000
 8699 35e7 488D3D00 		leaq	.LC68(%rip), %rdi
 8699      000000
 8700 35ee 4883EC08 		subq	$8, %rsp
 8701              		.cfi_def_cfa_offset 16
 8702 35f2 E8000000 		call	_Z18testDeriveWriteMapPKcS0_
 8702      00
 8703 35f7 488D3500 		leaq	.LC69(%rip), %rsi
 8703      000000
 8704 35fe 488D3D00 		leaq	.LC70(%rip), %rdi
 8704      000000
 8705 3605 4883C408 		addq	$8, %rsp
 8706              		.cfi_def_cfa_offset 8
 8707 3609 E982FBFF 		jmp	_Z18testDeriveWriteMapPKcS0_
 8707      FF
 8708              		.cfi_endproc
 8709              	.LFE1294:
 8711              		.section	.rodata.str1.1
 8712              	.LC71:
 8713 01c5 74657374 		.string	"testHexIO.cpp"
 8713      48657849 
 8713      4F2E6370 
 8713      7000
 8714              	.LC72:
 8715 01d3 44656661 		.string	"DefaultSuite"
 8715      756C7453 
 8715      75697465 
 8715      00
 8716              	.LC73:
 8717 01e0 48657849 		.string	"HexIO_testValidDataLine"
 8717      4F5F7465 
 8717      73745661 
 8717      6C696444 
 8717      6174614C 
 8718              	.LC74:
 8719 01f8 48657849 		.string	"HexIO_testValidEOF"
 8719      4F5F7465 
 8719      73745661 
 8719      6C696445 
 8719      4F4600
 8720              	.LC75:
 8721 020b 48657849 		.string	"HexIO_testJunkStartCode"
 8721      4F5F7465 
 8721      73744A75 
 8721      6E6B5374 
 8721      61727443 
 8722              	.LC76:
 8723 0223 48657849 		.string	"HexIO_testJunkByteCount"
 8723      4F5F7465 
 8723      73744A75 
 8723      6E6B4279 
 8723      7465436F 
 8724              	.LC77:
 8725 023b 48657849 		.string	"HexIO_testJunkAddrMsb"
 8725      4F5F7465 
 8725      73744A75 
 8725      6E6B4164 
 8725      64724D73 
 8726              	.LC78:
 8727 0251 48657849 		.string	"HexIO_testJunkAddrLsb"
 8727      4F5F7465 
 8727      73744A75 
 8727      6E6B4164 
 8727      64724C73 
 8728              	.LC79:
 8729 0267 48657849 		.string	"HexIO_testJunkRecType"
 8729      4F5F7465 
 8729      73744A75 
 8729      6E6B5265 
 8729      63547970 
 8730              	.LC80:
 8731 027d 48657849 		.string	"HexIO_testJunkDataByte"
 8731      4F5F7465 
 8731      73744A75 
 8731      6E6B4461 
 8731      74614279 
 8732              	.LC81:
 8733 0294 48657849 		.string	"HexIO_testJunkChecksum"
 8733      4F5F7465 
 8733      73744A75 
 8733      6E6B4368 
 8733      65636B73 
 8734              	.LC82:
 8735 02ab 48657849 		.string	"HexIO_testBadChecksum"
 8735      4F5F7465 
 8735      73744261 
 8735      64436865 
 8735      636B7375 
 8736              	.LC83:
 8737 02c1 48657849 		.string	"HexIO_testCorruptLine"
 8737      4F5F7465 
 8737      7374436F 
 8737      72727570 
 8737      744C696E 
 8738              	.LC84:
 8739 02d7 48657849 		.string	"HexIO_testRoundTrip"
 8739      4F5F7465 
 8739      7374526F 
 8739      756E6454 
 8739      72697000 
 8740              	.LC85:
 8741 02eb 48657849 		.string	"HexIO_testDeriveWriteMap"
 8741      4F5F7465 
 8741      73744465 
 8741      72697665 
 8741      57726974 
 8742              		.section	.text.startup,"ax",@progbits
 8743              		.p2align 4,,15
 8745              	_GLOBAL__sub_I_testHexIO_testValidDataLineInstance:
 8746              	.LFB1479:
 8747              		.cfi_startproc
 8748 0000 53       		pushq	%rbx
 8749              		.cfi_def_cfa_offset 16
 8750              		.cfi_offset 3, -16
 8751 0001 488D0D00 		leaq	.LC71(%rip), %rcx
 8751      000000
 8752 0008 488D1500 		leaq	.LC72(%rip), %rdx
 8752      000000
 8753 000f 488D3500 		leaq	.LC73(%rip), %rsi
 8753      000000
 8754 0016 488D3D00 		leaq	testHexIO_testValidDataLineInstance(%rip), %rdi
 8754      000000
 8755 001d 41B81B00 		movl	$27, %r8d
 8755      0000
 8756 0023 488D1D00 		leaq	testHexIO_testValidDataLineInstance(%rip), %rbx
 8756      000000
 8757 002a E8000000 		call	_ZN8UnitTest4TestC2EPKcS2_S2_i@PLT
 8757      00
 8758 002f 488D1500 		leaq	__dso_handle(%rip), %rdx
 8758      000000
 8759 0036 488D3D00 		leaq	_ZN27TestHexIO_testValidDataLineD1Ev(%rip), %rdi
 8759      000000
 8760 003d 488D0500 		leaq	16+_ZTV27TestHexIO_testValidDataLine(%rip), %rax
 8760      000000
 8761 0044 4889DE   		movq	%rbx, %rsi
 8762 0047 48890500 		movq	%rax, testHexIO_testValidDataLineInstance(%rip)
 8762      000000
 8763 004e E8000000 		call	__cxa_atexit@PLT
 8763      00
 8764 0053 E8000000 		call	_ZN8UnitTest4Test11GetTestListEv@PLT
 8764      00
 8765 0058 488D3D00 		leaq	adderHexIO_testValidDataLine(%rip), %rdi
 8765      000000
 8766 005f 4889C6   		movq	%rax, %rsi
 8767 0062 4889DA   		movq	%rbx, %rdx
 8768 0065 488D1D00 		leaq	testHexIO_testValidEOFInstance(%rip), %rbx
 8768      000000
 8769 006c E8000000 		call	_ZN8UnitTest9ListAdderC1ERNS_8TestListEPNS_4TestE@PLT
 8769      00
 8770 0071 488D0D00 		leaq	.LC71(%rip), %rcx
 8770      000000
 8771 0078 488D1500 		leaq	.LC72(%rip), %rdx
 8771      000000
 8772 007f 488D3500 		leaq	.LC74(%rip), %rsi
 8772      000000
 8773 0086 488D3D00 		leaq	testHexIO_testValidEOFInstance(%rip), %rdi
 8773      000000
 8774 008d 41B83200 		movl	$50, %r8d
 8774      0000
 8775 0093 E8000000 		call	_ZN8UnitTest4TestC2EPKcS2_S2_i@PLT
 8775      00
 8776 0098 488D1500 		leaq	__dso_handle(%rip), %rdx
 8776      000000
 8777 009f 488D3D00 		leaq	_ZN22TestHexIO_testValidEOFD1Ev(%rip), %rdi
 8777      000000
 8778 00a6 488D0500 		leaq	16+_ZTV22TestHexIO_testValidEOF(%rip), %rax
 8778      000000
 8779 00ad 4889DE   		movq	%rbx, %rsi
 8780 00b0 48890500 		movq	%rax, testHexIO_testValidEOFInstance(%rip)
 8780      000000
 8781 00b7 E8000000 		call	__cxa_atexit@PLT
 8781      00
 8782 00bc E8000000 		call	_ZN8UnitTest4Test11GetTestListEv@PLT
 8782      00
 8783 00c1 488D3D00 		leaq	adderHexIO_testValidEOF(%rip), %rdi
 8783      000000
 8784 00c8 4889C6   		movq	%rax, %rsi
 8785 00cb 4889DA   		movq	%rbx, %rdx
 8786 00ce 488D1D00 		leaq	testHexIO_testJunkStartCodeInstance(%rip), %rbx
 8786      000000
 8787 00d5 E8000000 		call	_ZN8UnitTest9ListAdderC1ERNS_8TestListEPNS_4TestE@PLT
 8787      00
 8788 00da 488D0D00 		leaq	.LC71(%rip), %rcx
 8788      000000
 8789 00e1 488D1500 		leaq	.LC72(%rip), %rdx
 8789      000000
 8790 00e8 488D3500 		leaq	.LC75(%rip), %rsi
 8790      000000
 8791 00ef 488D3D00 		leaq	testHexIO_testJunkStartCodeInstance(%rip), %rdi
 8791      000000
 8792 00f6 41B84500 		movl	$69, %r8d
 8792      0000
 8793 00fc E8000000 		call	_ZN8UnitTest4TestC2EPKcS2_S2_i@PLT
 8793      00
 8794 0101 488D1500 		leaq	__dso_handle(%rip), %rdx
 8794      000000
 8795 0108 488D3D00 		leaq	_ZN27TestHexIO_testJunkStartCodeD1Ev(%rip), %rdi
 8795      000000
 8796 010f 488D0500 		leaq	16+_ZTV27TestHexIO_testJunkStartCode(%rip), %rax
 8796      000000
 8797 0116 4889DE   		movq	%rbx, %rsi
 8798 0119 48890500 		movq	%rax, testHexIO_testJunkStartCodeInstance(%rip)
 8798      000000
 8799 0120 E8000000 		call	__cxa_atexit@PLT
 8799      00
 8800 0125 E8000000 		call	_ZN8UnitTest4Test11GetTestListEv@PLT
 8800      00
 8801 012a 488D3D00 		leaq	adderHexIO_testJunkStartCode(%rip), %rdi
 8801      000000
 8802 0131 4889C6   		movq	%rax, %rsi
 8803 0134 4889DA   		movq	%rbx, %rdx
 8804 0137 488D1D00 		leaq	testHexIO_testJunkByteCountInstance(%rip), %rbx
 8804      000000
 8805 013e E8000000 		call	_ZN8UnitTest9ListAdderC1ERNS_8TestListEPNS_4TestE@PLT
 8805      00
 8806 0143 488D0D00 		leaq	.LC71(%rip), %rcx
 8806      000000
 8807 014a 488D1500 		leaq	.LC72(%rip), %rdx
 8807      000000
 8808 0151 488D3500 		leaq	.LC76(%rip), %rsi
 8808      000000
 8809 0158 488D3D00 		leaq	testHexIO_testJunkByteCountInstance(%rip), %rdi
 8809      000000
 8810 015f 41B85200 		movl	$82, %r8d
 8810      0000
 8811 0165 E8000000 		call	_ZN8UnitTest4TestC2EPKcS2_S2_i@PLT
 8811      00
 8812 016a 488D1500 		leaq	__dso_handle(%rip), %rdx
 8812      000000
 8813 0171 488D3D00 		leaq	_ZN27TestHexIO_testJunkByteCountD1Ev(%rip), %rdi
 8813      000000
 8814 0178 488D0500 		leaq	16+_ZTV27TestHexIO_testJunkByteCount(%rip), %rax
 8814      000000
 8815 017f 4889DE   		movq	%rbx, %rsi
 8816 0182 48890500 		movq	%rax, testHexIO_testJunkByteCountInstance(%rip)
 8816      000000
 8817 0189 E8000000 		call	__cxa_atexit@PLT
 8817      00
 8818 018e E8000000 		call	_ZN8UnitTest4Test11GetTestListEv@PLT
 8818      00
 8819 0193 488D3D00 		leaq	adderHexIO_testJunkByteCount(%rip), %rdi
 8819      000000
 8820 019a 4889C6   		movq	%rax, %rsi
 8821 019d 4889DA   		movq	%rbx, %rdx
 8822 01a0 488D1D00 		leaq	testHexIO_testJunkAddrMsbInstance(%rip), %rbx
 8822      000000
 8823 01a7 E8000000 		call	_ZN8UnitTest9ListAdderC1ERNS_8TestListEPNS_4TestE@PLT
 8823      00
 8824 01ac 488D0D00 		leaq	.LC71(%rip), %rcx
 8824      000000
 8825 01b3 488D1500 		leaq	.LC72(%rip), %rdx
 8825      000000
 8826 01ba 488D3500 		leaq	.LC77(%rip), %rsi
 8826      000000
 8827 01c1 488D3D00 		leaq	testHexIO_testJunkAddrMsbInstance(%rip), %rdi
 8827      000000
 8828 01c8 41B85F00 		movl	$95, %r8d
 8828      0000
 8829 01ce E8000000 		call	_ZN8UnitTest4TestC2EPKcS2_S2_i@PLT
 8829      00
 8830 01d3 488D1500 		leaq	__dso_handle(%rip), %rdx
 8830      000000
 8831 01da 488D3D00 		leaq	_ZN25TestHexIO_testJunkAddrMsbD1Ev(%rip), %rdi
 8831      000000
 8832 01e1 488D0500 		leaq	16+_ZTV25TestHexIO_testJunkAddrMsb(%rip), %rax
 8832      000000
 8833 01e8 4889DE   		movq	%rbx, %rsi
 8834 01eb 48890500 		movq	%rax, testHexIO_testJunkAddrMsbInstance(%rip)
 8834      000000
 8835 01f2 E8000000 		call	__cxa_atexit@PLT
 8835      00
 8836 01f7 E8000000 		call	_ZN8UnitTest4Test11GetTestListEv@PLT
 8836      00
 8837 01fc 488D3D00 		leaq	adderHexIO_testJunkAddrMsb(%rip), %rdi
 8837      000000
 8838 0203 4889C6   		movq	%rax, %rsi
 8839 0206 4889DA   		movq	%rbx, %rdx
 8840 0209 488D1D00 		leaq	testHexIO_testJunkAddrLsbInstance(%rip), %rbx
 8840      000000
 8841 0210 E8000000 		call	_ZN8UnitTest9ListAdderC1ERNS_8TestListEPNS_4TestE@PLT
 8841      00
 8842 0215 488D0D00 		leaq	.LC71(%rip), %rcx
 8842      000000
 8843 021c 488D1500 		leaq	.LC72(%rip), %rdx
 8843      000000
 8844 0223 488D3500 		leaq	.LC78(%rip), %rsi
 8844      000000
 8845 022a 488D3D00 		leaq	testHexIO_testJunkAddrLsbInstance(%rip), %rdi
 8845      000000
 8846 0231 41B86C00 		movl	$108, %r8d
 8846      0000
 8847 0237 E8000000 		call	_ZN8UnitTest4TestC2EPKcS2_S2_i@PLT
 8847      00
 8848 023c 488D1500 		leaq	__dso_handle(%rip), %rdx
 8848      000000
 8849 0243 488D3D00 		leaq	_ZN25TestHexIO_testJunkAddrLsbD1Ev(%rip), %rdi
 8849      000000
 8850 024a 488D0500 		leaq	16+_ZTV25TestHexIO_testJunkAddrLsb(%rip), %rax
 8850      000000
 8851 0251 4889DE   		movq	%rbx, %rsi
 8852 0254 48890500 		movq	%rax, testHexIO_testJunkAddrLsbInstance(%rip)
 8852      000000
 8853 025b E8000000 		call	__cxa_atexit@PLT
 8853      00
 8854 0260 E8000000 		call	_ZN8UnitTest4Test11GetTestListEv@PLT
 8854      00
 8855 0265 488D3D00 		leaq	adderHexIO_testJunkAddrLsb(%rip), %rdi
 8855      000000
 8856 026c 4889C6   		movq	%rax, %rsi
 8857 026f 4889DA   		movq	%rbx, %rdx
 8858 0272 488D1D00 		leaq	testHexIO_testJunkRecTypeInstance(%rip), %rbx
 8858      000000
 8859 0279 E8000000 		call	_ZN8UnitTest9ListAdderC1ERNS_8TestListEPNS_4TestE@PLT
 8859      00
 8860 027e 488D0D00 		leaq	.LC71(%rip), %rcx
 8860      000000
 8861 0285 488D1500 		leaq	.LC72(%rip), %rdx
 8861      000000
 8862 028c 488D3500 		leaq	.LC79(%rip), %rsi
 8862      000000
 8863 0293 488D3D00 		leaq	testHexIO_testJunkRecTypeInstance(%rip), %rdi
 8863      000000
 8864 029a 41B87900 		movl	$121, %r8d
 8864      0000
 8865 02a0 E8000000 		call	_ZN8UnitTest4TestC2EPKcS2_S2_i@PLT
 8865      00
 8866 02a5 488D1500 		leaq	__dso_handle(%rip), %rdx
 8866      000000
 8867 02ac 488D3D00 		leaq	_ZN25TestHexIO_testJunkRecTypeD1Ev(%rip), %rdi
 8867      000000
 8868 02b3 488D0500 		leaq	16+_ZTV25TestHexIO_testJunkRecType(%rip), %rax
 8868      000000
 8869 02ba 4889DE   		movq	%rbx, %rsi
 8870 02bd 48890500 		movq	%rax, testHexIO_testJunkRecTypeInstance(%rip)
 8870      000000
 8871 02c4 E8000000 		call	__cxa_atexit@PLT
 8871      00
 8872 02c9 E8000000 		call	_ZN8UnitTest4Test11GetTestListEv@PLT
 8872      00
 8873 02ce 488D3D00 		leaq	adderHexIO_testJunkRecType(%rip), %rdi
 8873      000000
 8874 02d5 4889C6   		movq	%rax, %rsi
 8875 02d8 4889DA   		movq	%rbx, %rdx
 8876 02db 488D1D00 		leaq	testHexIO_testJunkDataByteInstance(%rip), %rbx
 8876      000000
 8877 02e2 E8000000 		call	_ZN8UnitTest9ListAdderC1ERNS_8TestListEPNS_4TestE@PLT
 8877      00
 8878 02e7 488D0D00 		leaq	.LC71(%rip), %rcx
 8878      000000
 8879 02ee 488D1500 		leaq	.LC72(%rip), %rdx
 8879      000000
 8880 02f5 488D3500 		leaq	.LC80(%rip), %rsi
 8880      000000
 8881 02fc 488D3D00 		leaq	testHexIO_testJunkDataByteInstance(%rip), %rdi
 8881      000000
 8882 0303 41B88600 		movl	$134, %r8d
 8882      0000
 8883 0309 E8000000 		call	_ZN8UnitTest4TestC2EPKcS2_S2_i@PLT
 8883      00
 8884 030e 488D1500 		leaq	__dso_handle(%rip), %rdx
 8884      000000
 8885 0315 488D3D00 		leaq	_ZN26TestHexIO_testJunkDataByteD1Ev(%rip), %rdi
 8885      000000
 8886 031c 488D0500 		leaq	16+_ZTV26TestHexIO_testJunkDataByte(%rip), %rax
 8886      000000
 8887 0323 4889DE   		movq	%rbx, %rsi
 8888 0326 48890500 		movq	%rax, testHexIO_testJunkDataByteInstance(%rip)
 8888      000000
 8889 032d E8000000 		call	__cxa_atexit@PLT
 8889      00
 8890 0332 E8000000 		call	_ZN8UnitTest4Test11GetTestListEv@PLT
 8890      00
 8891 0337 488D3D00 		leaq	adderHexIO_testJunkDataByte(%rip), %rdi
 8891      000000
 8892 033e 4889C6   		movq	%rax, %rsi
 8893 0341 4889DA   		movq	%rbx, %rdx
 8894 0344 488D1D00 		leaq	testHexIO_testJunkChecksumInstance(%rip), %rbx
 8894      000000
 8895 034b E8000000 		call	_ZN8UnitTest9ListAdderC1ERNS_8TestListEPNS_4TestE@PLT
 8895      00
 8896 0350 488D0D00 		leaq	.LC71(%rip), %rcx
 8896      000000
 8897 0357 488D1500 		leaq	.LC72(%rip), %rdx
 8897      000000
 8898 035e 488D3500 		leaq	.LC81(%rip), %rsi
 8898      000000
 8899 0365 488D3D00 		leaq	testHexIO_testJunkChecksumInstance(%rip), %rdi
 8899      000000
 8900 036c 41B89300 		movl	$147, %r8d
 8900      0000
 8901 0372 E8000000 		call	_ZN8UnitTest4TestC2EPKcS2_S2_i@PLT
 8901      00
 8902 0377 488D1500 		leaq	__dso_handle(%rip), %rdx
 8902      000000
 8903 037e 488D3D00 		leaq	_ZN26TestHexIO_testJunkChecksumD1Ev(%rip), %rdi
 8903      000000
 8904 0385 488D0500 		leaq	16+_ZTV26TestHexIO_testJunkChecksum(%rip), %rax
 8904      000000
 8905 038c 4889DE   		movq	%rbx, %rsi
 8906 038f 48890500 		movq	%rax, testHexIO_testJunkChecksumInstance(%rip)
 8906      000000
 8907 0396 E8000000 		call	__cxa_atexit@PLT
 8907      00
 8908 039b E8000000 		call	_ZN8UnitTest4Test11GetTestListEv@PLT
 8908      00
 8909 03a0 488D3D00 		leaq	adderHexIO_testJunkChecksum(%rip), %rdi
 8909      000000
 8910 03a7 4889C6   		movq	%rax, %rsi
 8911 03aa 4889DA   		movq	%rbx, %rdx
 8912 03ad 488D1D00 		leaq	testHexIO_testBadChecksumInstance(%rip), %rbx
 8912      000000
 8913 03b4 E8000000 		call	_ZN8UnitTest9ListAdderC1ERNS_8TestListEPNS_4TestE@PLT
 8913      00
 8914 03b9 488D0D00 		leaq	.LC71(%rip), %rcx
 8914      000000
 8915 03c0 488D1500 		leaq	.LC72(%rip), %rdx
 8915      000000
 8916 03c7 488D3500 		leaq	.LC82(%rip), %rsi
 8916      000000
 8917 03ce 488D3D00 		leaq	testHexIO_testBadChecksumInstance(%rip), %rdi
 8917      000000
 8918 03d5 41B8A000 		movl	$160, %r8d
 8918      0000
 8919 03db E8000000 		call	_ZN8UnitTest4TestC2EPKcS2_S2_i@PLT
 8919      00
 8920 03e0 488D1500 		leaq	__dso_handle(%rip), %rdx
 8920      000000
 8921 03e7 488D3D00 		leaq	_ZN25TestHexIO_testBadChecksumD1Ev(%rip), %rdi
 8921      000000
 8922 03ee 488D0500 		leaq	16+_ZTV25TestHexIO_testBadChecksum(%rip), %rax
 8922      000000
 8923 03f5 4889DE   		movq	%rbx, %rsi
 8924 03f8 48890500 		movq	%rax, testHexIO_testBadChecksumInstance(%rip)
 8924      000000
 8925 03ff E8000000 		call	__cxa_atexit@PLT
 8925      00
 8926 0404 E8000000 		call	_ZN8UnitTest4Test11GetTestListEv@PLT
 8926      00
 8927 0409 488D3D00 		leaq	adderHexIO_testBadChecksum(%rip), %rdi
 8927      000000
 8928 0410 4889C6   		movq	%rax, %rsi
 8929 0413 4889DA   		movq	%rbx, %rdx
 8930 0416 488D1D00 		leaq	testHexIO_testCorruptLineInstance(%rip), %rbx
 8930      000000
 8931 041d E8000000 		call	_ZN8UnitTest9ListAdderC1ERNS_8TestListEPNS_4TestE@PLT
 8931      00
 8932 0422 488D0D00 		leaq	.LC71(%rip), %rcx
 8932      000000
 8933 0429 488D1500 		leaq	.LC72(%rip), %rdx
 8933      000000
 8934 0430 488D3500 		leaq	.LC83(%rip), %rsi
 8934      000000
 8935 0437 488D3D00 		leaq	testHexIO_testCorruptLineInstance(%rip), %rdi
 8935      000000
 8936 043e 41B8AD00 		movl	$173, %r8d
 8936      0000
 8937 0444 E8000000 		call	_ZN8UnitTest4TestC2EPKcS2_S2_i@PLT
 8937      00
 8938 0449 488D1500 		leaq	__dso_handle(%rip), %rdx
 8938      000000
 8939 0450 488D3D00 		leaq	_ZN25TestHexIO_testCorruptLineD1Ev(%rip), %rdi
 8939      000000
 8940 0457 488D0500 		leaq	16+_ZTV25TestHexIO_testCorruptLine(%rip), %rax
 8940      000000
 8941 045e 4889DE   		movq	%rbx, %rsi
 8942 0461 48890500 		movq	%rax, testHexIO_testCorruptLineInstance(%rip)
 8942      000000
 8943 0468 E8000000 		call	__cxa_atexit@PLT
 8943      00
 8944 046d E8000000 		call	_ZN8UnitTest4Test11GetTestListEv@PLT
 8944      00
 8945 0472 488D3D00 		leaq	adderHexIO_testCorruptLine(%rip), %rdi
 8945      000000
 8946 0479 4889C6   		movq	%rax, %rsi
 8947 047c 4889DA   		movq	%rbx, %rdx
 8948 047f 488D1D00 		leaq	testHexIO_testRoundTripInstance(%rip), %rbx
 8948      000000
 8949 0486 E8000000 		call	_ZN8UnitTest9ListAdderC1ERNS_8TestListEPNS_4TestE@PLT
 8949      00
 8950 048b 488D0D00 		leaq	.LC71(%rip), %rcx
 8950      000000
 8951 0492 488D1500 		leaq	.LC72(%rip), %rdx
 8951      000000
 8952 0499 488D3500 		leaq	.LC84(%rip), %rsi
 8952      000000
 8953 04a0 488D3D00 		leaq	testHexIO_testRoundTripInstance(%rip), %rdi
 8953      000000
 8954 04a7 41B8F200 		movl	$242, %r8d
 8954      0000
 8955 04ad E8000000 		call	_ZN8UnitTest4TestC2EPKcS2_S2_i@PLT
 8955      00
 8956 04b2 488D1500 		leaq	__dso_handle(%rip), %rdx
 8956      000000
 8957 04b9 488D3D00 		leaq	_ZN23TestHexIO_testRoundTripD1Ev(%rip), %rdi
 8957      000000
 8958 04c0 488D0500 		leaq	16+_ZTV23TestHexIO_testRoundTrip(%rip), %rax
 8958      000000
 8959 04c7 4889DE   		movq	%rbx, %rsi
 8960 04ca 48890500 		movq	%rax, testHexIO_testRoundTripInstance(%rip)
 8960      000000
 8961 04d1 E8000000 		call	__cxa_atexit@PLT
 8961      00
 8962 04d6 E8000000 		call	_ZN8UnitTest4Test11GetTestListEv@PLT
 8962      00
 8963 04db 488D3D00 		leaq	adderHexIO_testRoundTrip(%rip), %rdi
 8963      000000
 8964 04e2 4889C6   		movq	%rax, %rsi
 8965 04e5 4889DA   		movq	%rbx, %rdx
 8966 04e8 488D1D00 		leaq	testHexIO_testDeriveWriteMapInstance(%rip), %rbx
 8966      000000
 8967 04ef E8000000 		call	_ZN8UnitTest9ListAdderC1ERNS_8TestListEPNS_4TestE@PLT
 8967      00
 8968 04f4 488D0D00 		leaq	.LC71(%rip), %rcx
 8968      000000
 8969 04fb 488D1500 		leaq	.LC72(%rip), %rdx
 8969      000000
 8970 0502 488D3500 		leaq	.LC85(%rip), %rsi
 8970      000000
 8971 0509 488D3D00 		leaq	testHexIO_testDeriveWriteMapInstance(%rip), %rdi
 8971      000000
 8972 0510 41B82F01 		movl	$303, %r8d
 8972      0000
 8973 0516 E8000000 		call	_ZN8UnitTest4TestC2EPKcS2_S2_i@PLT
 8973      00
 8974 051b 488D1500 		leaq	__dso_handle(%rip), %rdx
 8974      000000
 8975 0522 488D3D00 		leaq	_ZN28TestHexIO_testDeriveWriteMapD1Ev(%rip), %rdi
 8975      000000
 8976 0529 488D0500 		leaq	16+_ZTV28TestHexIO_testDeriveWriteMap(%rip), %rax
 8976      000000
 8977 0530 4889DE   		movq	%rbx, %rsi
 8978 0533 48890500 		movq	%rax, testHexIO_testDeriveWriteMapInstance(%rip)
 8978      000000
 8979 053a E8000000 		call	__cxa_atexit@PLT
 8979      00
 8980 053f E8000000 		call	_ZN8UnitTest4Test11GetTestListEv@PLT
 8980      00
 8981 0544 4889DA   		movq	%rbx, %rdx
 8982 0547 488D3D00 		leaq	adderHexIO_testDeriveWriteMap(%rip), %rdi
 8982      000000
 8983 054e 4889C6   		movq	%rax, %rsi
 8984 0551 5B       		popq	%rbx
 8985              		.cfi_def_cfa_offset 8
 8986 0552 E9000000 		jmp	_ZN8UnitTest9ListAdderC1ERNS_8TestListEPNS_4TestE@PLT
 8986      00
 8987              		.cfi_endproc
 8988              	.LFE1479:
 8990              		.section	.init_array,"aw"
 8991              		.align 8
 8992 0000 00000000 		.quad	_GLOBAL__sub_I_testHexIO_testValidDataLineInstance
 8992      00000000 
 8993              		.weak	_ZTSN8UnitTest15MemoryOutStreamE
 8994              		.section	.rodata._ZTSN8UnitTest15MemoryOutStreamE,"aG",@progbits,_ZTSN8UnitTest15MemoryOutStreamE,
 8995              		.align 16
 8998              	_ZTSN8UnitTest15MemoryOutStreamE:
 8999 0000 4E38556E 		.string	"N8UnitTest15MemoryOutStreamE"
 8999      69745465 
 8999      73743135 
 8999      4D656D6F 
 8999      72794F75 
 9000              		.weak	_ZTIN8UnitTest15MemoryOutStreamE
 9001              		.section	.data.rel.ro._ZTIN8UnitTest15MemoryOutStreamE,"awG",@progbits,_ZTIN8UnitTest15MemoryOutSt
 9002              		.align 8
 9005              	_ZTIN8UnitTest15MemoryOutStreamE:
 9006 0000 00000000 		.quad	_ZTVN10__cxxabiv120__si_class_type_infoE+16
 9006      00000000 
 9007 0008 00000000 		.quad	_ZTSN8UnitTest15MemoryOutStreamE
 9007      00000000 
 9008 0010 00000000 		.quad	_ZTINSt7__cxx1119basic_ostringstreamIcSt11char_traitsIcESaIcEEE
 9008      00000000 
 9009              		.weak	_ZTS27TestHexIO_testValidDataLine
 9010              		.section	.rodata._ZTS27TestHexIO_testValidDataLine,"aG",@progbits,_ZTS27TestHexIO_testValidDataLin
 9011              		.align 16
 9014              	_ZTS27TestHexIO_testValidDataLine:
 9015 0000 32375465 		.string	"27TestHexIO_testValidDataLine"
 9015      73744865 
 9015      78494F5F 
 9015      74657374 
 9015      56616C69 
 9016              		.weak	_ZTI27TestHexIO_testValidDataLine
 9017              		.section	.data.rel.ro._ZTI27TestHexIO_testValidDataLine,"awG",@progbits,_ZTI27TestHexIO_testValidD
 9018              		.align 8
 9021              	_ZTI27TestHexIO_testValidDataLine:
 9022 0000 00000000 		.quad	_ZTVN10__cxxabiv120__si_class_type_infoE+16
 9022      00000000 
 9023 0008 00000000 		.quad	_ZTS27TestHexIO_testValidDataLine
 9023      00000000 
 9024 0010 00000000 		.quad	_ZTIN8UnitTest4TestE
 9024      00000000 
 9025              		.weak	_ZTS22TestHexIO_testValidEOF
 9026              		.section	.rodata._ZTS22TestHexIO_testValidEOF,"aG",@progbits,_ZTS22TestHexIO_testValidEOF,comdat
 9027              		.align 16
 9030              	_ZTS22TestHexIO_testValidEOF:
 9031 0000 32325465 		.string	"22TestHexIO_testValidEOF"
 9031      73744865 
 9031      78494F5F 
 9031      74657374 
 9031      56616C69 
 9032              		.weak	_ZTI22TestHexIO_testValidEOF
 9033              		.section	.data.rel.ro._ZTI22TestHexIO_testValidEOF,"awG",@progbits,_ZTI22TestHexIO_testValidEOF,co
 9034              		.align 8
 9037              	_ZTI22TestHexIO_testValidEOF:
 9038 0000 00000000 		.quad	_ZTVN10__cxxabiv120__si_class_type_infoE+16
 9038      00000000 
 9039 0008 00000000 		.quad	_ZTS22TestHexIO_testValidEOF
 9039      00000000 
 9040 0010 00000000 		.quad	_ZTIN8UnitTest4TestE
 9040      00000000 
 9041              		.weak	_ZTS27TestHexIO_testJunkStartCode
 9042              		.section	.rodata._ZTS27TestHexIO_testJunkStartCode,"aG",@progbits,_ZTS27TestHexIO_testJunkStartCod
 9043              		.align 16
 9046              	_ZTS27TestHexIO_testJunkStartCode:
 9047 0000 32375465 		.string	"27TestHexIO_testJunkStartCode"
 9047      73744865 
 9047      78494F5F 
 9047      74657374 
 9047      4A756E6B 
 9048              		.weak	_ZTI27TestHexIO_testJunkStartCode
 9049              		.section	.data.rel.ro._ZTI27TestHexIO_testJunkStartCode,"awG",@progbits,_ZTI27TestHexIO_testJunkSt
 9050              		.align 8
 9053              	_ZTI27TestHexIO_testJunkStartCode:
 9054 0000 00000000 		.quad	_ZTVN10__cxxabiv120__si_class_type_infoE+16
 9054      00000000 
 9055 0008 00000000 		.quad	_ZTS27TestHexIO_testJunkStartCode
 9055      00000000 
 9056 0010 00000000 		.quad	_ZTIN8UnitTest4TestE
 9056      00000000 
 9057              		.weak	_ZTS27TestHexIO_testJunkByteCount
 9058              		.section	.rodata._ZTS27TestHexIO_testJunkByteCount,"aG",@progbits,_ZTS27TestHexIO_testJunkByteCoun
 9059              		.align 16
 9062              	_ZTS27TestHexIO_testJunkByteCount:
 9063 0000 32375465 		.string	"27TestHexIO_testJunkByteCount"
 9063      73744865 
 9063      78494F5F 
 9063      74657374 
 9063      4A756E6B 
 9064              		.weak	_ZTI27TestHexIO_testJunkByteCount
 9065              		.section	.data.rel.ro._ZTI27TestHexIO_testJunkByteCount,"awG",@progbits,_ZTI27TestHexIO_testJunkBy
 9066              		.align 8
 9069              	_ZTI27TestHexIO_testJunkByteCount:
 9070 0000 00000000 		.quad	_ZTVN10__cxxabiv120__si_class_type_infoE+16
 9070      00000000 
 9071 0008 00000000 		.quad	_ZTS27TestHexIO_testJunkByteCount
 9071      00000000 
 9072 0010 00000000 		.quad	_ZTIN8UnitTest4TestE
 9072      00000000 
 9073              		.weak	_ZTS25TestHexIO_testJunkAddrMsb
 9074              		.section	.rodata._ZTS25TestHexIO_testJunkAddrMsb,"aG",@progbits,_ZTS25TestHexIO_testJunkAddrMsb,co
 9075              		.align 16
 9078              	_ZTS25TestHexIO_testJunkAddrMsb:
 9079 0000 32355465 		.string	"25TestHexIO_testJunkAddrMsb"
 9079      73744865 
 9079      78494F5F 
 9079      74657374 
 9079      4A756E6B 
 9080              		.weak	_ZTI25TestHexIO_testJunkAddrMsb
 9081              		.section	.data.rel.ro._ZTI25TestHexIO_testJunkAddrMsb,"awG",@progbits,_ZTI25TestHexIO_testJunkAddr
 9082              		.align 8
 9085              	_ZTI25TestHexIO_testJunkAddrMsb:
 9086 0000 00000000 		.quad	_ZTVN10__cxxabiv120__si_class_type_infoE+16
 9086      00000000 
 9087 0008 00000000 		.quad	_ZTS25TestHexIO_testJunkAddrMsb
 9087      00000000 
 9088 0010 00000000 		.quad	_ZTIN8UnitTest4TestE
 9088      00000000 
 9089              		.weak	_ZTS25TestHexIO_testJunkAddrLsb
 9090              		.section	.rodata._ZTS25TestHexIO_testJunkAddrLsb,"aG",@progbits,_ZTS25TestHexIO_testJunkAddrLsb,co
 9091              		.align 16
 9094              	_ZTS25TestHexIO_testJunkAddrLsb:
 9095 0000 32355465 		.string	"25TestHexIO_testJunkAddrLsb"
 9095      73744865 
 9095      78494F5F 
 9095      74657374 
 9095      4A756E6B 
 9096              		.weak	_ZTI25TestHexIO_testJunkAddrLsb
 9097              		.section	.data.rel.ro._ZTI25TestHexIO_testJunkAddrLsb,"awG",@progbits,_ZTI25TestHexIO_testJunkAddr
 9098              		.align 8
 9101              	_ZTI25TestHexIO_testJunkAddrLsb:
 9102 0000 00000000 		.quad	_ZTVN10__cxxabiv120__si_class_type_infoE+16
 9102      00000000 
 9103 0008 00000000 		.quad	_ZTS25TestHexIO_testJunkAddrLsb
 9103      00000000 
 9104 0010 00000000 		.quad	_ZTIN8UnitTest4TestE
 9104      00000000 
 9105              		.weak	_ZTS25TestHexIO_testJunkRecType
 9106              		.section	.rodata._ZTS25TestHexIO_testJunkRecType,"aG",@progbits,_ZTS25TestHexIO_testJunkRecType,co
 9107              		.align 16
 9110              	_ZTS25TestHexIO_testJunkRecType:
 9111 0000 32355465 		.string	"25TestHexIO_testJunkRecType"
 9111      73744865 
 9111      78494F5F 
 9111      74657374 
 9111      4A756E6B 
 9112              		.weak	_ZTI25TestHexIO_testJunkRecType
 9113              		.section	.data.rel.ro._ZTI25TestHexIO_testJunkRecType,"awG",@progbits,_ZTI25TestHexIO_testJunkRecT
 9114              		.align 8
 9117              	_ZTI25TestHexIO_testJunkRecType:
 9118 0000 00000000 		.quad	_ZTVN10__cxxabiv120__si_class_type_infoE+16
 9118      00000000 
 9119 0008 00000000 		.quad	_ZTS25TestHexIO_testJunkRecType
 9119      00000000 
 9120 0010 00000000 		.quad	_ZTIN8UnitTest4TestE
 9120      00000000 
 9121              		.weak	_ZTS26TestHexIO_testJunkDataByte
 9122              		.section	.rodata._ZTS26TestHexIO_testJunkDataByte,"aG",@progbits,_ZTS26TestHexIO_testJunkDataByte,
 9123              		.align 16
 9126              	_ZTS26TestHexIO_testJunkDataByte:
 9127 0000 32365465 		.string	"26TestHexIO_testJunkDataByte"
 9127      73744865 
 9127      78494F5F 
 9127      74657374 
 9127      4A756E6B 
 9128              		.weak	_ZTI26TestHexIO_testJunkDataByte
 9129              		.section	.data.rel.ro._ZTI26TestHexIO_testJunkDataByte,"awG",@progbits,_ZTI26TestHexIO_testJunkDat
 9130              		.align 8
 9133              	_ZTI26TestHexIO_testJunkDataByte:
 9134 0000 00000000 		.quad	_ZTVN10__cxxabiv120__si_class_type_infoE+16
 9134      00000000 
 9135 0008 00000000 		.quad	_ZTS26TestHexIO_testJunkDataByte
 9135      00000000 
 9136 0010 00000000 		.quad	_ZTIN8UnitTest4TestE
 9136      00000000 
 9137              		.weak	_ZTS26TestHexIO_testJunkChecksum
 9138              		.section	.rodata._ZTS26TestHexIO_testJunkChecksum,"aG",@progbits,_ZTS26TestHexIO_testJunkChecksum,
 9139              		.align 16
 9142              	_ZTS26TestHexIO_testJunkChecksum:
 9143 0000 32365465 		.string	"26TestHexIO_testJunkChecksum"
 9143      73744865 
 9143      78494F5F 
 9143      74657374 
 9143      4A756E6B 
 9144              		.weak	_ZTI26TestHexIO_testJunkChecksum
 9145              		.section	.data.rel.ro._ZTI26TestHexIO_testJunkChecksum,"awG",@progbits,_ZTI26TestHexIO_testJunkChe
 9146              		.align 8
 9149              	_ZTI26TestHexIO_testJunkChecksum:
 9150 0000 00000000 		.quad	_ZTVN10__cxxabiv120__si_class_type_infoE+16
 9150      00000000 
 9151 0008 00000000 		.quad	_ZTS26TestHexIO_testJunkChecksum
 9151      00000000 
 9152 0010 00000000 		.quad	_ZTIN8UnitTest4TestE
 9152      00000000 
 9153              		.weak	_ZTS25TestHexIO_testBadChecksum
 9154              		.section	.rodata._ZTS25TestHexIO_testBadChecksum,"aG",@progbits,_ZTS25TestHexIO_testBadChecksum,co
 9155              		.align 16
 9158              	_ZTS25TestHexIO_testBadChecksum:
 9159 0000 32355465 		.string	"25TestHexIO_testBadChecksum"
 9159      73744865 
 9159      78494F5F 
 9159      74657374 
 9159      42616443 
 9160              		.weak	_ZTI25TestHexIO_testBadChecksum
 9161              		.section	.data.rel.ro._ZTI25TestHexIO_testBadChecksum,"awG",@progbits,_ZTI25TestHexIO_testBadCheck
 9162              		.align 8
 9165              	_ZTI25TestHexIO_testBadChecksum:
 9166 0000 00000000 		.quad	_ZTVN10__cxxabiv120__si_class_type_infoE+16
 9166      00000000 
 9167 0008 00000000 		.quad	_ZTS25TestHexIO_testBadChecksum
 9167      00000000 
 9168 0010 00000000 		.quad	_ZTIN8UnitTest4TestE
 9168      00000000 
 9169              		.weak	_ZTS25TestHexIO_testCorruptLine
 9170              		.section	.rodata._ZTS25TestHexIO_testCorruptLine,"aG",@progbits,_ZTS25TestHexIO_testCorruptLine,co
 9171              		.align 16
 9174              	_ZTS25TestHexIO_testCorruptLine:
 9175 0000 32355465 		.string	"25TestHexIO_testCorruptLine"
 9175      73744865 
 9175      78494F5F 
 9175      74657374 
 9175      436F7272 
 9176              		.weak	_ZTI25TestHexIO_testCorruptLine
 9177              		.section	.data.rel.ro._ZTI25TestHexIO_testCorruptLine,"awG",@progbits,_ZTI25TestHexIO_testCorruptL
 9178              		.align 8
 9181              	_ZTI25TestHexIO_testCorruptLine:
 9182 0000 00000000 		.quad	_ZTVN10__cxxabiv120__si_class_type_infoE+16
 9182      00000000 
 9183 0008 00000000 		.quad	_ZTS25TestHexIO_testCorruptLine
 9183      00000000 
 9184 0010 00000000 		.quad	_ZTIN8UnitTest4TestE
 9184      00000000 
 9185              		.weak	_ZTS23TestHexIO_testRoundTrip
 9186              		.section	.rodata._ZTS23TestHexIO_testRoundTrip,"aG",@progbits,_ZTS23TestHexIO_testRoundTrip,comdat
 9187              		.align 16
 9190              	_ZTS23TestHexIO_testRoundTrip:
 9191 0000 32335465 		.string	"23TestHexIO_testRoundTrip"
 9191      73744865 
 9191      78494F5F 
 9191      74657374 
 9191      526F756E 
 9192              		.weak	_ZTI23TestHexIO_testRoundTrip
 9193              		.section	.data.rel.ro._ZTI23TestHexIO_testRoundTrip,"awG",@progbits,_ZTI23TestHexIO_testRoundTrip,
 9194              		.align 8
 9197              	_ZTI23TestHexIO_testRoundTrip:
 9198 0000 00000000 		.quad	_ZTVN10__cxxabiv120__si_class_type_infoE+16
 9198      00000000 
 9199 0008 00000000 		.quad	_ZTS23TestHexIO_testRoundTrip
 9199      00000000 
 9200 0010 00000000 		.quad	_ZTIN8UnitTest4TestE
 9200      00000000 
 9201              		.weak	_ZTS28TestHexIO_testDeriveWriteMap
 9202              		.section	.rodata._ZTS28TestHexIO_testDeriveWriteMap,"aG",@progbits,_ZTS28TestHexIO_testDeriveWrite
 9203              		.align 16
 9206              	_ZTS28TestHexIO_testDeriveWriteMap:
 9207 0000 32385465 		.string	"28TestHexIO_testDeriveWriteMap"
 9207      73744865 
 9207      78494F5F 
 9207      74657374 
 9207      44657269 
 9208              		.weak	_ZTI28TestHexIO_testDeriveWriteMap
 9209              		.section	.data.rel.ro._ZTI28TestHexIO_testDeriveWriteMap,"awG",@progbits,_ZTI28TestHexIO_testDeriv
 9210              		.align 8
 9213              	_ZTI28TestHexIO_testDeriveWriteMap:
 9214 0000 00000000 		.quad	_ZTVN10__cxxabiv120__si_class_type_infoE+16
 9214      00000000 
 9215 0008 00000000 		.quad	_ZTS28TestHexIO_testDeriveWriteMap
 9215      00000000 
 9216 0010 00000000 		.quad	_ZTIN8UnitTest4TestE
 9216      00000000 
 9217              		.hidden	_ZTCN8UnitTest15MemoryOutStreamE0_So
 9218              		.weak	_ZTCN8UnitTest15MemoryOutStreamE0_So
 9219              		.section	.data.rel.ro._ZTCN8UnitTest15MemoryOutStreamE0_So,"awG",@progbits,_ZTVN8UnitTest15MemoryO
 9220              		.align 8
 9223              	_ZTCN8UnitTest15MemoryOutStreamE0_So:
 9224 0000 90000000 		.quad	144
 9224      00000000 
 9225 0008 00000000 		.quad	0
 9225      00000000 
 9226 0010 00000000 		.quad	_ZTISo
 9226      00000000 
 9227 0018 00000000 		.quad	0
 9227      00000000 
 9228 0020 00000000 		.quad	0
 9228      00000000 
 9229 0028 70FFFFFF 		.quad	-144
 9229      FFFFFFFF 
 9230 0030 70FFFFFF 		.quad	-144
 9230      FFFFFFFF 
 9231 0038 00000000 		.quad	_ZTISo
 9231      00000000 
 9232 0040 00000000 		.quad	0
 9232      00000000 
 9233 0048 00000000 		.quad	0
 9233      00000000 
 9234              		.hidden	_ZTCN8UnitTest15MemoryOutStreamE0_NSt7__cxx1119basic_ostringstreamIcSt11char_traitsIcESaIc
 9235              		.weak	_ZTCN8UnitTest15MemoryOutStreamE0_NSt7__cxx1119basic_ostringstreamIcSt11char_traitsIcESaIcEE
 9236              		.section	.data.rel.ro._ZTCN8UnitTest15MemoryOutStreamE0_NSt7__cxx1119basic_ostringstreamIcSt11char
 9237              		.align 8
 9240              	_ZTCN8UnitTest15MemoryOutStreamE0_NSt7__cxx1119basic_ostringstreamIcSt11char_traitsIcESaIcEEE:
 9241 0000 90000000 		.quad	144
 9241      00000000 
 9242 0008 00000000 		.quad	0
 9242      00000000 
 9243 0010 00000000 		.quad	_ZTINSt7__cxx1119basic_ostringstreamIcSt11char_traitsIcESaIcEEE
 9243      00000000 
 9244 0018 00000000 		.quad	0
 9244      00000000 
 9245 0020 00000000 		.quad	0
 9245      00000000 
 9246 0028 70FFFFFF 		.quad	-144
 9246      FFFFFFFF 
 9247 0030 70FFFFFF 		.quad	-144
 9247      FFFFFFFF 
 9248 0038 00000000 		.quad	_ZTINSt7__cxx1119basic_ostringstreamIcSt11char_traitsIcESaIcEEE
 9248      00000000 
 9249 0040 00000000 		.quad	0
 9249      00000000 
 9250 0048 00000000 		.quad	0
 9250      00000000 
 9251              		.weak	_ZTTN8UnitTest15MemoryOutStreamE
 9252              		.section	.data.rel.ro.local._ZTTN8UnitTest15MemoryOutStreamE,"awG",@progbits,_ZTVN8UnitTest15Memor
 9253              		.align 8
 9256              	_ZTTN8UnitTest15MemoryOutStreamE:
 9257 0000 00000000 		.quad	_ZTVN8UnitTest15MemoryOutStreamE+24
 9257      00000000 
 9258 0008 00000000 		.quad	_ZTCN8UnitTest15MemoryOutStreamE0_NSt7__cxx1119basic_ostringstreamIcSt11char_traitsIcESaIcEE
 9258      00000000 
 9259 0010 00000000 		.quad	_ZTCN8UnitTest15MemoryOutStreamE0_So+24
 9259      00000000 
 9260 0018 00000000 		.quad	_ZTCN8UnitTest15MemoryOutStreamE0_So+64
 9260      00000000 
 9261 0020 00000000 		.quad	_ZTCN8UnitTest15MemoryOutStreamE0_NSt7__cxx1119basic_ostringstreamIcSt11char_traitsIcESaIcEE
 9261      00000000 
 9262 0028 00000000 		.quad	_ZTVN8UnitTest15MemoryOutStreamE+64
 9262      00000000 
 9263              		.weak	_ZTVN8UnitTest15MemoryOutStreamE
 9264              		.section	.data.rel.ro.local._ZTVN8UnitTest15MemoryOutStreamE,"awG",@progbits,_ZTVN8UnitTest15Memor
 9265              		.align 8
 9268              	_ZTVN8UnitTest15MemoryOutStreamE:
 9269 0000 90000000 		.quad	144
 9269      00000000 
 9270 0008 00000000 		.quad	0
 9270      00000000 
 9271 0010 00000000 		.quad	_ZTIN8UnitTest15MemoryOutStreamE
 9271      00000000 
 9272 0018 00000000 		.quad	_ZN8UnitTest15MemoryOutStreamD1Ev
 9272      00000000 
 9273 0020 00000000 		.quad	_ZN8UnitTest15MemoryOutStreamD0Ev
 9273      00000000 
 9274 0028 70FFFFFF 		.quad	-144
 9274      FFFFFFFF 
 9275 0030 70FFFFFF 		.quad	-144
 9275      FFFFFFFF 
 9276 0038 00000000 		.quad	_ZTIN8UnitTest15MemoryOutStreamE
 9276      00000000 
 9277 0040 00000000 		.quad	_ZTv0_n24_N8UnitTest15MemoryOutStreamD1Ev
 9277      00000000 
 9278 0048 00000000 		.quad	_ZTv0_n24_N8UnitTest15MemoryOutStreamD0Ev
 9278      00000000 
 9279              		.weak	_ZTV27TestHexIO_testValidDataLine
 9280              		.section	.data.rel.ro.local._ZTV27TestHexIO_testValidDataLine,"awG",@progbits,_ZTV27TestHexIO_test
 9281              		.align 8
 9284              	_ZTV27TestHexIO_testValidDataLine:
 9285 0000 00000000 		.quad	0
 9285      00000000 
 9286 0008 00000000 		.quad	_ZTI27TestHexIO_testValidDataLine
 9286      00000000 
 9287 0010 00000000 		.quad	_ZN27TestHexIO_testValidDataLineD1Ev
 9287      00000000 
 9288 0018 00000000 		.quad	_ZN27TestHexIO_testValidDataLineD0Ev
 9288      00000000 
 9289 0020 00000000 		.quad	_ZNK27TestHexIO_testValidDataLine7RunImplEv
 9289      00000000 
 9290              		.weak	_ZTV22TestHexIO_testValidEOF
 9291              		.section	.data.rel.ro.local._ZTV22TestHexIO_testValidEOF,"awG",@progbits,_ZTV22TestHexIO_testValid
 9292              		.align 8
 9295              	_ZTV22TestHexIO_testValidEOF:
 9296 0000 00000000 		.quad	0
 9296      00000000 
 9297 0008 00000000 		.quad	_ZTI22TestHexIO_testValidEOF
 9297      00000000 
 9298 0010 00000000 		.quad	_ZN22TestHexIO_testValidEOFD1Ev
 9298      00000000 
 9299 0018 00000000 		.quad	_ZN22TestHexIO_testValidEOFD0Ev
 9299      00000000 
 9300 0020 00000000 		.quad	_ZNK22TestHexIO_testValidEOF7RunImplEv
 9300      00000000 
 9301              		.weak	_ZTV27TestHexIO_testJunkStartCode
 9302              		.section	.data.rel.ro.local._ZTV27TestHexIO_testJunkStartCode,"awG",@progbits,_ZTV27TestHexIO_test
 9303              		.align 8
 9306              	_ZTV27TestHexIO_testJunkStartCode:
 9307 0000 00000000 		.quad	0
 9307      00000000 
 9308 0008 00000000 		.quad	_ZTI27TestHexIO_testJunkStartCode
 9308      00000000 
 9309 0010 00000000 		.quad	_ZN27TestHexIO_testJunkStartCodeD1Ev
 9309      00000000 
 9310 0018 00000000 		.quad	_ZN27TestHexIO_testJunkStartCodeD0Ev
 9310      00000000 
 9311 0020 00000000 		.quad	_ZNK27TestHexIO_testJunkStartCode7RunImplEv
 9311      00000000 
 9312              		.weak	_ZTV27TestHexIO_testJunkByteCount
 9313              		.section	.data.rel.ro.local._ZTV27TestHexIO_testJunkByteCount,"awG",@progbits,_ZTV27TestHexIO_test
 9314              		.align 8
 9317              	_ZTV27TestHexIO_testJunkByteCount:
 9318 0000 00000000 		.quad	0
 9318      00000000 
 9319 0008 00000000 		.quad	_ZTI27TestHexIO_testJunkByteCount
 9319      00000000 
 9320 0010 00000000 		.quad	_ZN27TestHexIO_testJunkByteCountD1Ev
 9320      00000000 
 9321 0018 00000000 		.quad	_ZN27TestHexIO_testJunkByteCountD0Ev
 9321      00000000 
 9322 0020 00000000 		.quad	_ZNK27TestHexIO_testJunkByteCount7RunImplEv
 9322      00000000 
 9323              		.weak	_ZTV25TestHexIO_testJunkAddrMsb
 9324              		.section	.data.rel.ro.local._ZTV25TestHexIO_testJunkAddrMsb,"awG",@progbits,_ZTV25TestHexIO_testJu
 9325              		.align 8
 9328              	_ZTV25TestHexIO_testJunkAddrMsb:
 9329 0000 00000000 		.quad	0
 9329      00000000 
 9330 0008 00000000 		.quad	_ZTI25TestHexIO_testJunkAddrMsb
 9330      00000000 
 9331 0010 00000000 		.quad	_ZN25TestHexIO_testJunkAddrMsbD1Ev
 9331      00000000 
 9332 0018 00000000 		.quad	_ZN25TestHexIO_testJunkAddrMsbD0Ev
 9332      00000000 
 9333 0020 00000000 		.quad	_ZNK25TestHexIO_testJunkAddrMsb7RunImplEv
 9333      00000000 
 9334              		.weak	_ZTV25TestHexIO_testJunkAddrLsb
 9335              		.section	.data.rel.ro.local._ZTV25TestHexIO_testJunkAddrLsb,"awG",@progbits,_ZTV25TestHexIO_testJu
 9336              		.align 8
 9339              	_ZTV25TestHexIO_testJunkAddrLsb:
 9340 0000 00000000 		.quad	0
 9340      00000000 
 9341 0008 00000000 		.quad	_ZTI25TestHexIO_testJunkAddrLsb
 9341      00000000 
 9342 0010 00000000 		.quad	_ZN25TestHexIO_testJunkAddrLsbD1Ev
 9342      00000000 
 9343 0018 00000000 		.quad	_ZN25TestHexIO_testJunkAddrLsbD0Ev
 9343      00000000 
 9344 0020 00000000 		.quad	_ZNK25TestHexIO_testJunkAddrLsb7RunImplEv
 9344      00000000 
 9345              		.weak	_ZTV25TestHexIO_testJunkRecType
 9346              		.section	.data.rel.ro.local._ZTV25TestHexIO_testJunkRecType,"awG",@progbits,_ZTV25TestHexIO_testJu
 9347              		.align 8
 9350              	_ZTV25TestHexIO_testJunkRecType:
 9351 0000 00000000 		.quad	0
 9351      00000000 
 9352 0008 00000000 		.quad	_ZTI25TestHexIO_testJunkRecType
 9352      00000000 
 9353 0010 00000000 		.quad	_ZN25TestHexIO_testJunkRecTypeD1Ev
 9353      00000000 
 9354 0018 00000000 		.quad	_ZN25TestHexIO_testJunkRecTypeD0Ev
 9354      00000000 
 9355 0020 00000000 		.quad	_ZNK25TestHexIO_testJunkRecType7RunImplEv
 9355      00000000 
 9356              		.weak	_ZTV26TestHexIO_testJunkDataByte
 9357              		.section	.data.rel.ro.local._ZTV26TestHexIO_testJunkDataByte,"awG",@progbits,_ZTV26TestHexIO_testJ
 9358              		.align 8
 9361              	_ZTV26TestHexIO_testJunkDataByte:
 9362 0000 00000000 		.quad	0
 9362      00000000 
 9363 0008 00000000 		.quad	_ZTI26TestHexIO_testJunkDataByte
 9363      00000000 
 9364 0010 00000000 		.quad	_ZN26TestHexIO_testJunkDataByteD1Ev
 9364      00000000 
 9365 0018 00000000 		.quad	_ZN26TestHexIO_testJunkDataByteD0Ev
 9365      00000000 
 9366 0020 00000000 		.quad	_ZNK26TestHexIO_testJunkDataByte7RunImplEv
 9366      00000000 
 9367              		.weak	_ZTV26TestHexIO_testJunkChecksum
 9368              		.section	.data.rel.ro.local._ZTV26TestHexIO_testJunkChecksum,"awG",@progbits,_ZTV26TestHexIO_testJ
 9369              		.align 8
 9372              	_ZTV26TestHexIO_testJunkChecksum:
 9373 0000 00000000 		.quad	0
 9373      00000000 
 9374 0008 00000000 		.quad	_ZTI26TestHexIO_testJunkChecksum
 9374      00000000 
 9375 0010 00000000 		.quad	_ZN26TestHexIO_testJunkChecksumD1Ev
 9375      00000000 
 9376 0018 00000000 		.quad	_ZN26TestHexIO_testJunkChecksumD0Ev
 9376      00000000 
 9377 0020 00000000 		.quad	_ZNK26TestHexIO_testJunkChecksum7RunImplEv
 9377      00000000 
 9378              		.weak	_ZTV25TestHexIO_testBadChecksum
 9379              		.section	.data.rel.ro.local._ZTV25TestHexIO_testBadChecksum,"awG",@progbits,_ZTV25TestHexIO_testBa
 9380              		.align 8
 9383              	_ZTV25TestHexIO_testBadChecksum:
 9384 0000 00000000 		.quad	0
 9384      00000000 
 9385 0008 00000000 		.quad	_ZTI25TestHexIO_testBadChecksum
 9385      00000000 
 9386 0010 00000000 		.quad	_ZN25TestHexIO_testBadChecksumD1Ev
 9386      00000000 
 9387 0018 00000000 		.quad	_ZN25TestHexIO_testBadChecksumD0Ev
 9387      00000000 
 9388 0020 00000000 		.quad	_ZNK25TestHexIO_testBadChecksum7RunImplEv
 9388      00000000 
 9389              		.weak	_ZTV25TestHexIO_testCorruptLine
 9390              		.section	.data.rel.ro.local._ZTV25TestHexIO_testCorruptLine,"awG",@progbits,_ZTV25TestHexIO_testCo
 9391              		.align 8
 9394              	_ZTV25TestHexIO_testCorruptLine:
 9395 0000 00000000 		.quad	0
 9395      00000000 
 9396 0008 00000000 		.quad	_ZTI25TestHexIO_testCorruptLine
 9396      00000000 
 9397 0010 00000000 		.quad	_ZN25TestHexIO_testCorruptLineD1Ev
 9397      00000000 
 9398 0018 00000000 		.quad	_ZN25TestHexIO_testCorruptLineD0Ev
 9398      00000000 
 9399 0020 00000000 		.quad	_ZNK25TestHexIO_testCorruptLine7RunImplEv
 9399      00000000 
 9400              		.weak	_ZTV23TestHexIO_testRoundTrip
 9401              		.section	.data.rel.ro.local._ZTV23TestHexIO_testRoundTrip,"awG",@progbits,_ZTV23TestHexIO_testRoun
 9402              		.align 8
 9405              	_ZTV23TestHexIO_testRoundTrip:
 9406 0000 00000000 		.quad	0
 9406      00000000 
 9407 0008 00000000 		.quad	_ZTI23TestHexIO_testRoundTrip
 9407      00000000 
 9408 0010 00000000 		.quad	_ZN23TestHexIO_testRoundTripD1Ev
 9408      00000000 
 9409 0018 00000000 		.quad	_ZN23TestHexIO_testRoundTripD0Ev
 9409      00000000 
 9410 0020 00000000 		.quad	_ZNK23TestHexIO_testRoundTrip7RunImplEv
 9410      00000000 
 9411              		.weak	_ZTV28TestHexIO_testDeriveWriteMap
 9412              		.section	.data.rel.ro.local._ZTV28TestHexIO_testDeriveWriteMap,"awG",@progbits,_ZTV28TestHexIO_tes
 9413              		.align 8
 9416              	_ZTV28TestHexIO_testDeriveWriteMap:
 9417 0000 00000000 		.quad	0
 9417      00000000 
 9418 0008 00000000 		.quad	_ZTI28TestHexIO_testDeriveWriteMap
 9418      00000000 
 9419 0010 00000000 		.quad	_ZN28TestHexIO_testDeriveWriteMapD1Ev
 9419      00000000 
 9420 0018 00000000 		.quad	_ZN28TestHexIO_testDeriveWriteMapD0Ev
 9420      00000000 
 9421 0020 00000000 		.quad	_ZNK28TestHexIO_testDeriveWriteMap7RunImplEv
 9421      00000000 
 9422              		.globl	adderHexIO_testDeriveWriteMap
 9423              		.bss
 9426              	adderHexIO_testDeriveWriteMap:
 9427 0000 00       		.zero	1
 9428              		.globl	testHexIO_testDeriveWriteMapInstance
 9429 0001 00000000 		.align 32
 9429      00000000 
 9429      00000000 
 9429      00000000 
 9429      00000000 
 9432              	testHexIO_testDeriveWriteMapInstance:
 9433 0020 00000000 		.zero	56
 9433      00000000 
 9433      00000000 
 9433      00000000 
 9433      00000000 
 9434              		.globl	adderHexIO_testRoundTrip
 9437              	adderHexIO_testRoundTrip:
 9438 0058 00       		.zero	1
 9439              		.globl	testHexIO_testRoundTripInstance
 9440 0059 00000000 		.align 32
 9440      000000
 9443              	testHexIO_testRoundTripInstance:
 9444 0060 00000000 		.zero	56
 9444      00000000 
 9444      00000000 
 9444      00000000 
 9444      00000000 
 9445              		.globl	adderHexIO_testCorruptLine
 9448              	adderHexIO_testCorruptLine:
 9449 0098 00       		.zero	1
 9450              		.globl	testHexIO_testCorruptLineInstance
 9451 0099 00000000 		.align 32
 9451      000000
 9454              	testHexIO_testCorruptLineInstance:
 9455 00a0 00000000 		.zero	56
 9455      00000000 
 9455      00000000 
 9455      00000000 
 9455      00000000 
 9456              		.globl	adderHexIO_testBadChecksum
 9459              	adderHexIO_testBadChecksum:
 9460 00d8 00       		.zero	1
 9461              		.globl	testHexIO_testBadChecksumInstance
 9462 00d9 00000000 		.align 32
 9462      000000
 9465              	testHexIO_testBadChecksumInstance:
 9466 00e0 00000000 		.zero	56
 9466      00000000 
 9466      00000000 
 9466      00000000 
 9466      00000000 
 9467              		.globl	adderHexIO_testJunkChecksum
 9470              	adderHexIO_testJunkChecksum:
 9471 0118 00       		.zero	1
 9472              		.globl	testHexIO_testJunkChecksumInstance
 9473 0119 00000000 		.align 32
 9473      000000
 9476              	testHexIO_testJunkChecksumInstance:
 9477 0120 00000000 		.zero	56
 9477      00000000 
 9477      00000000 
 9477      00000000 
 9477      00000000 
 9478              		.globl	adderHexIO_testJunkDataByte
 9481              	adderHexIO_testJunkDataByte:
 9482 0158 00       		.zero	1
 9483              		.globl	testHexIO_testJunkDataByteInstance
 9484 0159 00000000 		.align 32
 9484      000000
 9487              	testHexIO_testJunkDataByteInstance:
 9488 0160 00000000 		.zero	56
 9488      00000000 
 9488      00000000 
 9488      00000000 
 9488      00000000 
 9489              		.globl	adderHexIO_testJunkRecType
 9492              	adderHexIO_testJunkRecType:
 9493 0198 00       		.zero	1
 9494              		.globl	testHexIO_testJunkRecTypeInstance
 9495 0199 00000000 		.align 32
 9495      000000
 9498              	testHexIO_testJunkRecTypeInstance:
 9499 01a0 00000000 		.zero	56
 9499      00000000 
 9499      00000000 
 9499      00000000 
 9499      00000000 
 9500              		.globl	adderHexIO_testJunkAddrLsb
 9503              	adderHexIO_testJunkAddrLsb:
 9504 01d8 00       		.zero	1
 9505              		.globl	testHexIO_testJunkAddrLsbInstance
 9506 01d9 00000000 		.align 32
 9506      000000
 9509              	testHexIO_testJunkAddrLsbInstance:
 9510 01e0 00000000 		.zero	56
 9510      00000000 
 9510      00000000 
 9510      00000000 
 9510      00000000 
 9511              		.globl	adderHexIO_testJunkAddrMsb
 9514              	adderHexIO_testJunkAddrMsb:
 9515 0218 00       		.zero	1
 9516              		.globl	testHexIO_testJunkAddrMsbInstance
 9517 0219 00000000 		.align 32
 9517      000000
 9520              	testHexIO_testJunkAddrMsbInstance:
 9521 0220 00000000 		.zero	56
 9521      00000000 
 9521      00000000 
 9521      00000000 
 9521      00000000 
 9522              		.globl	adderHexIO_testJunkByteCount
 9525              	adderHexIO_testJunkByteCount:
 9526 0258 00       		.zero	1
 9527              		.globl	testHexIO_testJunkByteCountInstance
 9528 0259 00000000 		.align 32
 9528      000000
 9531              	testHexIO_testJunkByteCountInstance:
 9532 0260 00000000 		.zero	56
 9532      00000000 
 9532      00000000 
 9532      00000000 
 9532      00000000 
 9533              		.globl	adderHexIO_testJunkStartCode
 9536              	adderHexIO_testJunkStartCode:
 9537 0298 00       		.zero	1
 9538              		.globl	testHexIO_testJunkStartCodeInstance
 9539 0299 00000000 		.align 32
 9539      000000
 9542              	testHexIO_testJunkStartCodeInstance:
 9543 02a0 00000000 		.zero	56
 9543      00000000 
 9543      00000000 
 9543      00000000 
 9543      00000000 
 9544              		.globl	adderHexIO_testValidEOF
 9547              	adderHexIO_testValidEOF:
 9548 02d8 00       		.zero	1
 9549              		.globl	testHexIO_testValidEOFInstance
 9550 02d9 00000000 		.align 32
 9550      000000
 9553              	testHexIO_testValidEOFInstance:
 9554 02e0 00000000 		.zero	56
 9554      00000000 
 9554      00000000 
 9554      00000000 
 9554      00000000 
 9555              		.globl	adderHexIO_testValidDataLine
 9558              	adderHexIO_testValidDataLine:
 9559 0318 00       		.zero	1
 9560              		.globl	testHexIO_testValidDataLineInstance
 9561 0319 00000000 		.align 32
 9561      000000
 9564              	testHexIO_testValidDataLineInstance:
 9565 0320 00000000 		.zero	56
 9565      00000000 
 9565      00000000 
 9565      00000000 
 9565      00000000 
 9566              		.section	.data.rel.ro.local,"aw",@progbits
 9567              		.align 8
 9568              	.LC2:
 9569 0000 00000000 		.quad	_ZTCN8UnitTest15MemoryOutStreamE0_NSt7__cxx1119basic_ostringstreamIcSt11char_traitsIcESaIcEE
 9569      00000000 
 9570              		.section	.data.rel.ro,"aw",@progbits
 9571              		.align 8
 9572              	.LC3:
 9573 0000 00000000 		.quad	_ZTVNSt7__cxx1115basic_stringbufIcSt11char_traitsIcESaIcEEE+16
 9573      00000000 
 9574              		.hidden	DW.ref.__gxx_personality_v0
 9575              		.weak	DW.ref.__gxx_personality_v0
 9576              		.section	.data.DW.ref.__gxx_personality_v0,"awG",@progbits,DW.ref.__gxx_personality_v0,comdat
 9577              		.align 8
 9580              	DW.ref.__gxx_personality_v0:
 9581 0000 00000000 		.quad	__gxx_personality_v0
 9581      00000000 
 9582              		.hidden	__dso_handle
 9583              		.ident	"GCC: (Ubuntu 7.2.0-8ubuntu3.2) 7.2.0"
 9584              		.section	.note.GNU-stack,"",@progbits
DEFINED SYMBOLS
                            *ABS*:0000000000000000 testHexIO.cpp
     /tmp/cc0LNJ7E.s:7      .text._ZN28TestHexIO_testDeriveWriteMapD2Ev:0000000000000000 _ZN28TestHexIO_testDeriveWriteMapD2Ev
     /tmp/cc0LNJ7E.s:9416   .data.rel.ro.local._ZTV28TestHexIO_testDeriveWriteMap:0000000000000000 _ZTV28TestHexIO_testDeriveWriteMap
     /tmp/cc0LNJ7E.s:7      .text._ZN28TestHexIO_testDeriveWriteMapD2Ev:0000000000000000 _ZN28TestHexIO_testDeriveWriteMapD1Ev
     /tmp/cc0LNJ7E.s:23     .text._ZN28TestHexIO_testDeriveWriteMapD0Ev:0000000000000000 _ZN28TestHexIO_testDeriveWriteMapD0Ev
     /tmp/cc0LNJ7E.s:9580   .data.DW.ref.__gxx_personality_v0:0000000000000000 DW.ref.__gxx_personality_v0
     /tmp/cc0LNJ7E.s:86     .text._ZN23TestHexIO_testRoundTripD2Ev:0000000000000000 _ZN23TestHexIO_testRoundTripD2Ev
     /tmp/cc0LNJ7E.s:9405   .data.rel.ro.local._ZTV23TestHexIO_testRoundTrip:0000000000000000 _ZTV23TestHexIO_testRoundTrip
     /tmp/cc0LNJ7E.s:86     .text._ZN23TestHexIO_testRoundTripD2Ev:0000000000000000 _ZN23TestHexIO_testRoundTripD1Ev
     /tmp/cc0LNJ7E.s:102    .text._ZN23TestHexIO_testRoundTripD0Ev:0000000000000000 _ZN23TestHexIO_testRoundTripD0Ev
     /tmp/cc0LNJ7E.s:164    .text._ZN25TestHexIO_testCorruptLineD2Ev:0000000000000000 _ZN25TestHexIO_testCorruptLineD2Ev
     /tmp/cc0LNJ7E.s:9394   .data.rel.ro.local._ZTV25TestHexIO_testCorruptLine:0000000000000000 _ZTV25TestHexIO_testCorruptLine
     /tmp/cc0LNJ7E.s:164    .text._ZN25TestHexIO_testCorruptLineD2Ev:0000000000000000 _ZN25TestHexIO_testCorruptLineD1Ev
     /tmp/cc0LNJ7E.s:180    .text._ZN25TestHexIO_testCorruptLineD0Ev:0000000000000000 _ZN25TestHexIO_testCorruptLineD0Ev
     /tmp/cc0LNJ7E.s:242    .text._ZN25TestHexIO_testBadChecksumD2Ev:0000000000000000 _ZN25TestHexIO_testBadChecksumD2Ev
     /tmp/cc0LNJ7E.s:9383   .data.rel.ro.local._ZTV25TestHexIO_testBadChecksum:0000000000000000 _ZTV25TestHexIO_testBadChecksum
     /tmp/cc0LNJ7E.s:242    .text._ZN25TestHexIO_testBadChecksumD2Ev:0000000000000000 _ZN25TestHexIO_testBadChecksumD1Ev
     /tmp/cc0LNJ7E.s:258    .text._ZN25TestHexIO_testBadChecksumD0Ev:0000000000000000 _ZN25TestHexIO_testBadChecksumD0Ev
     /tmp/cc0LNJ7E.s:320    .text._ZN26TestHexIO_testJunkChecksumD2Ev:0000000000000000 _ZN26TestHexIO_testJunkChecksumD2Ev
     /tmp/cc0LNJ7E.s:9372   .data.rel.ro.local._ZTV26TestHexIO_testJunkChecksum:0000000000000000 _ZTV26TestHexIO_testJunkChecksum
     /tmp/cc0LNJ7E.s:320    .text._ZN26TestHexIO_testJunkChecksumD2Ev:0000000000000000 _ZN26TestHexIO_testJunkChecksumD1Ev
     /tmp/cc0LNJ7E.s:336    .text._ZN26TestHexIO_testJunkChecksumD0Ev:0000000000000000 _ZN26TestHexIO_testJunkChecksumD0Ev
     /tmp/cc0LNJ7E.s:398    .text._ZN26TestHexIO_testJunkDataByteD2Ev:0000000000000000 _ZN26TestHexIO_testJunkDataByteD2Ev
     /tmp/cc0LNJ7E.s:9361   .data.rel.ro.local._ZTV26TestHexIO_testJunkDataByte:0000000000000000 _ZTV26TestHexIO_testJunkDataByte
     /tmp/cc0LNJ7E.s:398    .text._ZN26TestHexIO_testJunkDataByteD2Ev:0000000000000000 _ZN26TestHexIO_testJunkDataByteD1Ev
     /tmp/cc0LNJ7E.s:414    .text._ZN26TestHexIO_testJunkDataByteD0Ev:0000000000000000 _ZN26TestHexIO_testJunkDataByteD0Ev
     /tmp/cc0LNJ7E.s:476    .text._ZN25TestHexIO_testJunkRecTypeD2Ev:0000000000000000 _ZN25TestHexIO_testJunkRecTypeD2Ev
     /tmp/cc0LNJ7E.s:9350   .data.rel.ro.local._ZTV25TestHexIO_testJunkRecType:0000000000000000 _ZTV25TestHexIO_testJunkRecType
     /tmp/cc0LNJ7E.s:476    .text._ZN25TestHexIO_testJunkRecTypeD2Ev:0000000000000000 _ZN25TestHexIO_testJunkRecTypeD1Ev
     /tmp/cc0LNJ7E.s:492    .text._ZN25TestHexIO_testJunkRecTypeD0Ev:0000000000000000 _ZN25TestHexIO_testJunkRecTypeD0Ev
     /tmp/cc0LNJ7E.s:554    .text._ZN25TestHexIO_testJunkAddrLsbD2Ev:0000000000000000 _ZN25TestHexIO_testJunkAddrLsbD2Ev
     /tmp/cc0LNJ7E.s:9339   .data.rel.ro.local._ZTV25TestHexIO_testJunkAddrLsb:0000000000000000 _ZTV25TestHexIO_testJunkAddrLsb
     /tmp/cc0LNJ7E.s:554    .text._ZN25TestHexIO_testJunkAddrLsbD2Ev:0000000000000000 _ZN25TestHexIO_testJunkAddrLsbD1Ev
     /tmp/cc0LNJ7E.s:570    .text._ZN25TestHexIO_testJunkAddrLsbD0Ev:0000000000000000 _ZN25TestHexIO_testJunkAddrLsbD0Ev
     /tmp/cc0LNJ7E.s:632    .text._ZN25TestHexIO_testJunkAddrMsbD2Ev:0000000000000000 _ZN25TestHexIO_testJunkAddrMsbD2Ev
     /tmp/cc0LNJ7E.s:9328   .data.rel.ro.local._ZTV25TestHexIO_testJunkAddrMsb:0000000000000000 _ZTV25TestHexIO_testJunkAddrMsb
     /tmp/cc0LNJ7E.s:632    .text._ZN25TestHexIO_testJunkAddrMsbD2Ev:0000000000000000 _ZN25TestHexIO_testJunkAddrMsbD1Ev
     /tmp/cc0LNJ7E.s:648    .text._ZN25TestHexIO_testJunkAddrMsbD0Ev:0000000000000000 _ZN25TestHexIO_testJunkAddrMsbD0Ev
     /tmp/cc0LNJ7E.s:710    .text._ZN27TestHexIO_testJunkByteCountD2Ev:0000000000000000 _ZN27TestHexIO_testJunkByteCountD2Ev
     /tmp/cc0LNJ7E.s:9317   .data.rel.ro.local._ZTV27TestHexIO_testJunkByteCount:0000000000000000 _ZTV27TestHexIO_testJunkByteCount
     /tmp/cc0LNJ7E.s:710    .text._ZN27TestHexIO_testJunkByteCountD2Ev:0000000000000000 _ZN27TestHexIO_testJunkByteCountD1Ev
     /tmp/cc0LNJ7E.s:726    .text._ZN27TestHexIO_testJunkByteCountD0Ev:0000000000000000 _ZN27TestHexIO_testJunkByteCountD0Ev
     /tmp/cc0LNJ7E.s:788    .text._ZN27TestHexIO_testJunkStartCodeD2Ev:0000000000000000 _ZN27TestHexIO_testJunkStartCodeD2Ev
     /tmp/cc0LNJ7E.s:9306   .data.rel.ro.local._ZTV27TestHexIO_testJunkStartCode:0000000000000000 _ZTV27TestHexIO_testJunkStartCode
     /tmp/cc0LNJ7E.s:788    .text._ZN27TestHexIO_testJunkStartCodeD2Ev:0000000000000000 _ZN27TestHexIO_testJunkStartCodeD1Ev
     /tmp/cc0LNJ7E.s:804    .text._ZN27TestHexIO_testJunkStartCodeD0Ev:0000000000000000 _ZN27TestHexIO_testJunkStartCodeD0Ev
     /tmp/cc0LNJ7E.s:866    .text._ZN22TestHexIO_testValidEOFD2Ev:0000000000000000 _ZN22TestHexIO_testValidEOFD2Ev
     /tmp/cc0LNJ7E.s:9295   .data.rel.ro.local._ZTV22TestHexIO_testValidEOF:0000000000000000 _ZTV22TestHexIO_testValidEOF
     /tmp/cc0LNJ7E.s:866    .text._ZN22TestHexIO_testValidEOFD2Ev:0000000000000000 _ZN22TestHexIO_testValidEOFD1Ev
     /tmp/cc0LNJ7E.s:882    .text._ZN22TestHexIO_testValidEOFD0Ev:0000000000000000 _ZN22TestHexIO_testValidEOFD0Ev
     /tmp/cc0LNJ7E.s:944    .text._ZN27TestHexIO_testValidDataLineD2Ev:0000000000000000 _ZN27TestHexIO_testValidDataLineD2Ev
     /tmp/cc0LNJ7E.s:9284   .data.rel.ro.local._ZTV27TestHexIO_testValidDataLine:0000000000000000 _ZTV27TestHexIO_testValidDataLine
     /tmp/cc0LNJ7E.s:944    .text._ZN27TestHexIO_testValidDataLineD2Ev:0000000000000000 _ZN27TestHexIO_testValidDataLineD1Ev
     /tmp/cc0LNJ7E.s:960    .text._ZN27TestHexIO_testValidDataLineD0Ev:0000000000000000 _ZN27TestHexIO_testValidDataLineD0Ev
     /tmp/cc0LNJ7E.s:1022   .text._ZN8UnitTest15MemoryOutStreamD1Ev:0000000000000000 _ZN8UnitTest15MemoryOutStreamD1Ev
     /tmp/cc0LNJ7E.s:9268   .data.rel.ro.local._ZTVN8UnitTest15MemoryOutStreamE:0000000000000000 _ZTVN8UnitTest15MemoryOutStreamE
     /tmp/cc0LNJ7E.s:9240   .data.rel.ro._ZTCN8UnitTest15MemoryOutStreamE0_NSt7__cxx1119basic_ostringstreamIcSt11char_traitsIcESaIcEEE:0000000000000000 _ZTCN8UnitTest15MemoryOutStreamE0_NSt7__cxx1119basic_ostringstreamIcSt11char_traitsIcESaIcEEE
     /tmp/cc0LNJ7E.s:9223   .data.rel.ro._ZTCN8UnitTest15MemoryOutStreamE0_So:0000000000000000 _ZTCN8UnitTest15MemoryOutStreamE0_So
     /tmp/cc0LNJ7E.s:1080   .text._ZN8UnitTest15MemoryOutStreamD0Ev:0000000000000000 _ZTv0_n24_N8UnitTest15MemoryOutStreamD0Ev
     /tmp/cc0LNJ7E.s:1173   .text._ZN8UnitTest15MemoryOutStreamD1Ev:00000000000000b0 _ZTv0_n24_N8UnitTest15MemoryOutStreamD1Ev
     /tmp/cc0LNJ7E.s:1234   .text._ZN8UnitTest15MemoryOutStreamD0Ev:00000000000000d0 _ZN8UnitTest15MemoryOutStreamD0Ev
     /tmp/cc0LNJ7E.s:1326   .text._ZNSt7__cxx1115basic_stringbufIcSt11char_traitsIcESaIcEED2Ev:0000000000000000 _ZNSt7__cxx1115basic_stringbufIcSt11char_traitsIcESaIcEED2Ev
     /tmp/cc0LNJ7E.s:1326   .text._ZNSt7__cxx1115basic_stringbufIcSt11char_traitsIcESaIcEED2Ev:0000000000000000 _ZNSt7__cxx1115basic_stringbufIcSt11char_traitsIcESaIcEED1Ev
     /tmp/cc0LNJ7E.s:1357   .text._ZNSt7__cxx1115basic_stringbufIcSt11char_traitsIcESaIcEED0Ev:0000000000000000 _ZNSt7__cxx1115basic_stringbufIcSt11char_traitsIcESaIcEED0Ev
     /tmp/cc0LNJ7E.s:1392   .text._ZN8UnitTest10CheckEqualI12BufferStatusS1_EEvRNS_11TestResultsERKT_RKT0_RKNS_11TestDetailsE:0000000000000000 _ZN8UnitTest10CheckEqualI12BufferStatusS1_EEvRNS_11TestResultsERKT_RKT0_RKNS_11TestDetailsE
     /tmp/cc0LNJ7E.s:1633   .text:0000000000000000 _ZNK27TestHexIO_testJunkStartCode7RunImplEv
     /tmp/cc0LNJ7E.s:1863   .text:00000000000001a0 _ZNK27TestHexIO_testJunkByteCount7RunImplEv
     /tmp/cc0LNJ7E.s:2093   .text:0000000000000340 _ZNK25TestHexIO_testJunkAddrMsb7RunImplEv
     /tmp/cc0LNJ7E.s:2323   .text:00000000000004e0 _ZNK25TestHexIO_testJunkAddrLsb7RunImplEv
     /tmp/cc0LNJ7E.s:2553   .text:0000000000000680 _ZNK25TestHexIO_testJunkRecType7RunImplEv
     /tmp/cc0LNJ7E.s:2783   .text:0000000000000820 _ZNK26TestHexIO_testJunkDataByte7RunImplEv
     /tmp/cc0LNJ7E.s:3013   .text:00000000000009c0 _ZNK26TestHexIO_testJunkChecksum7RunImplEv
     /tmp/cc0LNJ7E.s:3243   .text:0000000000000b60 _ZNK25TestHexIO_testBadChecksum7RunImplEv
     /tmp/cc0LNJ7E.s:3473   .text:0000000000000d00 _ZNK25TestHexIO_testCorruptLine7RunImplEv
     /tmp/cc0LNJ7E.s:3695   .text._ZN8UnitTest10CheckEqualIihEEvRNS_11TestResultsERKT_RKT0_RKNS_11TestDetailsE:0000000000000000 _ZN8UnitTest10CheckEqualIihEEvRNS_11TestResultsERKT_RKT0_RKNS_11TestDetailsE
     /tmp/cc0LNJ7E.s:3928   .text._ZN8UnitTest10CheckEqualImmEEvRNS_11TestResultsERKT_RKT0_RKNS_11TestDetailsE:0000000000000000 _ZN8UnitTest10CheckEqualImmEEvRNS_11TestResultsERKT_RKT0_RKNS_11TestDetailsE
     /tmp/cc0LNJ7E.s:4172   .text:0000000000000ea0 _ZNK22TestHexIO_testValidEOF7RunImplEv
     /tmp/cc0LNJ7E.s:4837   .text:0000000000001570 _ZNK27TestHexIO_testValidDataLine7RunImplEv
     /tmp/cc0LNJ7E.s:5712   .text._ZN8UnitTest15CheckArrayEqualIPKcS2_EEvRNS_11TestResultsERKT_RKT0_iRKNS_11TestDetailsE:0000000000000000 _ZN8UnitTest15CheckArrayEqualIPKcS2_EEvRNS_11TestResultsERKT_RKT0_iRKNS_11TestDetailsE
     /tmp/cc0LNJ7E.s:6005   .text._ZN8UnitTest15CheckArrayEqualIPhS1_EEvRNS_11TestResultsERKT_RKT0_iRKNS_11TestDetailsE:0000000000000000 _ZN8UnitTest15CheckArrayEqualIPhS1_EEvRNS_11TestResultsERKT_RKT0_iRKNS_11TestDetailsE
     /tmp/cc0LNJ7E.s:6327   .text:0000000000001f10 _Z13testRoundTripPKcz
     /tmp/cc0LNJ7E.s:7812   .text:00000000000030b0 _ZNK23TestHexIO_testRoundTrip7RunImplEv
     /tmp/cc0LNJ7E.s:7876   .text._ZN8UnitTest15CheckArrayEqualIPKcPhEEvRNS_11TestResultsERKT_RKT0_iRKNS_11TestDetailsE:0000000000000000 _ZN8UnitTest15CheckArrayEqualIPKcPhEEvRNS_11TestResultsERKT_RKT0_iRKNS_11TestDetailsE
     /tmp/cc0LNJ7E.s:8177   .text:0000000000003190 _Z18testDeriveWriteMapPKcS0_
     /tmp/cc0LNJ7E.s:8695   .text:00000000000035e0 _ZNK28TestHexIO_testDeriveWriteMap7RunImplEv
     /tmp/cc0LNJ7E.s:8745   .text.startup:0000000000000000 _GLOBAL__sub_I_testHexIO_testValidDataLineInstance
     /tmp/cc0LNJ7E.s:9564   .bss:0000000000000320 testHexIO_testValidDataLineInstance
     /tmp/cc0LNJ7E.s:9558   .bss:0000000000000318 adderHexIO_testValidDataLine
     /tmp/cc0LNJ7E.s:9553   .bss:00000000000002e0 testHexIO_testValidEOFInstance
     /tmp/cc0LNJ7E.s:9547   .bss:00000000000002d8 adderHexIO_testValidEOF
     /tmp/cc0LNJ7E.s:9542   .bss:00000000000002a0 testHexIO_testJunkStartCodeInstance
     /tmp/cc0LNJ7E.s:9536   .bss:0000000000000298 adderHexIO_testJunkStartCode
     /tmp/cc0LNJ7E.s:9531   .bss:0000000000000260 testHexIO_testJunkByteCountInstance
     /tmp/cc0LNJ7E.s:9525   .bss:0000000000000258 adderHexIO_testJunkByteCount
     /tmp/cc0LNJ7E.s:9520   .bss:0000000000000220 testHexIO_testJunkAddrMsbInstance
     /tmp/cc0LNJ7E.s:9514   .bss:0000000000000218 adderHexIO_testJunkAddrMsb
     /tmp/cc0LNJ7E.s:9509   .bss:00000000000001e0 testHexIO_testJunkAddrLsbInstance
     /tmp/cc0LNJ7E.s:9503   .bss:00000000000001d8 adderHexIO_testJunkAddrLsb
     /tmp/cc0LNJ7E.s:9498   .bss:00000000000001a0 testHexIO_testJunkRecTypeInstance
     /tmp/cc0LNJ7E.s:9492   .bss:0000000000000198 adderHexIO_testJunkRecType
     /tmp/cc0LNJ7E.s:9487   .bss:0000000000000160 testHexIO_testJunkDataByteInstance
     /tmp/cc0LNJ7E.s:9481   .bss:0000000000000158 adderHexIO_testJunkDataByte
     /tmp/cc0LNJ7E.s:9476   .bss:0000000000000120 testHexIO_testJunkChecksumInstance
     /tmp/cc0LNJ7E.s:9470   .bss:0000000000000118 adderHexIO_testJunkChecksum
     /tmp/cc0LNJ7E.s:9465   .bss:00000000000000e0 testHexIO_testBadChecksumInstance
     /tmp/cc0LNJ7E.s:9459   .bss:00000000000000d8 adderHexIO_testBadChecksum
     /tmp/cc0LNJ7E.s:9454   .bss:00000000000000a0 testHexIO_testCorruptLineInstance
     /tmp/cc0LNJ7E.s:9448   .bss:0000000000000098 adderHexIO_testCorruptLine
     /tmp/cc0LNJ7E.s:9443   .bss:0000000000000060 testHexIO_testRoundTripInstance
     /tmp/cc0LNJ7E.s:9437   .bss:0000000000000058 adderHexIO_testRoundTrip
     /tmp/cc0LNJ7E.s:9432   .bss:0000000000000020 testHexIO_testDeriveWriteMapInstance
     /tmp/cc0LNJ7E.s:9426   .bss:0000000000000000 adderHexIO_testDeriveWriteMap
     /tmp/cc0LNJ7E.s:8998   .rodata._ZTSN8UnitTest15MemoryOutStreamE:0000000000000000 _ZTSN8UnitTest15MemoryOutStreamE
     /tmp/cc0LNJ7E.s:9005   .data.rel.ro._ZTIN8UnitTest15MemoryOutStreamE:0000000000000000 _ZTIN8UnitTest15MemoryOutStreamE
     /tmp/cc0LNJ7E.s:9014   .rodata._ZTS27TestHexIO_testValidDataLine:0000000000000000 _ZTS27TestHexIO_testValidDataLine
     /tmp/cc0LNJ7E.s:9021   .data.rel.ro._ZTI27TestHexIO_testValidDataLine:0000000000000000 _ZTI27TestHexIO_testValidDataLine
     /tmp/cc0LNJ7E.s:9030   .rodata._ZTS22TestHexIO_testValidEOF:0000000000000000 _ZTS22TestHexIO_testValidEOF
     /tmp/cc0LNJ7E.s:9037   .data.rel.ro._ZTI22TestHexIO_testValidEOF:0000000000000000 _ZTI22TestHexIO_testValidEOF
     /tmp/cc0LNJ7E.s:9046   .rodata._ZTS27TestHexIO_testJunkStartCode:0000000000000000 _ZTS27TestHexIO_testJunkStartCode
     /tmp/cc0LNJ7E.s:9053   .data.rel.ro._ZTI27TestHexIO_testJunkStartCode:0000000000000000 _ZTI27TestHexIO_testJunkStartCode
     /tmp/cc0LNJ7E.s:9062   .rodata._ZTS27TestHexIO_testJunkByteCount:0000000000000000 _ZTS27TestHexIO_testJunkByteCount
     /tmp/cc0LNJ7E.s:9069   .data.rel.ro._ZTI27TestHexIO_testJunkByteCount:0000000000000000 _ZTI27TestHexIO_testJunkByteCount
     /tmp/cc0LNJ7E.s:9078   .rodata._ZTS25TestHexIO_testJunkAddrMsb:0000000000000000 _ZTS25TestHexIO_testJunkAddrMsb
     /tmp/cc0LNJ7E.s:9085   .data.rel.ro._ZTI25TestHexIO_testJunkAddrMsb:0000000000000000 _ZTI25TestHexIO_testJunkAddrMsb
     /tmp/cc0LNJ7E.s:9094   .rodata._ZTS25TestHexIO_testJunkAddrLsb:0000000000000000 _ZTS25TestHexIO_testJunkAddrLsb
     /tmp/cc0LNJ7E.s:9101   .data.rel.ro._ZTI25TestHexIO_testJunkAddrLsb:0000000000000000 _ZTI25TestHexIO_testJunkAddrLsb
     /tmp/cc0LNJ7E.s:9110   .rodata._ZTS25TestHexIO_testJunkRecType:0000000000000000 _ZTS25TestHexIO_testJunkRecType
     /tmp/cc0LNJ7E.s:9117   .data.rel.ro._ZTI25TestHexIO_testJunkRecType:0000000000000000 _ZTI25TestHexIO_testJunkRecType
     /tmp/cc0LNJ7E.s:9126   .rodata._ZTS26TestHexIO_testJunkDataByte:0000000000000000 _ZTS26TestHexIO_testJunkDataByte
     /tmp/cc0LNJ7E.s:9133   .data.rel.ro._ZTI26TestHexIO_testJunkDataByte:0000000000000000 _ZTI26TestHexIO_testJunkDataByte
     /tmp/cc0LNJ7E.s:9142   .rodata._ZTS26TestHexIO_testJunkChecksum:0000000000000000 _ZTS26TestHexIO_testJunkChecksum
     /tmp/cc0LNJ7E.s:9149   .data.rel.ro._ZTI26TestHexIO_testJunkChecksum:0000000000000000 _ZTI26TestHexIO_testJunkChecksum
     /tmp/cc0LNJ7E.s:9158   .rodata._ZTS25TestHexIO_testBadChecksum:0000000000000000 _ZTS25TestHexIO_testBadChecksum
     /tmp/cc0LNJ7E.s:9165   .data.rel.ro._ZTI25TestHexIO_testBadChecksum:0000000000000000 _ZTI25TestHexIO_testBadChecksum
     /tmp/cc0LNJ7E.s:9174   .rodata._ZTS25TestHexIO_testCorruptLine:0000000000000000 _ZTS25TestHexIO_testCorruptLine
     /tmp/cc0LNJ7E.s:9181   .data.rel.ro._ZTI25TestHexIO_testCorruptLine:0000000000000000 _ZTI25TestHexIO_testCorruptLine
     /tmp/cc0LNJ7E.s:9190   .rodata._ZTS23TestHexIO_testRoundTrip:0000000000000000 _ZTS23TestHexIO_testRoundTrip
     /tmp/cc0LNJ7E.s:9197   .data.rel.ro._ZTI23TestHexIO_testRoundTrip:0000000000000000 _ZTI23TestHexIO_testRoundTrip
     /tmp/cc0LNJ7E.s:9206   .rodata._ZTS28TestHexIO_testDeriveWriteMap:0000000000000000 _ZTS28TestHexIO_testDeriveWriteMap
     /tmp/cc0LNJ7E.s:9213   .data.rel.ro._ZTI28TestHexIO_testDeriveWriteMap:0000000000000000 _ZTI28TestHexIO_testDeriveWriteMap
     /tmp/cc0LNJ7E.s:9256   .data.rel.ro.local._ZTTN8UnitTest15MemoryOutStreamE:0000000000000000 _ZTTN8UnitTest15MemoryOutStreamE
     /tmp/cc0LNJ7E.s:1619   .rodata.str1.1:0000000000000000 .LC4
     /tmp/cc0LNJ7E.s:1626   .rodata.str1.8:0000000000000038 .LC6
     /tmp/cc0LNJ7E.s:1623   .rodata.str1.8:0000000000000000 .LC5
     /tmp/cc0LNJ7E.s:1852   .rodata.str1.1:0000000000000015 .LC7
     /tmp/cc0LNJ7E.s:1856   .rodata.str1.8:0000000000000078 .LC8
     /tmp/cc0LNJ7E.s:2082   .rodata.str1.1:000000000000002a .LC9
     /tmp/cc0LNJ7E.s:2086   .rodata.str1.8:00000000000000b8 .LC10
     /tmp/cc0LNJ7E.s:2312   .rodata.str1.1:000000000000003f .LC11
     /tmp/cc0LNJ7E.s:2316   .rodata.str1.8:00000000000000f8 .LC12
     /tmp/cc0LNJ7E.s:2542   .rodata.str1.1:0000000000000054 .LC13
     /tmp/cc0LNJ7E.s:2546   .rodata.str1.8:0000000000000138 .LC14
     /tmp/cc0LNJ7E.s:2772   .rodata.str1.1:0000000000000069 .LC15
     /tmp/cc0LNJ7E.s:2776   .rodata.str1.8:0000000000000178 .LC16
     /tmp/cc0LNJ7E.s:3002   .rodata.str1.1:000000000000007e .LC17
     /tmp/cc0LNJ7E.s:3006   .rodata.str1.8:00000000000001b8 .LC18
     /tmp/cc0LNJ7E.s:3232   .rodata.str1.1:0000000000000093 .LC19
     /tmp/cc0LNJ7E.s:3236   .rodata.str1.8:00000000000001f8 .LC20
     /tmp/cc0LNJ7E.s:3462   .rodata.str1.1:00000000000000a8 .LC21
     /tmp/cc0LNJ7E.s:3466   .rodata.str1.8:0000000000000238 .LC22
     /tmp/cc0LNJ7E.s:4155   .rodata.str1.1:00000000000000be .LC23
     /tmp/cc0LNJ7E.s:1384   .rodata._ZN8UnitTest10CheckEqualI12BufferStatusS1_EEvRNS_11TestResultsERKT_RKT0_RKNS_11TestDetailsE.str1.1:0000000000000000 .LC0
     /tmp/cc0LNJ7E.s:1386   .rodata._ZN8UnitTest10CheckEqualI12BufferStatusS1_EEvRNS_11TestResultsERKT_RKT0_RKNS_11TestDetailsE.str1.1:000000000000000a .LC1
     /tmp/cc0LNJ7E.s:4159   .rodata.str1.8:0000000000000278 .LC24
     /tmp/cc0LNJ7E.s:4165   .rodata.str1.8:00000000000002e8 .LC26
     /tmp/cc0LNJ7E.s:4162   .rodata.str1.8:00000000000002b0 .LC25
     /tmp/cc0LNJ7E.s:4803   .rodata.str1.1:00000000000000cb .LC27
     /tmp/cc0LNJ7E.s:4805   .rodata.str1.1:00000000000000e0 .LC28
     /tmp/cc0LNJ7E.s:4807   .rodata.str1.1:00000000000000ec .LC29
     /tmp/cc0LNJ7E.s:4809   .rodata.str1.1:00000000000000ee .LC30
     /tmp/cc0LNJ7E.s:4811   .rodata.str1.1:00000000000000fb .LC31
     /tmp/cc0LNJ7E.s:4830   .rodata.str1.8:0000000000000458 .LC37
     /tmp/cc0LNJ7E.s:4827   .rodata.str1.8:0000000000000418 .LC36
     /tmp/cc0LNJ7E.s:4824   .rodata.str1.8:00000000000003d8 .LC35
     /tmp/cc0LNJ7E.s:4821   .rodata.str1.8:0000000000000398 .LC34
     /tmp/cc0LNJ7E.s:4818   .rodata.str1.8:0000000000000358 .LC33
     /tmp/cc0LNJ7E.s:4815   .rodata.str1.8:0000000000000320 .LC32
     /tmp/cc0LNJ7E.s:6297   .rodata.str1.1:0000000000000112 .LC39
     /tmp/cc0LNJ7E.s:6299   .rodata.str1.1:000000000000011e .LC40
     /tmp/cc0LNJ7E.s:6295   .rodata.str1.1:00000000000000fd .LC38
     /tmp/cc0LNJ7E.s:6306   .rodata.str1.8:00000000000004d0 .LC42
     /tmp/cc0LNJ7E.s:6312   .rodata.str1.8:0000000000000578 .LC44
     /tmp/cc0LNJ7E.s:6321   .rodata.str1.8:0000000000000650 .LC47
     /tmp/cc0LNJ7E.s:6318   .rodata.str1.8:0000000000000608 .LC46
     /tmp/cc0LNJ7E.s:6315   .rodata.str1.8:00000000000005c0 .LC45
     /tmp/cc0LNJ7E.s:6309   .rodata.str1.8:0000000000000520 .LC43
     /tmp/cc0LNJ7E.s:6303   .rodata.str1.8:00000000000004a0 .LC41
     /tmp/cc0LNJ7E.s:7755   .rodata.str1.1:000000000000012d .LC48
     /tmp/cc0LNJ7E.s:7759   .rodata.str1.8:0000000000000698 .LC49
     /tmp/cc0LNJ7E.s:7762   .rodata.str1.8:00000000000006c8 .LC50
     /tmp/cc0LNJ7E.s:7765   .rodata.str1.8:00000000000006f8 .LC51
     /tmp/cc0LNJ7E.s:7768   .rodata.str1.8:0000000000000728 .LC52
     /tmp/cc0LNJ7E.s:7771   .rodata.str1.8:0000000000000758 .LC53
     /tmp/cc0LNJ7E.s:7774   .rodata.str1.1:0000000000000145 .LC54
     /tmp/cc0LNJ7E.s:7776   .rodata.str1.1:000000000000015d .LC55
     /tmp/cc0LNJ7E.s:7780   .rodata.str1.8:0000000000000788 .LC56
     /tmp/cc0LNJ7E.s:7783   .rodata.str1.8:00000000000007b0 .LC57
     /tmp/cc0LNJ7E.s:7786   .rodata.str1.8:00000000000007e0 .LC58
     /tmp/cc0LNJ7E.s:7789   .rodata.str1.8:0000000000000810 .LC59
     /tmp/cc0LNJ7E.s:7792   .rodata.str1.8:0000000000000840 .LC60
     /tmp/cc0LNJ7E.s:7795   .rodata.str1.8:0000000000000870 .LC61
     /tmp/cc0LNJ7E.s:7798   .rodata.str1.1:000000000000016b .LC62
     /tmp/cc0LNJ7E.s:7802   .rodata.str1.8:00000000000008a0 .LC63
     /tmp/cc0LNJ7E.s:7805   .rodata.str1.8:00000000000008d0 .LC64
     /tmp/cc0LNJ7E.s:8171   .rodata.str1.8:0000000000000940 .LC66
     /tmp/cc0LNJ7E.s:8168   .rodata.str1.8:0000000000000900 .LC65
     /tmp/cc0LNJ7E.s:8682   .rodata.str1.1:000000000000017b .LC67
     /tmp/cc0LNJ7E.s:8684   .rodata.str1.1:000000000000018e .LC68
     /tmp/cc0LNJ7E.s:8686   .rodata.str1.1:00000000000001a1 .LC69
     /tmp/cc0LNJ7E.s:8688   .rodata.str1.1:00000000000001b3 .LC70
     /tmp/cc0LNJ7E.s:8712   .rodata.str1.1:00000000000001c5 .LC71
     /tmp/cc0LNJ7E.s:8714   .rodata.str1.1:00000000000001d3 .LC72
     /tmp/cc0LNJ7E.s:8716   .rodata.str1.1:00000000000001e0 .LC73
     /tmp/cc0LNJ7E.s:8718   .rodata.str1.1:00000000000001f8 .LC74
     /tmp/cc0LNJ7E.s:8720   .rodata.str1.1:000000000000020b .LC75
     /tmp/cc0LNJ7E.s:8722   .rodata.str1.1:0000000000000223 .LC76
     /tmp/cc0LNJ7E.s:8724   .rodata.str1.1:000000000000023b .LC77
     /tmp/cc0LNJ7E.s:8726   .rodata.str1.1:0000000000000251 .LC78
     /tmp/cc0LNJ7E.s:8728   .rodata.str1.1:0000000000000267 .LC79
     /tmp/cc0LNJ7E.s:8730   .rodata.str1.1:000000000000027d .LC80
     /tmp/cc0LNJ7E.s:8732   .rodata.str1.1:0000000000000294 .LC81
     /tmp/cc0LNJ7E.s:8734   .rodata.str1.1:00000000000002ab .LC82
     /tmp/cc0LNJ7E.s:8736   .rodata.str1.1:00000000000002c1 .LC83
     /tmp/cc0LNJ7E.s:8738   .rodata.str1.1:00000000000002d7 .LC84
     /tmp/cc0LNJ7E.s:8740   .rodata.str1.1:00000000000002eb .LC85
                           .group:0000000000000000 _ZN28TestHexIO_testDeriveWriteMapD5Ev
                           .group:0000000000000000 _ZN23TestHexIO_testRoundTripD5Ev
                           .group:0000000000000000 _ZN25TestHexIO_testCorruptLineD5Ev
                           .group:0000000000000000 _ZN25TestHexIO_testBadChecksumD5Ev
                           .group:0000000000000000 _ZN26TestHexIO_testJunkChecksumD5Ev
                           .group:0000000000000000 _ZN26TestHexIO_testJunkDataByteD5Ev
                           .group:0000000000000000 _ZN25TestHexIO_testJunkRecTypeD5Ev
                           .group:0000000000000000 _ZN25TestHexIO_testJunkAddrLsbD5Ev
                           .group:0000000000000000 _ZN25TestHexIO_testJunkAddrMsbD5Ev
                           .group:0000000000000000 _ZN27TestHexIO_testJunkByteCountD5Ev
                           .group:0000000000000000 _ZN27TestHexIO_testJunkStartCodeD5Ev
                           .group:0000000000000000 _ZN22TestHexIO_testValidEOFD5Ev
                           .group:0000000000000000 _ZN27TestHexIO_testValidDataLineD5Ev
                           .group:0000000000000000 _ZNSt7__cxx1115basic_stringbufIcSt11char_traitsIcESaIcEED5Ev

UNDEFINED SYMBOLS
_GLOBAL_OFFSET_TABLE_
_ZN8UnitTest4TestD2Ev
_ZdlPv
_Unwind_Resume
__gxx_personality_v0
_ZTVNSt7__cxx1115basic_stringbufIcSt11char_traitsIcESaIcEEE
_ZTVSt15basic_streambufIcSt11char_traitsIcEE
_ZNSt6localeD1Ev
_ZTVSt9basic_iosIcSt11char_traitsIcEE
_ZNSt8ios_baseD2Ev
_ZNSt8ios_baseC2Ev
_ZNSt9basic_iosIcSt11char_traitsIcEE4initEPSt15basic_streambufIcS1_E
_ZNSt6localeC1Ev
_ZSt16__ostream_insertIcSt11char_traitsIcEERSt13basic_ostreamIT_T0_ES6_PKS3_l
_ZNSolsEi
_ZNK8UnitTest15MemoryOutStream7GetTextEv
_ZN8UnitTest11TestResults13OnTestFailureERKNS_11TestDetailsEPKc
__stack_chk_fail
bufInitialise
_ZN8UnitTest11CurrentTest7DetailsEv
_ZN8UnitTest11TestDetailsC1ERKS0_i
_ZN8UnitTest11CurrentTest7ResultsEv
bufProcessLine
bufDestroy
__cxa_begin_catch
__cxa_end_catch
_ZNSo9_M_insertImEERSoT_
strlen
_ZNSt7__cxx1112basic_stringIcSt11char_traitsIcESaIcEE9_M_appendEPKcm
bufWriteToIntelHexFile
_ZTTSt14basic_ifstreamIcSt11char_traitsIcEE
_ZTVSt14basic_ifstreamIcSt11char_traitsIcEE
_ZNSt13basic_filebufIcSt11char_traitsIcEEC1Ev
_ZNSt13basic_filebufIcSt11char_traitsIcEE4openEPKcSt13_Ios_Openmode
_ZNSt9basic_iosIcSt11char_traitsIcEE5clearESt12_Ios_Iostate
_ZNKSt12__basic_fileIcE7is_openEv
_ZNSi5tellgEv
_Znam
_ZNSi5seekgElSt12_Ios_Seekdir
_ZNSi4readEPcl
_ZNSt13basic_filebufIcSt11char_traitsIcEE5closeEv
bufReadFromIntelHexFile
_ZTVSt13basic_filebufIcSt11char_traitsIcEE
_ZNSt12__basic_fileIcED1Ev
_ZNSt7__cxx1112basic_stringIcSt11char_traitsIcESaIcEE9_M_mutateEmmPKcm
_ZSt20__throw_length_errorPKc
_ZNSt13basic_filebufIcSt11char_traitsIcEED1Ev
_ZNSt14basic_ifstreamIcSt11char_traitsIcEED1Ev
bufWriteBlock
bufDeriveMask
_ZN8UnitTest4TestC2EPKcS2_S2_i
__dso_handle
__cxa_atexit
_ZN8UnitTest4Test11GetTestListEv
_ZN8UnitTest9ListAdderC1ERNS_8TestListEPNS_4TestE
_ZTVN10__cxxabiv120__si_class_type_infoE
_ZTINSt7__cxx1119basic_ostringstreamIcSt11char_traitsIcESaIcEEE
_ZTIN8UnitTest4TestE
_ZTISo
