   1              		.file	"testHexIO.cpp"
   2              		.section	.text._ZN28TestHexIO_testDeriveWriteMapD2Ev,"axG",@progbits,_ZN28TestHexIO_testDeriveWrit
   3              		.align 2
   4              		.p2align 4,,15
   5              		.weak	_ZN28TestHexIO_testDeriveWriteMapD2Ev
   7              	_ZN28TestHexIO_testDeriveWriteMapD2Ev:
   8              	.LFB1427:
   9              		.cfi_startproc
  10 0000 488D0500 		leaq	16+_ZTV28TestHexIO_testDeriveWriteMap(%rip), %rax
  10      000000
  11 0007 488907   		movq	%rax, (%rdi)
  12 000a E9000000 		jmp	_ZN8UnitTest4TestD2Ev@PLT
  12      00
  13              		.cfi_endproc
  14              	.LFE1427:
  16              		.weak	_ZN28TestHexIO_testDeriveWriteMapD1Ev
  17              		.set	_ZN28TestHexIO_testDeriveWriteMapD1Ev,_ZN28TestHexIO_testDeriveWriteMapD2Ev
  18              		.section	.text._ZN28TestHexIO_testDeriveWriteMapD0Ev,"axG",@progbits,_ZN28TestHexIO_testDeriveWrit
  19              		.align 2
  20              		.p2align 4,,15
  21              		.weak	_ZN28TestHexIO_testDeriveWriteMapD0Ev
  23              	_ZN28TestHexIO_testDeriveWriteMapD0Ev:
  24              	.LFB1429:
  25              		.cfi_startproc
  26              		.cfi_personality 0x9b,DW.ref.__gxx_personality_v0
  27              		.cfi_lsda 0x1b,.LLSDA1429
  28 0000 55       		pushq	%rbp
  29              		.cfi_def_cfa_offset 16
  30              		.cfi_offset 6, -16
  31 0001 488D0500 		leaq	16+_ZTV28TestHexIO_testDeriveWriteMap(%rip), %rax
  31      000000
  32 0008 53       		pushq	%rbx
  33              		.cfi_def_cfa_offset 24
  34              		.cfi_offset 3, -24
  35 0009 4889FB   		movq	%rdi, %rbx
  36 000c 4883EC08 		subq	$8, %rsp
  37              		.cfi_def_cfa_offset 32
  38 0010 488907   		movq	%rax, (%rdi)
  39              	.LEHB0:
  40 0013 E8000000 		call	_ZN8UnitTest4TestD2Ev@PLT
  40      00
  41              	.LEHE0:
  42 0018 4883C408 		addq	$8, %rsp
  43              		.cfi_remember_state
  44              		.cfi_def_cfa_offset 24
  45 001c 4889DF   		movq	%rbx, %rdi
  46 001f 5B       		popq	%rbx
  47              		.cfi_def_cfa_offset 16
  48 0020 5D       		popq	%rbp
  49              		.cfi_def_cfa_offset 8
  50 0021 E9000000 		jmp	_ZdlPv@PLT
  50      00
  51              	.L5:
  52              		.cfi_restore_state
  53 0026 4889C5   		movq	%rax, %rbp
  54 0029 4889DF   		movq	%rbx, %rdi
  55 002c E8000000 		call	_ZdlPv@PLT
  55      00
  56 0031 4889EF   		movq	%rbp, %rdi
  57              	.LEHB1:
  58 0034 E8000000 		call	_Unwind_Resume@PLT
  58      00
  59              	.LEHE1:
  60              		.cfi_endproc
  61              	.LFE1429:
  62              		.globl	__gxx_personality_v0
  63              		.section	.gcc_except_table._ZN28TestHexIO_testDeriveWriteMapD0Ev,"aG",@progbits,_ZN28TestHexIO_tes
  64              	.LLSDA1429:
  65 0000 FF       		.byte	0xff
  66 0001 FF       		.byte	0xff
  67 0002 01       		.byte	0x1
  68 0003 08       		.uleb128 .LLSDACSE1429-.LLSDACSB1429
  69              	.LLSDACSB1429:
  70 0004 13       		.uleb128 .LEHB0-.LFB1429
  71 0005 05       		.uleb128 .LEHE0-.LEHB0
  72 0006 26       		.uleb128 .L5-.LFB1429
  73 0007 00       		.uleb128 0
  74 0008 34       		.uleb128 .LEHB1-.LFB1429
  75 0009 05       		.uleb128 .LEHE1-.LEHB1
  76 000a 00       		.uleb128 0
  77 000b 00       		.uleb128 0
  78              	.LLSDACSE1429:
  79              		.section	.text._ZN28TestHexIO_testDeriveWriteMapD0Ev,"axG",@progbits,_ZN28TestHexIO_testDeriveWrit
  81              		.section	.text._ZN23TestHexIO_testRoundTripD2Ev,"axG",@progbits,_ZN23TestHexIO_testRoundTripD5Ev,c
  82              		.align 2
  83              		.p2align 4,,15
  84              		.weak	_ZN23TestHexIO_testRoundTripD2Ev
  86              	_ZN23TestHexIO_testRoundTripD2Ev:
  87              	.LFB1431:
  88              		.cfi_startproc
  89 0000 488D0500 		leaq	16+_ZTV23TestHexIO_testRoundTrip(%rip), %rax
  89      000000
  90 0007 488907   		movq	%rax, (%rdi)
  91 000a E9000000 		jmp	_ZN8UnitTest4TestD2Ev@PLT
  91      00
  92              		.cfi_endproc
  93              	.LFE1431:
  95              		.weak	_ZN23TestHexIO_testRoundTripD1Ev
  96              		.set	_ZN23TestHexIO_testRoundTripD1Ev,_ZN23TestHexIO_testRoundTripD2Ev
  97              		.section	.text._ZN23TestHexIO_testRoundTripD0Ev,"axG",@progbits,_ZN23TestHexIO_testRoundTripD5Ev,c
  98              		.align 2
  99              		.p2align 4,,15
 100              		.weak	_ZN23TestHexIO_testRoundTripD0Ev
 102              	_ZN23TestHexIO_testRoundTripD0Ev:
 103              	.LFB1433:
 104              		.cfi_startproc
 105              		.cfi_personality 0x9b,DW.ref.__gxx_personality_v0
 106              		.cfi_lsda 0x1b,.LLSDA1433
 107 0000 55       		pushq	%rbp
 108              		.cfi_def_cfa_offset 16
 109              		.cfi_offset 6, -16
 110 0001 488D0500 		leaq	16+_ZTV23TestHexIO_testRoundTrip(%rip), %rax
 110      000000
 111 0008 53       		pushq	%rbx
 112              		.cfi_def_cfa_offset 24
 113              		.cfi_offset 3, -24
 114 0009 4889FB   		movq	%rdi, %rbx
 115 000c 4883EC08 		subq	$8, %rsp
 116              		.cfi_def_cfa_offset 32
 117 0010 488907   		movq	%rax, (%rdi)
 118              	.LEHB2:
 119 0013 E8000000 		call	_ZN8UnitTest4TestD2Ev@PLT
 119      00
 120              	.LEHE2:
 121 0018 4883C408 		addq	$8, %rsp
 122              		.cfi_remember_state
 123              		.cfi_def_cfa_offset 24
 124 001c 4889DF   		movq	%rbx, %rdi
 125 001f 5B       		popq	%rbx
 126              		.cfi_def_cfa_offset 16
 127 0020 5D       		popq	%rbp
 128              		.cfi_def_cfa_offset 8
 129 0021 E9000000 		jmp	_ZdlPv@PLT
 129      00
 130              	.L10:
 131              		.cfi_restore_state
 132 0026 4889C5   		movq	%rax, %rbp
 133 0029 4889DF   		movq	%rbx, %rdi
 134 002c E8000000 		call	_ZdlPv@PLT
 134      00
 135 0031 4889EF   		movq	%rbp, %rdi
 136              	.LEHB3:
 137 0034 E8000000 		call	_Unwind_Resume@PLT
 137      00
 138              	.LEHE3:
 139              		.cfi_endproc
 140              	.LFE1433:
 141              		.section	.gcc_except_table._ZN23TestHexIO_testRoundTripD0Ev,"aG",@progbits,_ZN23TestHexIO_testRoun
 142              	.LLSDA1433:
 143 0000 FF       		.byte	0xff
 144 0001 FF       		.byte	0xff
 145 0002 01       		.byte	0x1
 146 0003 08       		.uleb128 .LLSDACSE1433-.LLSDACSB1433
 147              	.LLSDACSB1433:
 148 0004 13       		.uleb128 .LEHB2-.LFB1433
 149 0005 05       		.uleb128 .LEHE2-.LEHB2
 150 0006 26       		.uleb128 .L10-.LFB1433
 151 0007 00       		.uleb128 0
 152 0008 34       		.uleb128 .LEHB3-.LFB1433
 153 0009 05       		.uleb128 .LEHE3-.LEHB3
 154 000a 00       		.uleb128 0
 155 000b 00       		.uleb128 0
 156              	.LLSDACSE1433:
 157              		.section	.text._ZN23TestHexIO_testRoundTripD0Ev,"axG",@progbits,_ZN23TestHexIO_testRoundTripD5Ev,c
 159              		.section	.text._ZN25TestHexIO_testCorruptLineD2Ev,"axG",@progbits,_ZN25TestHexIO_testCorruptLineD5
 160              		.align 2
 161              		.p2align 4,,15
 162              		.weak	_ZN25TestHexIO_testCorruptLineD2Ev
 164              	_ZN25TestHexIO_testCorruptLineD2Ev:
 165              	.LFB1435:
 166              		.cfi_startproc
 167 0000 488D0500 		leaq	16+_ZTV25TestHexIO_testCorruptLine(%rip), %rax
 167      000000
 168 0007 488907   		movq	%rax, (%rdi)
 169 000a E9000000 		jmp	_ZN8UnitTest4TestD2Ev@PLT
 169      00
 170              		.cfi_endproc
 171              	.LFE1435:
 173              		.weak	_ZN25TestHexIO_testCorruptLineD1Ev
 174              		.set	_ZN25TestHexIO_testCorruptLineD1Ev,_ZN25TestHexIO_testCorruptLineD2Ev
 175              		.section	.text._ZN25TestHexIO_testCorruptLineD0Ev,"axG",@progbits,_ZN25TestHexIO_testCorruptLineD5
 176              		.align 2
 177              		.p2align 4,,15
 178              		.weak	_ZN25TestHexIO_testCorruptLineD0Ev
 180              	_ZN25TestHexIO_testCorruptLineD0Ev:
 181              	.LFB1437:
 182              		.cfi_startproc
 183              		.cfi_personality 0x9b,DW.ref.__gxx_personality_v0
 184              		.cfi_lsda 0x1b,.LLSDA1437
 185 0000 55       		pushq	%rbp
 186              		.cfi_def_cfa_offset 16
 187              		.cfi_offset 6, -16
 188 0001 488D0500 		leaq	16+_ZTV25TestHexIO_testCorruptLine(%rip), %rax
 188      000000
 189 0008 53       		pushq	%rbx
 190              		.cfi_def_cfa_offset 24
 191              		.cfi_offset 3, -24
 192 0009 4889FB   		movq	%rdi, %rbx
 193 000c 4883EC08 		subq	$8, %rsp
 194              		.cfi_def_cfa_offset 32
 195 0010 488907   		movq	%rax, (%rdi)
 196              	.LEHB4:
 197 0013 E8000000 		call	_ZN8UnitTest4TestD2Ev@PLT
 197      00
 198              	.LEHE4:
 199 0018 4883C408 		addq	$8, %rsp
 200              		.cfi_remember_state
 201              		.cfi_def_cfa_offset 24
 202 001c 4889DF   		movq	%rbx, %rdi
 203 001f 5B       		popq	%rbx
 204              		.cfi_def_cfa_offset 16
 205 0020 5D       		popq	%rbp
 206              		.cfi_def_cfa_offset 8
 207 0021 E9000000 		jmp	_ZdlPv@PLT
 207      00
 208              	.L15:
 209              		.cfi_restore_state
 210 0026 4889C5   		movq	%rax, %rbp
 211 0029 4889DF   		movq	%rbx, %rdi
 212 002c E8000000 		call	_ZdlPv@PLT
 212      00
 213 0031 4889EF   		movq	%rbp, %rdi
 214              	.LEHB5:
 215 0034 E8000000 		call	_Unwind_Resume@PLT
 215      00
 216              	.LEHE5:
 217              		.cfi_endproc
 218              	.LFE1437:
 219              		.section	.gcc_except_table._ZN25TestHexIO_testCorruptLineD0Ev,"aG",@progbits,_ZN25TestHexIO_testCo
 220              	.LLSDA1437:
 221 0000 FF       		.byte	0xff
 222 0001 FF       		.byte	0xff
 223 0002 01       		.byte	0x1
 224 0003 08       		.uleb128 .LLSDACSE1437-.LLSDACSB1437
 225              	.LLSDACSB1437:
 226 0004 13       		.uleb128 .LEHB4-.LFB1437
 227 0005 05       		.uleb128 .LEHE4-.LEHB4
 228 0006 26       		.uleb128 .L15-.LFB1437
 229 0007 00       		.uleb128 0
 230 0008 34       		.uleb128 .LEHB5-.LFB1437
 231 0009 05       		.uleb128 .LEHE5-.LEHB5
 232 000a 00       		.uleb128 0
 233 000b 00       		.uleb128 0
 234              	.LLSDACSE1437:
 235              		.section	.text._ZN25TestHexIO_testCorruptLineD0Ev,"axG",@progbits,_ZN25TestHexIO_testCorruptLineD5
 237              		.section	.text._ZN25TestHexIO_testBadChecksumD2Ev,"axG",@progbits,_ZN25TestHexIO_testBadChecksumD5
 238              		.align 2
 239              		.p2align 4,,15
 240              		.weak	_ZN25TestHexIO_testBadChecksumD2Ev
 242              	_ZN25TestHexIO_testBadChecksumD2Ev:
 243              	.LFB1439:
 244              		.cfi_startproc
 245 0000 488D0500 		leaq	16+_ZTV25TestHexIO_testBadChecksum(%rip), %rax
 245      000000
 246 0007 488907   		movq	%rax, (%rdi)
 247 000a E9000000 		jmp	_ZN8UnitTest4TestD2Ev@PLT
 247      00
 248              		.cfi_endproc
 249              	.LFE1439:
 251              		.weak	_ZN25TestHexIO_testBadChecksumD1Ev
 252              		.set	_ZN25TestHexIO_testBadChecksumD1Ev,_ZN25TestHexIO_testBadChecksumD2Ev
 253              		.section	.text._ZN25TestHexIO_testBadChecksumD0Ev,"axG",@progbits,_ZN25TestHexIO_testBadChecksumD5
 254              		.align 2
 255              		.p2align 4,,15
 256              		.weak	_ZN25TestHexIO_testBadChecksumD0Ev
 258              	_ZN25TestHexIO_testBadChecksumD0Ev:
 259              	.LFB1441:
 260              		.cfi_startproc
 261              		.cfi_personality 0x9b,DW.ref.__gxx_personality_v0
 262              		.cfi_lsda 0x1b,.LLSDA1441
 263 0000 55       		pushq	%rbp
 264              		.cfi_def_cfa_offset 16
 265              		.cfi_offset 6, -16
 266 0001 488D0500 		leaq	16+_ZTV25TestHexIO_testBadChecksum(%rip), %rax
 266      000000
 267 0008 53       		pushq	%rbx
 268              		.cfi_def_cfa_offset 24
 269              		.cfi_offset 3, -24
 270 0009 4889FB   		movq	%rdi, %rbx
 271 000c 4883EC08 		subq	$8, %rsp
 272              		.cfi_def_cfa_offset 32
 273 0010 488907   		movq	%rax, (%rdi)
 274              	.LEHB6:
 275 0013 E8000000 		call	_ZN8UnitTest4TestD2Ev@PLT
 275      00
 276              	.LEHE6:
 277 0018 4883C408 		addq	$8, %rsp
 278              		.cfi_remember_state
 279              		.cfi_def_cfa_offset 24
 280 001c 4889DF   		movq	%rbx, %rdi
 281 001f 5B       		popq	%rbx
 282              		.cfi_def_cfa_offset 16
 283 0020 5D       		popq	%rbp
 284              		.cfi_def_cfa_offset 8
 285 0021 E9000000 		jmp	_ZdlPv@PLT
 285      00
 286              	.L20:
 287              		.cfi_restore_state
 288 0026 4889C5   		movq	%rax, %rbp
 289 0029 4889DF   		movq	%rbx, %rdi
 290 002c E8000000 		call	_ZdlPv@PLT
 290      00
 291 0031 4889EF   		movq	%rbp, %rdi
 292              	.LEHB7:
 293 0034 E8000000 		call	_Unwind_Resume@PLT
 293      00
 294              	.LEHE7:
 295              		.cfi_endproc
 296              	.LFE1441:
 297              		.section	.gcc_except_table._ZN25TestHexIO_testBadChecksumD0Ev,"aG",@progbits,_ZN25TestHexIO_testBa
 298              	.LLSDA1441:
 299 0000 FF       		.byte	0xff
 300 0001 FF       		.byte	0xff
 301 0002 01       		.byte	0x1
 302 0003 08       		.uleb128 .LLSDACSE1441-.LLSDACSB1441
 303              	.LLSDACSB1441:
 304 0004 13       		.uleb128 .LEHB6-.LFB1441
 305 0005 05       		.uleb128 .LEHE6-.LEHB6
 306 0006 26       		.uleb128 .L20-.LFB1441
 307 0007 00       		.uleb128 0
 308 0008 34       		.uleb128 .LEHB7-.LFB1441
 309 0009 05       		.uleb128 .LEHE7-.LEHB7
 310 000a 00       		.uleb128 0
 311 000b 00       		.uleb128 0
 312              	.LLSDACSE1441:
 313              		.section	.text._ZN25TestHexIO_testBadChecksumD0Ev,"axG",@progbits,_ZN25TestHexIO_testBadChecksumD5
 315              		.section	.text._ZN26TestHexIO_testJunkChecksumD2Ev,"axG",@progbits,_ZN26TestHexIO_testJunkChecksum
 316              		.align 2
 317              		.p2align 4,,15
 318              		.weak	_ZN26TestHexIO_testJunkChecksumD2Ev
 320              	_ZN26TestHexIO_testJunkChecksumD2Ev:
 321              	.LFB1443:
 322              		.cfi_startproc
 323 0000 488D0500 		leaq	16+_ZTV26TestHexIO_testJunkChecksum(%rip), %rax
 323      000000
 324 0007 488907   		movq	%rax, (%rdi)
 325 000a E9000000 		jmp	_ZN8UnitTest4TestD2Ev@PLT
 325      00
 326              		.cfi_endproc
 327              	.LFE1443:
 329              		.weak	_ZN26TestHexIO_testJunkChecksumD1Ev
 330              		.set	_ZN26TestHexIO_testJunkChecksumD1Ev,_ZN26TestHexIO_testJunkChecksumD2Ev
 331              		.section	.text._ZN26TestHexIO_testJunkChecksumD0Ev,"axG",@progbits,_ZN26TestHexIO_testJunkChecksum
 332              		.align 2
 333              		.p2align 4,,15
 334              		.weak	_ZN26TestHexIO_testJunkChecksumD0Ev
 336              	_ZN26TestHexIO_testJunkChecksumD0Ev:
 337              	.LFB1445:
 338              		.cfi_startproc
 339              		.cfi_personality 0x9b,DW.ref.__gxx_personality_v0
 340              		.cfi_lsda 0x1b,.LLSDA1445
 341 0000 55       		pushq	%rbp
 342              		.cfi_def_cfa_offset 16
 343              		.cfi_offset 6, -16
 344 0001 488D0500 		leaq	16+_ZTV26TestHexIO_testJunkChecksum(%rip), %rax
 344      000000
 345 0008 53       		pushq	%rbx
 346              		.cfi_def_cfa_offset 24
 347              		.cfi_offset 3, -24
 348 0009 4889FB   		movq	%rdi, %rbx
 349 000c 4883EC08 		subq	$8, %rsp
 350              		.cfi_def_cfa_offset 32
 351 0010 488907   		movq	%rax, (%rdi)
 352              	.LEHB8:
 353 0013 E8000000 		call	_ZN8UnitTest4TestD2Ev@PLT
 353      00
 354              	.LEHE8:
 355 0018 4883C408 		addq	$8, %rsp
 356              		.cfi_remember_state
 357              		.cfi_def_cfa_offset 24
 358 001c 4889DF   		movq	%rbx, %rdi
 359 001f 5B       		popq	%rbx
 360              		.cfi_def_cfa_offset 16
 361 0020 5D       		popq	%rbp
 362              		.cfi_def_cfa_offset 8
 363 0021 E9000000 		jmp	_ZdlPv@PLT
 363      00
 364              	.L25:
 365              		.cfi_restore_state
 366 0026 4889C5   		movq	%rax, %rbp
 367 0029 4889DF   		movq	%rbx, %rdi
 368 002c E8000000 		call	_ZdlPv@PLT
 368      00
 369 0031 4889EF   		movq	%rbp, %rdi
 370              	.LEHB9:
 371 0034 E8000000 		call	_Unwind_Resume@PLT
 371      00
 372              	.LEHE9:
 373              		.cfi_endproc
 374              	.LFE1445:
 375              		.section	.gcc_except_table._ZN26TestHexIO_testJunkChecksumD0Ev,"aG",@progbits,_ZN26TestHexIO_testJ
 376              	.LLSDA1445:
 377 0000 FF       		.byte	0xff
 378 0001 FF       		.byte	0xff
 379 0002 01       		.byte	0x1
 380 0003 08       		.uleb128 .LLSDACSE1445-.LLSDACSB1445
 381              	.LLSDACSB1445:
 382 0004 13       		.uleb128 .LEHB8-.LFB1445
 383 0005 05       		.uleb128 .LEHE8-.LEHB8
 384 0006 26       		.uleb128 .L25-.LFB1445
 385 0007 00       		.uleb128 0
 386 0008 34       		.uleb128 .LEHB9-.LFB1445
 387 0009 05       		.uleb128 .LEHE9-.LEHB9
 388 000a 00       		.uleb128 0
 389 000b 00       		.uleb128 0
 390              	.LLSDACSE1445:
 391              		.section	.text._ZN26TestHexIO_testJunkChecksumD0Ev,"axG",@progbits,_ZN26TestHexIO_testJunkChecksum
 393              		.section	.text._ZN26TestHexIO_testJunkDataByteD2Ev,"axG",@progbits,_ZN26TestHexIO_testJunkDataByte
 394              		.align 2
 395              		.p2align 4,,15
 396              		.weak	_ZN26TestHexIO_testJunkDataByteD2Ev
 398              	_ZN26TestHexIO_testJunkDataByteD2Ev:
 399              	.LFB1447:
 400              		.cfi_startproc
 401 0000 488D0500 		leaq	16+_ZTV26TestHexIO_testJunkDataByte(%rip), %rax
 401      000000
 402 0007 488907   		movq	%rax, (%rdi)
 403 000a E9000000 		jmp	_ZN8UnitTest4TestD2Ev@PLT
 403      00
 404              		.cfi_endproc
 405              	.LFE1447:
 407              		.weak	_ZN26TestHexIO_testJunkDataByteD1Ev
 408              		.set	_ZN26TestHexIO_testJunkDataByteD1Ev,_ZN26TestHexIO_testJunkDataByteD2Ev
 409              		.section	.text._ZN26TestHexIO_testJunkDataByteD0Ev,"axG",@progbits,_ZN26TestHexIO_testJunkDataByte
 410              		.align 2
 411              		.p2align 4,,15
 412              		.weak	_ZN26TestHexIO_testJunkDataByteD0Ev
 414              	_ZN26TestHexIO_testJunkDataByteD0Ev:
 415              	.LFB1449:
 416              		.cfi_startproc
 417              		.cfi_personality 0x9b,DW.ref.__gxx_personality_v0
 418              		.cfi_lsda 0x1b,.LLSDA1449
 419 0000 55       		pushq	%rbp
 420              		.cfi_def_cfa_offset 16
 421              		.cfi_offset 6, -16
 422 0001 488D0500 		leaq	16+_ZTV26TestHexIO_testJunkDataByte(%rip), %rax
 422      000000
 423 0008 53       		pushq	%rbx
 424              		.cfi_def_cfa_offset 24
 425              		.cfi_offset 3, -24
 426 0009 4889FB   		movq	%rdi, %rbx
 427 000c 4883EC08 		subq	$8, %rsp
 428              		.cfi_def_cfa_offset 32
 429 0010 488907   		movq	%rax, (%rdi)
 430              	.LEHB10:
 431 0013 E8000000 		call	_ZN8UnitTest4TestD2Ev@PLT
 431      00
 432              	.LEHE10:
 433 0018 4883C408 		addq	$8, %rsp
 434              		.cfi_remember_state
 435              		.cfi_def_cfa_offset 24
 436 001c 4889DF   		movq	%rbx, %rdi
 437 001f 5B       		popq	%rbx
 438              		.cfi_def_cfa_offset 16
 439 0020 5D       		popq	%rbp
 440              		.cfi_def_cfa_offset 8
 441 0021 E9000000 		jmp	_ZdlPv@PLT
 441      00
 442              	.L30:
 443              		.cfi_restore_state
 444 0026 4889C5   		movq	%rax, %rbp
 445 0029 4889DF   		movq	%rbx, %rdi
 446 002c E8000000 		call	_ZdlPv@PLT
 446      00
 447 0031 4889EF   		movq	%rbp, %rdi
 448              	.LEHB11:
 449 0034 E8000000 		call	_Unwind_Resume@PLT
 449      00
 450              	.LEHE11:
 451              		.cfi_endproc
 452              	.LFE1449:
 453              		.section	.gcc_except_table._ZN26TestHexIO_testJunkDataByteD0Ev,"aG",@progbits,_ZN26TestHexIO_testJ
 454              	.LLSDA1449:
 455 0000 FF       		.byte	0xff
 456 0001 FF       		.byte	0xff
 457 0002 01       		.byte	0x1
 458 0003 08       		.uleb128 .LLSDACSE1449-.LLSDACSB1449
 459              	.LLSDACSB1449:
 460 0004 13       		.uleb128 .LEHB10-.LFB1449
 461 0005 05       		.uleb128 .LEHE10-.LEHB10
 462 0006 26       		.uleb128 .L30-.LFB1449
 463 0007 00       		.uleb128 0
 464 0008 34       		.uleb128 .LEHB11-.LFB1449
 465 0009 05       		.uleb128 .LEHE11-.LEHB11
 466 000a 00       		.uleb128 0
 467 000b 00       		.uleb128 0
 468              	.LLSDACSE1449:
 469              		.section	.text._ZN26TestHexIO_testJunkDataByteD0Ev,"axG",@progbits,_ZN26TestHexIO_testJunkDataByte
 471              		.section	.text._ZN25TestHexIO_testJunkRecTypeD2Ev,"axG",@progbits,_ZN25TestHexIO_testJunkRecTypeD5
 472              		.align 2
 473              		.p2align 4,,15
 474              		.weak	_ZN25TestHexIO_testJunkRecTypeD2Ev
 476              	_ZN25TestHexIO_testJunkRecTypeD2Ev:
 477              	.LFB1451:
 478              		.cfi_startproc
 479 0000 488D0500 		leaq	16+_ZTV25TestHexIO_testJunkRecType(%rip), %rax
 479      000000
 480 0007 488907   		movq	%rax, (%rdi)
 481 000a E9000000 		jmp	_ZN8UnitTest4TestD2Ev@PLT
 481      00
 482              		.cfi_endproc
 483              	.LFE1451:
 485              		.weak	_ZN25TestHexIO_testJunkRecTypeD1Ev
 486              		.set	_ZN25TestHexIO_testJunkRecTypeD1Ev,_ZN25TestHexIO_testJunkRecTypeD2Ev
 487              		.section	.text._ZN25TestHexIO_testJunkRecTypeD0Ev,"axG",@progbits,_ZN25TestHexIO_testJunkRecTypeD5
 488              		.align 2
 489              		.p2align 4,,15
 490              		.weak	_ZN25TestHexIO_testJunkRecTypeD0Ev
 492              	_ZN25TestHexIO_testJunkRecTypeD0Ev:
 493              	.LFB1453:
 494              		.cfi_startproc
 495              		.cfi_personality 0x9b,DW.ref.__gxx_personality_v0
 496              		.cfi_lsda 0x1b,.LLSDA1453
 497 0000 55       		pushq	%rbp
 498              		.cfi_def_cfa_offset 16
 499              		.cfi_offset 6, -16
 500 0001 488D0500 		leaq	16+_ZTV25TestHexIO_testJunkRecType(%rip), %rax
 500      000000
 501 0008 53       		pushq	%rbx
 502              		.cfi_def_cfa_offset 24
 503              		.cfi_offset 3, -24
 504 0009 4889FB   		movq	%rdi, %rbx
 505 000c 4883EC08 		subq	$8, %rsp
 506              		.cfi_def_cfa_offset 32
 507 0010 488907   		movq	%rax, (%rdi)
 508              	.LEHB12:
 509 0013 E8000000 		call	_ZN8UnitTest4TestD2Ev@PLT
 509      00
 510              	.LEHE12:
 511 0018 4883C408 		addq	$8, %rsp
 512              		.cfi_remember_state
 513              		.cfi_def_cfa_offset 24
 514 001c 4889DF   		movq	%rbx, %rdi
 515 001f 5B       		popq	%rbx
 516              		.cfi_def_cfa_offset 16
 517 0020 5D       		popq	%rbp
 518              		.cfi_def_cfa_offset 8
 519 0021 E9000000 		jmp	_ZdlPv@PLT
 519      00
 520              	.L35:
 521              		.cfi_restore_state
 522 0026 4889C5   		movq	%rax, %rbp
 523 0029 4889DF   		movq	%rbx, %rdi
 524 002c E8000000 		call	_ZdlPv@PLT
 524      00
 525 0031 4889EF   		movq	%rbp, %rdi
 526              	.LEHB13:
 527 0034 E8000000 		call	_Unwind_Resume@PLT
 527      00
 528              	.LEHE13:
 529              		.cfi_endproc
 530              	.LFE1453:
 531              		.section	.gcc_except_table._ZN25TestHexIO_testJunkRecTypeD0Ev,"aG",@progbits,_ZN25TestHexIO_testJu
 532              	.LLSDA1453:
 533 0000 FF       		.byte	0xff
 534 0001 FF       		.byte	0xff
 535 0002 01       		.byte	0x1
 536 0003 08       		.uleb128 .LLSDACSE1453-.LLSDACSB1453
 537              	.LLSDACSB1453:
 538 0004 13       		.uleb128 .LEHB12-.LFB1453
 539 0005 05       		.uleb128 .LEHE12-.LEHB12
 540 0006 26       		.uleb128 .L35-.LFB1453
 541 0007 00       		.uleb128 0
 542 0008 34       		.uleb128 .LEHB13-.LFB1453
 543 0009 05       		.uleb128 .LEHE13-.LEHB13
 544 000a 00       		.uleb128 0
 545 000b 00       		.uleb128 0
 546              	.LLSDACSE1453:
 547              		.section	.text._ZN25TestHexIO_testJunkRecTypeD0Ev,"axG",@progbits,_ZN25TestHexIO_testJunkRecTypeD5
 549              		.section	.text._ZN25TestHexIO_testJunkAddrLsbD2Ev,"axG",@progbits,_ZN25TestHexIO_testJunkAddrLsbD5
 550              		.align 2
 551              		.p2align 4,,15
 552              		.weak	_ZN25TestHexIO_testJunkAddrLsbD2Ev
 554              	_ZN25TestHexIO_testJunkAddrLsbD2Ev:
 555              	.LFB1455:
 556              		.cfi_startproc
 557 0000 488D0500 		leaq	16+_ZTV25TestHexIO_testJunkAddrLsb(%rip), %rax
 557      000000
 558 0007 488907   		movq	%rax, (%rdi)
 559 000a E9000000 		jmp	_ZN8UnitTest4TestD2Ev@PLT
 559      00
 560              		.cfi_endproc
 561              	.LFE1455:
 563              		.weak	_ZN25TestHexIO_testJunkAddrLsbD1Ev
 564              		.set	_ZN25TestHexIO_testJunkAddrLsbD1Ev,_ZN25TestHexIO_testJunkAddrLsbD2Ev
 565              		.section	.text._ZN25TestHexIO_testJunkAddrLsbD0Ev,"axG",@progbits,_ZN25TestHexIO_testJunkAddrLsbD5
 566              		.align 2
 567              		.p2align 4,,15
 568              		.weak	_ZN25TestHexIO_testJunkAddrLsbD0Ev
 570              	_ZN25TestHexIO_testJunkAddrLsbD0Ev:
 571              	.LFB1457:
 572              		.cfi_startproc
 573              		.cfi_personality 0x9b,DW.ref.__gxx_personality_v0
 574              		.cfi_lsda 0x1b,.LLSDA1457
 575 0000 55       		pushq	%rbp
 576              		.cfi_def_cfa_offset 16
 577              		.cfi_offset 6, -16
 578 0001 488D0500 		leaq	16+_ZTV25TestHexIO_testJunkAddrLsb(%rip), %rax
 578      000000
 579 0008 53       		pushq	%rbx
 580              		.cfi_def_cfa_offset 24
 581              		.cfi_offset 3, -24
 582 0009 4889FB   		movq	%rdi, %rbx
 583 000c 4883EC08 		subq	$8, %rsp
 584              		.cfi_def_cfa_offset 32
 585 0010 488907   		movq	%rax, (%rdi)
 586              	.LEHB14:
 587 0013 E8000000 		call	_ZN8UnitTest4TestD2Ev@PLT
 587      00
 588              	.LEHE14:
 589 0018 4883C408 		addq	$8, %rsp
 590              		.cfi_remember_state
 591              		.cfi_def_cfa_offset 24
 592 001c 4889DF   		movq	%rbx, %rdi
 593 001f 5B       		popq	%rbx
 594              		.cfi_def_cfa_offset 16
 595 0020 5D       		popq	%rbp
 596              		.cfi_def_cfa_offset 8
 597 0021 E9000000 		jmp	_ZdlPv@PLT
 597      00
 598              	.L40:
 599              		.cfi_restore_state
 600 0026 4889C5   		movq	%rax, %rbp
 601 0029 4889DF   		movq	%rbx, %rdi
 602 002c E8000000 		call	_ZdlPv@PLT
 602      00
 603 0031 4889EF   		movq	%rbp, %rdi
 604              	.LEHB15:
 605 0034 E8000000 		call	_Unwind_Resume@PLT
 605      00
 606              	.LEHE15:
 607              		.cfi_endproc
 608              	.LFE1457:
 609              		.section	.gcc_except_table._ZN25TestHexIO_testJunkAddrLsbD0Ev,"aG",@progbits,_ZN25TestHexIO_testJu
 610              	.LLSDA1457:
 611 0000 FF       		.byte	0xff
 612 0001 FF       		.byte	0xff
 613 0002 01       		.byte	0x1
 614 0003 08       		.uleb128 .LLSDACSE1457-.LLSDACSB1457
 615              	.LLSDACSB1457:
 616 0004 13       		.uleb128 .LEHB14-.LFB1457
 617 0005 05       		.uleb128 .LEHE14-.LEHB14
 618 0006 26       		.uleb128 .L40-.LFB1457
 619 0007 00       		.uleb128 0
 620 0008 34       		.uleb128 .LEHB15-.LFB1457
 621 0009 05       		.uleb128 .LEHE15-.LEHB15
 622 000a 00       		.uleb128 0
 623 000b 00       		.uleb128 0
 624              	.LLSDACSE1457:
 625              		.section	.text._ZN25TestHexIO_testJunkAddrLsbD0Ev,"axG",@progbits,_ZN25TestHexIO_testJunkAddrLsbD5
 627              		.section	.text._ZN25TestHexIO_testJunkAddrMsbD2Ev,"axG",@progbits,_ZN25TestHexIO_testJunkAddrMsbD5
 628              		.align 2
 629              		.p2align 4,,15
 630              		.weak	_ZN25TestHexIO_testJunkAddrMsbD2Ev
 632              	_ZN25TestHexIO_testJunkAddrMsbD2Ev:
 633              	.LFB1459:
 634              		.cfi_startproc
 635 0000 488D0500 		leaq	16+_ZTV25TestHexIO_testJunkAddrMsb(%rip), %rax
 635      000000
 636 0007 488907   		movq	%rax, (%rdi)
 637 000a E9000000 		jmp	_ZN8UnitTest4TestD2Ev@PLT
 637      00
 638              		.cfi_endproc
 639              	.LFE1459:
 641              		.weak	_ZN25TestHexIO_testJunkAddrMsbD1Ev
 642              		.set	_ZN25TestHexIO_testJunkAddrMsbD1Ev,_ZN25TestHexIO_testJunkAddrMsbD2Ev
 643              		.section	.text._ZN25TestHexIO_testJunkAddrMsbD0Ev,"axG",@progbits,_ZN25TestHexIO_testJunkAddrMsbD5
 644              		.align 2
 645              		.p2align 4,,15
 646              		.weak	_ZN25TestHexIO_testJunkAddrMsbD0Ev
 648              	_ZN25TestHexIO_testJunkAddrMsbD0Ev:
 649              	.LFB1461:
 650              		.cfi_startproc
 651              		.cfi_personality 0x9b,DW.ref.__gxx_personality_v0
 652              		.cfi_lsda 0x1b,.LLSDA1461
 653 0000 55       		pushq	%rbp
 654              		.cfi_def_cfa_offset 16
 655              		.cfi_offset 6, -16
 656 0001 488D0500 		leaq	16+_ZTV25TestHexIO_testJunkAddrMsb(%rip), %rax
 656      000000
 657 0008 53       		pushq	%rbx
 658              		.cfi_def_cfa_offset 24
 659              		.cfi_offset 3, -24
 660 0009 4889FB   		movq	%rdi, %rbx
 661 000c 4883EC08 		subq	$8, %rsp
 662              		.cfi_def_cfa_offset 32
 663 0010 488907   		movq	%rax, (%rdi)
 664              	.LEHB16:
 665 0013 E8000000 		call	_ZN8UnitTest4TestD2Ev@PLT
 665      00
 666              	.LEHE16:
 667 0018 4883C408 		addq	$8, %rsp
 668              		.cfi_remember_state
 669              		.cfi_def_cfa_offset 24
 670 001c 4889DF   		movq	%rbx, %rdi
 671 001f 5B       		popq	%rbx
 672              		.cfi_def_cfa_offset 16
 673 0020 5D       		popq	%rbp
 674              		.cfi_def_cfa_offset 8
 675 0021 E9000000 		jmp	_ZdlPv@PLT
 675      00
 676              	.L45:
 677              		.cfi_restore_state
 678 0026 4889C5   		movq	%rax, %rbp
 679 0029 4889DF   		movq	%rbx, %rdi
 680 002c E8000000 		call	_ZdlPv@PLT
 680      00
 681 0031 4889EF   		movq	%rbp, %rdi
 682              	.LEHB17:
 683 0034 E8000000 		call	_Unwind_Resume@PLT
 683      00
 684              	.LEHE17:
 685              		.cfi_endproc
 686              	.LFE1461:
 687              		.section	.gcc_except_table._ZN25TestHexIO_testJunkAddrMsbD0Ev,"aG",@progbits,_ZN25TestHexIO_testJu
 688              	.LLSDA1461:
 689 0000 FF       		.byte	0xff
 690 0001 FF       		.byte	0xff
 691 0002 01       		.byte	0x1
 692 0003 08       		.uleb128 .LLSDACSE1461-.LLSDACSB1461
 693              	.LLSDACSB1461:
 694 0004 13       		.uleb128 .LEHB16-.LFB1461
 695 0005 05       		.uleb128 .LEHE16-.LEHB16
 696 0006 26       		.uleb128 .L45-.LFB1461
 697 0007 00       		.uleb128 0
 698 0008 34       		.uleb128 .LEHB17-.LFB1461
 699 0009 05       		.uleb128 .LEHE17-.LEHB17
 700 000a 00       		.uleb128 0
 701 000b 00       		.uleb128 0
 702              	.LLSDACSE1461:
 703              		.section	.text._ZN25TestHexIO_testJunkAddrMsbD0Ev,"axG",@progbits,_ZN25TestHexIO_testJunkAddrMsbD5
 705              		.section	.text._ZN27TestHexIO_testJunkByteCountD2Ev,"axG",@progbits,_ZN27TestHexIO_testJunkByteCou
 706              		.align 2
 707              		.p2align 4,,15
 708              		.weak	_ZN27TestHexIO_testJunkByteCountD2Ev
 710              	_ZN27TestHexIO_testJunkByteCountD2Ev:
 711              	.LFB1463:
 712              		.cfi_startproc
 713 0000 488D0500 		leaq	16+_ZTV27TestHexIO_testJunkByteCount(%rip), %rax
 713      000000
 714 0007 488907   		movq	%rax, (%rdi)
 715 000a E9000000 		jmp	_ZN8UnitTest4TestD2Ev@PLT
 715      00
 716              		.cfi_endproc
 717              	.LFE1463:
 719              		.weak	_ZN27TestHexIO_testJunkByteCountD1Ev
 720              		.set	_ZN27TestHexIO_testJunkByteCountD1Ev,_ZN27TestHexIO_testJunkByteCountD2Ev
 721              		.section	.text._ZN27TestHexIO_testJunkByteCountD0Ev,"axG",@progbits,_ZN27TestHexIO_testJunkByteCou
 722              		.align 2
 723              		.p2align 4,,15
 724              		.weak	_ZN27TestHexIO_testJunkByteCountD0Ev
 726              	_ZN27TestHexIO_testJunkByteCountD0Ev:
 727              	.LFB1465:
 728              		.cfi_startproc
 729              		.cfi_personality 0x9b,DW.ref.__gxx_personality_v0
 730              		.cfi_lsda 0x1b,.LLSDA1465
 731 0000 55       		pushq	%rbp
 732              		.cfi_def_cfa_offset 16
 733              		.cfi_offset 6, -16
 734 0001 488D0500 		leaq	16+_ZTV27TestHexIO_testJunkByteCount(%rip), %rax
 734      000000
 735 0008 53       		pushq	%rbx
 736              		.cfi_def_cfa_offset 24
 737              		.cfi_offset 3, -24
 738 0009 4889FB   		movq	%rdi, %rbx
 739 000c 4883EC08 		subq	$8, %rsp
 740              		.cfi_def_cfa_offset 32
 741 0010 488907   		movq	%rax, (%rdi)
 742              	.LEHB18:
 743 0013 E8000000 		call	_ZN8UnitTest4TestD2Ev@PLT
 743      00
 744              	.LEHE18:
 745 0018 4883C408 		addq	$8, %rsp
 746              		.cfi_remember_state
 747              		.cfi_def_cfa_offset 24
 748 001c 4889DF   		movq	%rbx, %rdi
 749 001f 5B       		popq	%rbx
 750              		.cfi_def_cfa_offset 16
 751 0020 5D       		popq	%rbp
 752              		.cfi_def_cfa_offset 8
 753 0021 E9000000 		jmp	_ZdlPv@PLT
 753      00
 754              	.L50:
 755              		.cfi_restore_state
 756 0026 4889C5   		movq	%rax, %rbp
 757 0029 4889DF   		movq	%rbx, %rdi
 758 002c E8000000 		call	_ZdlPv@PLT
 758      00
 759 0031 4889EF   		movq	%rbp, %rdi
 760              	.LEHB19:
 761 0034 E8000000 		call	_Unwind_Resume@PLT
 761      00
 762              	.LEHE19:
 763              		.cfi_endproc
 764              	.LFE1465:
 765              		.section	.gcc_except_table._ZN27TestHexIO_testJunkByteCountD0Ev,"aG",@progbits,_ZN27TestHexIO_test
 766              	.LLSDA1465:
 767 0000 FF       		.byte	0xff
 768 0001 FF       		.byte	0xff
 769 0002 01       		.byte	0x1
 770 0003 08       		.uleb128 .LLSDACSE1465-.LLSDACSB1465
 771              	.LLSDACSB1465:
 772 0004 13       		.uleb128 .LEHB18-.LFB1465
 773 0005 05       		.uleb128 .LEHE18-.LEHB18
 774 0006 26       		.uleb128 .L50-.LFB1465
 775 0007 00       		.uleb128 0
 776 0008 34       		.uleb128 .LEHB19-.LFB1465
 777 0009 05       		.uleb128 .LEHE19-.LEHB19
 778 000a 00       		.uleb128 0
 779 000b 00       		.uleb128 0
 780              	.LLSDACSE1465:
 781              		.section	.text._ZN27TestHexIO_testJunkByteCountD0Ev,"axG",@progbits,_ZN27TestHexIO_testJunkByteCou
 783              		.section	.text._ZN27TestHexIO_testJunkStartCodeD2Ev,"axG",@progbits,_ZN27TestHexIO_testJunkStartCo
 784              		.align 2
 785              		.p2align 4,,15
 786              		.weak	_ZN27TestHexIO_testJunkStartCodeD2Ev
 788              	_ZN27TestHexIO_testJunkStartCodeD2Ev:
 789              	.LFB1467:
 790              		.cfi_startproc
 791 0000 488D0500 		leaq	16+_ZTV27TestHexIO_testJunkStartCode(%rip), %rax
 791      000000
 792 0007 488907   		movq	%rax, (%rdi)
 793 000a E9000000 		jmp	_ZN8UnitTest4TestD2Ev@PLT
 793      00
 794              		.cfi_endproc
 795              	.LFE1467:
 797              		.weak	_ZN27TestHexIO_testJunkStartCodeD1Ev
 798              		.set	_ZN27TestHexIO_testJunkStartCodeD1Ev,_ZN27TestHexIO_testJunkStartCodeD2Ev
 799              		.section	.text._ZN27TestHexIO_testJunkStartCodeD0Ev,"axG",@progbits,_ZN27TestHexIO_testJunkStartCo
 800              		.align 2
 801              		.p2align 4,,15
 802              		.weak	_ZN27TestHexIO_testJunkStartCodeD0Ev
 804              	_ZN27TestHexIO_testJunkStartCodeD0Ev:
 805              	.LFB1469:
 806              		.cfi_startproc
 807              		.cfi_personality 0x9b,DW.ref.__gxx_personality_v0
 808              		.cfi_lsda 0x1b,.LLSDA1469
 809 0000 55       		pushq	%rbp
 810              		.cfi_def_cfa_offset 16
 811              		.cfi_offset 6, -16
 812 0001 488D0500 		leaq	16+_ZTV27TestHexIO_testJunkStartCode(%rip), %rax
 812      000000
 813 0008 53       		pushq	%rbx
 814              		.cfi_def_cfa_offset 24
 815              		.cfi_offset 3, -24
 816 0009 4889FB   		movq	%rdi, %rbx
 817 000c 4883EC08 		subq	$8, %rsp
 818              		.cfi_def_cfa_offset 32
 819 0010 488907   		movq	%rax, (%rdi)
 820              	.LEHB20:
 821 0013 E8000000 		call	_ZN8UnitTest4TestD2Ev@PLT
 821      00
 822              	.LEHE20:
 823 0018 4883C408 		addq	$8, %rsp
 824              		.cfi_remember_state
 825              		.cfi_def_cfa_offset 24
 826 001c 4889DF   		movq	%rbx, %rdi
 827 001f 5B       		popq	%rbx
 828              		.cfi_def_cfa_offset 16
 829 0020 5D       		popq	%rbp
 830              		.cfi_def_cfa_offset 8
 831 0021 E9000000 		jmp	_ZdlPv@PLT
 831      00
 832              	.L55:
 833              		.cfi_restore_state
 834 0026 4889C5   		movq	%rax, %rbp
 835 0029 4889DF   		movq	%rbx, %rdi
 836 002c E8000000 		call	_ZdlPv@PLT
 836      00
 837 0031 4889EF   		movq	%rbp, %rdi
 838              	.LEHB21:
 839 0034 E8000000 		call	_Unwind_Resume@PLT
 839      00
 840              	.LEHE21:
 841              		.cfi_endproc
 842              	.LFE1469:
 843              		.section	.gcc_except_table._ZN27TestHexIO_testJunkStartCodeD0Ev,"aG",@progbits,_ZN27TestHexIO_test
 844              	.LLSDA1469:
 845 0000 FF       		.byte	0xff
 846 0001 FF       		.byte	0xff
 847 0002 01       		.byte	0x1
 848 0003 08       		.uleb128 .LLSDACSE1469-.LLSDACSB1469
 849              	.LLSDACSB1469:
 850 0004 13       		.uleb128 .LEHB20-.LFB1469
 851 0005 05       		.uleb128 .LEHE20-.LEHB20
 852 0006 26       		.uleb128 .L55-.LFB1469
 853 0007 00       		.uleb128 0
 854 0008 34       		.uleb128 .LEHB21-.LFB1469
 855 0009 05       		.uleb128 .LEHE21-.LEHB21
 856 000a 00       		.uleb128 0
 857 000b 00       		.uleb128 0
 858              	.LLSDACSE1469:
 859              		.section	.text._ZN27TestHexIO_testJunkStartCodeD0Ev,"axG",@progbits,_ZN27TestHexIO_testJunkStartCo
 861              		.section	.text._ZN22TestHexIO_testValidEOFD2Ev,"axG",@progbits,_ZN22TestHexIO_testValidEOFD5Ev,com
 862              		.align 2
 863              		.p2align 4,,15
 864              		.weak	_ZN22TestHexIO_testValidEOFD2Ev
 866              	_ZN22TestHexIO_testValidEOFD2Ev:
 867              	.LFB1471:
 868              		.cfi_startproc
 869 0000 488D0500 		leaq	16+_ZTV22TestHexIO_testValidEOF(%rip), %rax
 869      000000
 870 0007 488907   		movq	%rax, (%rdi)
 871 000a E9000000 		jmp	_ZN8UnitTest4TestD2Ev@PLT
 871      00
 872              		.cfi_endproc
 873              	.LFE1471:
 875              		.weak	_ZN22TestHexIO_testValidEOFD1Ev
 876              		.set	_ZN22TestHexIO_testValidEOFD1Ev,_ZN22TestHexIO_testValidEOFD2Ev
 877              		.section	.text._ZN22TestHexIO_testValidEOFD0Ev,"axG",@progbits,_ZN22TestHexIO_testValidEOFD5Ev,com
 878              		.align 2
 879              		.p2align 4,,15
 880              		.weak	_ZN22TestHexIO_testValidEOFD0Ev
 882              	_ZN22TestHexIO_testValidEOFD0Ev:
 883              	.LFB1473:
 884              		.cfi_startproc
 885              		.cfi_personality 0x9b,DW.ref.__gxx_personality_v0
 886              		.cfi_lsda 0x1b,.LLSDA1473
 887 0000 55       		pushq	%rbp
 888              		.cfi_def_cfa_offset 16
 889              		.cfi_offset 6, -16
 890 0001 488D0500 		leaq	16+_ZTV22TestHexIO_testValidEOF(%rip), %rax
 890      000000
 891 0008 53       		pushq	%rbx
 892              		.cfi_def_cfa_offset 24
 893              		.cfi_offset 3, -24
 894 0009 4889FB   		movq	%rdi, %rbx
 895 000c 4883EC08 		subq	$8, %rsp
 896              		.cfi_def_cfa_offset 32
 897 0010 488907   		movq	%rax, (%rdi)
 898              	.LEHB22:
 899 0013 E8000000 		call	_ZN8UnitTest4TestD2Ev@PLT
 899      00
 900              	.LEHE22:
 901 0018 4883C408 		addq	$8, %rsp
 902              		.cfi_remember_state
 903              		.cfi_def_cfa_offset 24
 904 001c 4889DF   		movq	%rbx, %rdi
 905 001f 5B       		popq	%rbx
 906              		.cfi_def_cfa_offset 16
 907 0020 5D       		popq	%rbp
 908              		.cfi_def_cfa_offset 8
 909 0021 E9000000 		jmp	_ZdlPv@PLT
 909      00
 910              	.L60:
 911              		.cfi_restore_state
 912 0026 4889C5   		movq	%rax, %rbp
 913 0029 4889DF   		movq	%rbx, %rdi
 914 002c E8000000 		call	_ZdlPv@PLT
 914      00
 915 0031 4889EF   		movq	%rbp, %rdi
 916              	.LEHB23:
 917 0034 E8000000 		call	_Unwind_Resume@PLT
 917      00
 918              	.LEHE23:
 919              		.cfi_endproc
 920              	.LFE1473:
 921              		.section	.gcc_except_table._ZN22TestHexIO_testValidEOFD0Ev,"aG",@progbits,_ZN22TestHexIO_testValid
 922              	.LLSDA1473:
 923 0000 FF       		.byte	0xff
 924 0001 FF       		.byte	0xff
 925 0002 01       		.byte	0x1
 926 0003 08       		.uleb128 .LLSDACSE1473-.LLSDACSB1473
 927              	.LLSDACSB1473:
 928 0004 13       		.uleb128 .LEHB22-.LFB1473
 929 0005 05       		.uleb128 .LEHE22-.LEHB22
 930 0006 26       		.uleb128 .L60-.LFB1473
 931 0007 00       		.uleb128 0
 932 0008 34       		.uleb128 .LEHB23-.LFB1473
 933 0009 05       		.uleb128 .LEHE23-.LEHB23
 934 000a 00       		.uleb128 0
 935 000b 00       		.uleb128 0
 936              	.LLSDACSE1473:
 937              		.section	.text._ZN22TestHexIO_testValidEOFD0Ev,"axG",@progbits,_ZN22TestHexIO_testValidEOFD5Ev,com
 939              		.section	.text._ZN27TestHexIO_testValidDataLineD2Ev,"axG",@progbits,_ZN27TestHexIO_testValidDataLi
 940              		.align 2
 941              		.p2align 4,,15
 942              		.weak	_ZN27TestHexIO_testValidDataLineD2Ev
 944              	_ZN27TestHexIO_testValidDataLineD2Ev:
 945              	.LFB1475:
 946              		.cfi_startproc
 947 0000 488D0500 		leaq	16+_ZTV27TestHexIO_testValidDataLine(%rip), %rax
 947      000000
 948 0007 488907   		movq	%rax, (%rdi)
 949 000a E9000000 		jmp	_ZN8UnitTest4TestD2Ev@PLT
 949      00
 950              		.cfi_endproc
 951              	.LFE1475:
 953              		.weak	_ZN27TestHexIO_testValidDataLineD1Ev
 954              		.set	_ZN27TestHexIO_testValidDataLineD1Ev,_ZN27TestHexIO_testValidDataLineD2Ev
 955              		.section	.text._ZN27TestHexIO_testValidDataLineD0Ev,"axG",@progbits,_ZN27TestHexIO_testValidDataLi
 956              		.align 2
 957              		.p2align 4,,15
 958              		.weak	_ZN27TestHexIO_testValidDataLineD0Ev
 960              	_ZN27TestHexIO_testValidDataLineD0Ev:
 961              	.LFB1477:
 962              		.cfi_startproc
 963              		.cfi_personality 0x9b,DW.ref.__gxx_personality_v0
 964              		.cfi_lsda 0x1b,.LLSDA1477
 965 0000 55       		pushq	%rbp
 966              		.cfi_def_cfa_offset 16
 967              		.cfi_offset 6, -16
 968 0001 488D0500 		leaq	16+_ZTV27TestHexIO_testValidDataLine(%rip), %rax
 968      000000
 969 0008 53       		pushq	%rbx
 970              		.cfi_def_cfa_offset 24
 971              		.cfi_offset 3, -24
 972 0009 4889FB   		movq	%rdi, %rbx
 973 000c 4883EC08 		subq	$8, %rsp
 974              		.cfi_def_cfa_offset 32
 975 0010 488907   		movq	%rax, (%rdi)
 976              	.LEHB24:
 977 0013 E8000000 		call	_ZN8UnitTest4TestD2Ev@PLT
 977      00
 978              	.LEHE24:
 979 0018 4883C408 		addq	$8, %rsp
 980              		.cfi_remember_state
 981              		.cfi_def_cfa_offset 24
 982 001c 4889DF   		movq	%rbx, %rdi
 983 001f 5B       		popq	%rbx
 984              		.cfi_def_cfa_offset 16
 985 0020 5D       		popq	%rbp
 986              		.cfi_def_cfa_offset 8
 987 0021 E9000000 		jmp	_ZdlPv@PLT
 987      00
 988              	.L65:
 989              		.cfi_restore_state
 990 0026 4889C5   		movq	%rax, %rbp
 991 0029 4889DF   		movq	%rbx, %rdi
 992 002c E8000000 		call	_ZdlPv@PLT
 992      00
 993 0031 4889EF   		movq	%rbp, %rdi
 994              	.LEHB25:
 995 0034 E8000000 		call	_Unwind_Resume@PLT
 995      00
 996              	.LEHE25:
 997              		.cfi_endproc
 998              	.LFE1477:
 999              		.section	.gcc_except_table._ZN27TestHexIO_testValidDataLineD0Ev,"aG",@progbits,_ZN27TestHexIO_test
 1000              	.LLSDA1477:
 1001 0000 FF       		.byte	0xff
 1002 0001 FF       		.byte	0xff
 1003 0002 01       		.byte	0x1
 1004 0003 08       		.uleb128 .LLSDACSE1477-.LLSDACSB1477
 1005              	.LLSDACSB1477:
 1006 0004 13       		.uleb128 .LEHB24-.LFB1477
 1007 0005 05       		.uleb128 .LEHE24-.LEHB24
 1008 0006 26       		.uleb128 .L65-.LFB1477
 1009 0007 00       		.uleb128 0
 1010 0008 34       		.uleb128 .LEHB25-.LFB1477
 1011 0009 05       		.uleb128 .LEHE25-.LEHB25
 1012 000a 00       		.uleb128 0
 1013 000b 00       		.uleb128 0
 1014              	.LLSDACSE1477:
 1015              		.section	.text._ZN27TestHexIO_testValidDataLineD0Ev,"axG",@progbits,_ZN27TestHexIO_testValidDataLi
 1017              		.section	.text._ZN8UnitTest15MemoryOutStreamD1Ev,"axG",@progbits,_ZN8UnitTest15MemoryOutStreamD1Ev
 1018              		.align 2
 1019              		.p2align 4,,15
 1020              		.weak	_ZN8UnitTest15MemoryOutStreamD1Ev
 1022              	_ZN8UnitTest15MemoryOutStreamD1Ev:
 1023              	.LFB1325:
 1024              		.cfi_startproc
 1025 0000 55       		pushq	%rbp
 1026              		.cfi_def_cfa_offset 16
 1027              		.cfi_offset 6, -16
 1028 0001 488D0500 		leaq	24+_ZTVN8UnitTest15MemoryOutStreamE(%rip), %rax
 1028      000000
 1029 0008 53       		pushq	%rbx
 1030              		.cfi_def_cfa_offset 24
 1031              		.cfi_offset 3, -24
 1032 0009 4889FB   		movq	%rdi, %rbx
 1033 000c 4883EC08 		subq	$8, %rsp
 1034              		.cfi_def_cfa_offset 32
 1035 0010 488907   		movq	%rax, (%rdi)
 1036 0013 4883C028 		addq	$40, %rax
 1037 0017 48898790 		movq	%rax, 144(%rdi)
 1037      000000
 1038 001e 488B7F70 		movq	112(%rdi), %rdi
 1039 0022 488D8380 		leaq	128(%rbx), %rax
 1039      000000
 1040 0029 4839C7   		cmpq	%rax, %rdi
 1041 002c 7405     		je	.L68
 1042 002e E8000000 		call	_ZdlPv@PLT
 1042      00
 1043              	.L68:
 1044 0033 488D0500 		leaq	24+_ZTCN8UnitTest15MemoryOutStreamE0_NSt7__cxx1119basic_ostringstreamIcSt11char_traitsIcESaIc
 1044      000000
 1045 003a 488B7B50 		movq	80(%rbx), %rdi
 1046 003e 488DAB90 		leaq	144(%rbx), %rbp
 1046      000000
 1047 0045 488903   		movq	%rax, (%rbx)
 1048 0048 4883C028 		addq	$40, %rax
 1049 004c 48898390 		movq	%rax, 144(%rbx)
 1049      000000
 1050 0053 488D0500 		leaq	16+_ZTVNSt7__cxx1115basic_stringbufIcSt11char_traitsIcESaIcEEE(%rip), %rax
 1050      000000
 1051 005a 48894308 		movq	%rax, 8(%rbx)
 1052 005e 488D4360 		leaq	96(%rbx), %rax
 1053 0062 4839C7   		cmpq	%rax, %rdi
 1054 0065 7405     		je	.L69
 1055 0067 E8000000 		call	_ZdlPv@PLT
 1055      00
 1056              	.L69:
 1057 006c 488D0500 		leaq	16+_ZTVSt15basic_streambufIcSt11char_traitsIcEE(%rip), %rax
 1057      000000
 1058 0073 488D7B40 		leaq	64(%rbx), %rdi
 1059 0077 48894308 		movq	%rax, 8(%rbx)
 1060 007b E8000000 		call	_ZNSt6localeD1Ev@PLT
 1060      00
 1061 0080 488D0500 		leaq	24+_ZTCN8UnitTest15MemoryOutStreamE0_So(%rip), %rax
 1061      000000
 1062 0087 4889EF   		movq	%rbp, %rdi
 1063 008a 488903   		movq	%rax, (%rbx)
 1064 008d 488D0500 		leaq	16+_ZTVSt9basic_iosIcSt11char_traitsIcEE(%rip), %rax
 1064      000000
 1065 0094 48898390 		movq	%rax, 144(%rbx)
 1065      000000
 1066 009b 4883C408 		addq	$8, %rsp
 1067              		.cfi_def_cfa_offset 24
 1068 009f 5B       		popq	%rbx
 1069              		.cfi_def_cfa_offset 16
 1070 00a0 5D       		popq	%rbp
 1071              		.cfi_def_cfa_offset 8
 1072 00a1 E9000000 		jmp	_ZNSt8ios_baseD2Ev@PLT
 1072      00
 1073              		.cfi_endproc
 1074              	.LFE1325:
 1076              		.section	.text._ZN8UnitTest15MemoryOutStreamD0Ev,"axG",@progbits,_ZN8UnitTest15MemoryOutStreamD0Ev
 1077              		.p2align 4,,15
 1078              		.weak	_ZTv0_n24_N8UnitTest15MemoryOutStreamD0Ev
 1080              	_ZTv0_n24_N8UnitTest15MemoryOutStreamD0Ev:
 1081              	.LFB1499:
 1082              		.cfi_startproc
 1083              		.cfi_personality 0x9b,DW.ref.__gxx_personality_v0
 1084              		.cfi_lsda 0x1b,.LLSDA1499
 1085 0000 55       		pushq	%rbp
 1086              		.cfi_def_cfa_offset 16
 1087              		.cfi_offset 6, -16
 1088 0001 53       		pushq	%rbx
 1089              		.cfi_def_cfa_offset 24
 1090              		.cfi_offset 3, -24
 1091 0002 4883EC08 		subq	$8, %rsp
 1092              		.cfi_def_cfa_offset 32
 1093 0006 488B07   		movq	(%rdi), %rax
 1094 0009 480378E8 		addq	-24(%rax), %rdi
 1095 000d 488D0500 		leaq	24+_ZTVN8UnitTest15MemoryOutStreamE(%rip), %rax
 1095      000000
 1096 0014 488907   		movq	%rax, (%rdi)
 1097 0017 4883C028 		addq	$40, %rax
 1098 001b 4889FB   		movq	%rdi, %rbx
 1099 001e 48898790 		movq	%rax, 144(%rdi)
 1099      000000
 1100 0025 488B7F70 		movq	112(%rdi), %rdi
 1101 0029 488D8380 		leaq	128(%rbx), %rax
 1101      000000
 1102 0030 4839C7   		cmpq	%rax, %rdi
 1103 0033 7405     		je	.L72
 1104 0035 E8000000 		call	_ZdlPv@PLT
 1104      00
 1105              	.L72:
 1106 003a 488D0500 		leaq	24+_ZTCN8UnitTest15MemoryOutStreamE0_NSt7__cxx1119basic_ostringstreamIcSt11char_traitsIcESaIc
 1106      000000
 1107 0041 488B7B50 		movq	80(%rbx), %rdi
 1108 0045 488DAB90 		leaq	144(%rbx), %rbp
 1108      000000
 1109 004c 488903   		movq	%rax, (%rbx)
 1110 004f 4883C028 		addq	$40, %rax
 1111 0053 48898390 		movq	%rax, 144(%rbx)
 1111      000000
 1112 005a 488D0500 		leaq	16+_ZTVNSt7__cxx1115basic_stringbufIcSt11char_traitsIcESaIcEEE(%rip), %rax
 1112      000000
 1113 0061 48894308 		movq	%rax, 8(%rbx)
 1114 0065 488D4360 		leaq	96(%rbx), %rax
 1115 0069 4839C7   		cmpq	%rax, %rdi
 1116 006c 7405     		je	.L73
 1117 006e E8000000 		call	_ZdlPv@PLT
 1117      00
 1118              	.L73:
 1119 0073 488D0500 		leaq	16+_ZTVSt15basic_streambufIcSt11char_traitsIcEE(%rip), %rax
 1119      000000
 1120 007a 488D7B40 		leaq	64(%rbx), %rdi
 1121 007e 48894308 		movq	%rax, 8(%rbx)
 1122 0082 E8000000 		call	_ZNSt6localeD1Ev@PLT
 1122      00
 1123 0087 488D0500 		leaq	24+_ZTCN8UnitTest15MemoryOutStreamE0_So(%rip), %rax
 1123      000000
 1124 008e 4889EF   		movq	%rbp, %rdi
 1125 0091 488903   		movq	%rax, (%rbx)
 1126 0094 488D0500 		leaq	16+_ZTVSt9basic_iosIcSt11char_traitsIcEE(%rip), %rax
 1126      000000
 1127 009b 48898390 		movq	%rax, 144(%rbx)
 1127      000000
 1128              	.LEHB26:
 1129 00a2 E8000000 		call	_ZNSt8ios_baseD2Ev@PLT
 1129      00
 1130              	.LEHE26:
 1131 00a7 4883C408 		addq	$8, %rsp
 1132              		.cfi_remember_state
 1133              		.cfi_def_cfa_offset 24
 1134 00ab 4889DF   		movq	%rbx, %rdi
 1135 00ae 5B       		popq	%rbx
 1136              		.cfi_def_cfa_offset 16
 1137 00af 5D       		popq	%rbp
 1138              		.cfi_def_cfa_offset 8
 1139 00b0 E9000000 		jmp	_ZdlPv@PLT
 1139      00
 1140              	.L75:
 1141              		.cfi_restore_state
 1142 00b5 4889C5   		movq	%rax, %rbp
 1143 00b8 4889DF   		movq	%rbx, %rdi
 1144 00bb E8000000 		call	_ZdlPv@PLT
 1144      00
 1145 00c0 4889EF   		movq	%rbp, %rdi
 1146              	.LEHB27:
 1147 00c3 E8000000 		call	_Unwind_Resume@PLT
 1147      00
 1148              	.LEHE27:
 1149              		.cfi_endproc
 1150              	.LFE1499:
 1151              		.section	.gcc_except_table._ZTv0_n24_N8UnitTest15MemoryOutStreamD0Ev,"aG",@progbits,_ZN8UnitTest15
 1152              	.LLSDA1499:
 1153 0000 FF       		.byte	0xff
 1154 0001 FF       		.byte	0xff
 1155 0002 01       		.byte	0x1
 1156 0003 0B       		.uleb128 .LLSDACSE1499-.LLSDACSB1499
 1157              	.LLSDACSB1499:
 1158 0004 A201     		.uleb128 .LEHB26-.LFB1499
 1159 0006 05       		.uleb128 .LEHE26-.LEHB26
 1160 0007 B501     		.uleb128 .L75-.LFB1499
 1161 0009 00       		.uleb128 0
 1162 000a C301     		.uleb128 .LEHB27-.LFB1499
 1163 000c 05       		.uleb128 .LEHE27-.LEHB27
 1164 000d 00       		.uleb128 0
 1165 000e 00       		.uleb128 0
 1166              	.LLSDACSE1499:
 1167              		.section	.text._ZN8UnitTest15MemoryOutStreamD0Ev,"axG",@progbits,_ZN8UnitTest15MemoryOutStreamD0Ev
 1169              		.section	.text._ZN8UnitTest15MemoryOutStreamD1Ev,"axG",@progbits,_ZN8UnitTest15MemoryOutStreamD1Ev
 1170 00a6 662E0F1F 		.p2align 4,,15
 1170      84000000 
 1170      0000
 1171              		.weak	_ZTv0_n24_N8UnitTest15MemoryOutStreamD1Ev
 1173              	_ZTv0_n24_N8UnitTest15MemoryOutStreamD1Ev:
 1174              	.LFB1500:
 1175              		.cfi_startproc
 1176 00b0 55       		pushq	%rbp
 1177              		.cfi_def_cfa_offset 16
 1178              		.cfi_offset 6, -16
 1179 00b1 53       		pushq	%rbx
 1180              		.cfi_def_cfa_offset 24
 1181              		.cfi_offset 3, -24
 1182 00b2 4883EC08 		subq	$8, %rsp
 1183              		.cfi_def_cfa_offset 32
 1184 00b6 488B07   		movq	(%rdi), %rax
 1185 00b9 480378E8 		addq	-24(%rax), %rdi
 1186 00bd 488D0500 		leaq	24+_ZTVN8UnitTest15MemoryOutStreamE(%rip), %rax
 1186      000000
 1187 00c4 488907   		movq	%rax, (%rdi)
 1188 00c7 4883C028 		addq	$40, %rax
 1189 00cb 4889FB   		movq	%rdi, %rbx
 1190 00ce 48898790 		movq	%rax, 144(%rdi)
 1190      000000
 1191 00d5 488B7F70 		movq	112(%rdi), %rdi
 1192 00d9 488D8380 		leaq	128(%rbx), %rax
 1192      000000
 1193 00e0 4839C7   		cmpq	%rax, %rdi
 1194 00e3 7405     		je	.L78
 1195 00e5 E8000000 		call	_ZdlPv@PLT
 1195      00
 1196              	.L78:
 1197 00ea 488D0500 		leaq	24+_ZTCN8UnitTest15MemoryOutStreamE0_NSt7__cxx1119basic_ostringstreamIcSt11char_traitsIcESaIc
 1197      000000
 1198 00f1 488B7B50 		movq	80(%rbx), %rdi
 1199 00f5 488DAB90 		leaq	144(%rbx), %rbp
 1199      000000
 1200 00fc 488903   		movq	%rax, (%rbx)
 1201 00ff 4883C028 		addq	$40, %rax
 1202 0103 48898390 		movq	%rax, 144(%rbx)
 1202      000000
 1203 010a 488D0500 		leaq	16+_ZTVNSt7__cxx1115basic_stringbufIcSt11char_traitsIcESaIcEEE(%rip), %rax
 1203      000000
 1204 0111 48894308 		movq	%rax, 8(%rbx)
 1205 0115 488D4360 		leaq	96(%rbx), %rax
 1206 0119 4839C7   		cmpq	%rax, %rdi
 1207 011c 7405     		je	.L79
 1208 011e E8000000 		call	_ZdlPv@PLT
 1208      00
 1209              	.L79:
 1210 0123 488D0500 		leaq	16+_ZTVSt15basic_streambufIcSt11char_traitsIcEE(%rip), %rax
 1210      000000
 1211 012a 488D7B40 		leaq	64(%rbx), %rdi
 1212 012e 48894308 		movq	%rax, 8(%rbx)
 1213 0132 E8000000 		call	_ZNSt6localeD1Ev@PLT
 1213      00
 1214 0137 488D0500 		leaq	24+_ZTCN8UnitTest15MemoryOutStreamE0_So(%rip), %rax
 1214      000000
 1215 013e 4889EF   		movq	%rbp, %rdi
 1216 0141 488903   		movq	%rax, (%rbx)
 1217 0144 488D0500 		leaq	16+_ZTVSt9basic_iosIcSt11char_traitsIcEE(%rip), %rax
 1217      000000
 1218 014b 48898390 		movq	%rax, 144(%rbx)
 1218      000000
 1219 0152 4883C408 		addq	$8, %rsp
 1220              		.cfi_def_cfa_offset 24
 1221 0156 5B       		popq	%rbx
 1222              		.cfi_def_cfa_offset 16
 1223 0157 5D       		popq	%rbp
 1224              		.cfi_def_cfa_offset 8
 1225 0158 E9000000 		jmp	_ZNSt8ios_baseD2Ev@PLT
 1225      00
 1226              		.cfi_endproc
 1227              	.LFE1500:
 1229              		.section	.text._ZN8UnitTest15MemoryOutStreamD0Ev,"axG",@progbits,_ZN8UnitTest15MemoryOutStreamD0Ev
 1230              		.align 2
 1231 00c8 0F1F8400 		.p2align 4,,15
 1231      00000000 
 1232              		.weak	_ZN8UnitTest15MemoryOutStreamD0Ev
 1234              	_ZN8UnitTest15MemoryOutStreamD0Ev:
 1235              	.LFB1326:
 1236              		.cfi_startproc
 1237              		.cfi_personality 0x9b,DW.ref.__gxx_personality_v0
 1238              		.cfi_lsda 0x1b,.LLSDA1326
 1239 00d0 55       		pushq	%rbp
 1240              		.cfi_def_cfa_offset 16
 1241              		.cfi_offset 6, -16
 1242 00d1 488D0500 		leaq	24+_ZTVN8UnitTest15MemoryOutStreamE(%rip), %rax
 1242      000000
 1243 00d8 53       		pushq	%rbx
 1244              		.cfi_def_cfa_offset 24
 1245              		.cfi_offset 3, -24
 1246 00d9 4889FB   		movq	%rdi, %rbx
 1247 00dc 4883EC08 		subq	$8, %rsp
 1248              		.cfi_def_cfa_offset 32
 1249 00e0 488907   		movq	%rax, (%rdi)
 1250 00e3 4883C028 		addq	$40, %rax
 1251 00e7 48898790 		movq	%rax, 144(%rdi)
 1251      000000
 1252 00ee 488B7F70 		movq	112(%rdi), %rdi
 1253 00f2 488D8380 		leaq	128(%rbx), %rax
 1253      000000
 1254 00f9 4839C7   		cmpq	%rax, %rdi
 1255 00fc 7405     		je	.L82
 1256 00fe E8000000 		call	_ZdlPv@PLT
 1256      00
 1257              	.L82:
 1258 0103 488D0500 		leaq	24+_ZTCN8UnitTest15MemoryOutStreamE0_NSt7__cxx1119basic_ostringstreamIcSt11char_traitsIcESaIc
 1258      000000
 1259 010a 488B7B50 		movq	80(%rbx), %rdi
 1260 010e 488DAB90 		leaq	144(%rbx), %rbp
 1260      000000
 1261 0115 488903   		movq	%rax, (%rbx)
 1262 0118 4883C028 		addq	$40, %rax
 1263 011c 48898390 		movq	%rax, 144(%rbx)
 1263      000000
 1264 0123 488D0500 		leaq	16+_ZTVNSt7__cxx1115basic_stringbufIcSt11char_traitsIcESaIcEEE(%rip), %rax
 1264      000000
 1265 012a 48894308 		movq	%rax, 8(%rbx)
 1266 012e 488D4360 		leaq	96(%rbx), %rax
 1267 0132 4839C7   		cmpq	%rax, %rdi
 1268 0135 7405     		je	.L83
 1269 0137 E8000000 		call	_ZdlPv@PLT
 1269      00
 1270              	.L83:
 1271 013c 488D0500 		leaq	16+_ZTVSt15basic_streambufIcSt11char_traitsIcEE(%rip), %rax
 1271      000000
 1272 0143 488D7B40 		leaq	64(%rbx), %rdi
 1273 0147 48894308 		movq	%rax, 8(%rbx)
 1274 014b E8000000 		call	_ZNSt6localeD1Ev@PLT
 1274      00
 1275 0150 488D0500 		leaq	24+_ZTCN8UnitTest15MemoryOutStreamE0_So(%rip), %rax
 1275      000000
 1276 0157 4889EF   		movq	%rbp, %rdi
 1277 015a 488903   		movq	%rax, (%rbx)
 1278 015d 488D0500 		leaq	16+_ZTVSt9basic_iosIcSt11char_traitsIcEE(%rip), %rax
 1278      000000
 1279 0164 48898390 		movq	%rax, 144(%rbx)
 1279      000000
 1280              	.LEHB28:
 1281 016b E8000000 		call	_ZNSt8ios_baseD2Ev@PLT
 1281      00
 1282              	.LEHE28:
 1283 0170 4883C408 		addq	$8, %rsp
 1284              		.cfi_remember_state
 1285              		.cfi_def_cfa_offset 24
 1286 0174 4889DF   		movq	%rbx, %rdi
 1287 0177 5B       		popq	%rbx
 1288              		.cfi_def_cfa_offset 16
 1289 0178 5D       		popq	%rbp
 1290              		.cfi_def_cfa_offset 8
 1291 0179 E9000000 		jmp	_ZdlPv@PLT
 1291      00
 1292              	.L85:
 1293              		.cfi_restore_state
 1294 017e 4889C5   		movq	%rax, %rbp
 1295 0181 4889DF   		movq	%rbx, %rdi
 1296 0184 E8000000 		call	_ZdlPv@PLT
 1296      00
 1297 0189 4889EF   		movq	%rbp, %rdi
 1298              	.LEHB29:
 1299 018c E8000000 		call	_Unwind_Resume@PLT
 1299      00
 1300              	.LEHE29:
 1301              		.cfi_endproc
 1302              	.LFE1326:
 1303              		.section	.gcc_except_table._ZN8UnitTest15MemoryOutStreamD0Ev,"aG",@progbits,_ZN8UnitTest15MemoryOu
 1304              	.LLSDA1326:
 1305 0000 FF       		.byte	0xff
 1306 0001 FF       		.byte	0xff
 1307 0002 01       		.byte	0x1
 1308 0003 0B       		.uleb128 .LLSDACSE1326-.LLSDACSB1326
 1309              	.LLSDACSB1326:
 1310 0004 9B01     		.uleb128 .LEHB28-.LFB1326
 1311 0006 05       		.uleb128 .LEHE28-.LEHB28
 1312 0007 AE01     		.uleb128 .L85-.LFB1326
 1313 0009 00       		.uleb128 0
 1314 000a BC01     		.uleb128 .LEHB29-.LFB1326
 1315 000c 05       		.uleb128 .LEHE29-.LEHB29
 1316 000d 00       		.uleb128 0
 1317 000e 00       		.uleb128 0
 1318              	.LLSDACSE1326:
 1319              		.section	.text._ZN8UnitTest15MemoryOutStreamD0Ev,"axG",@progbits,_ZN8UnitTest15MemoryOutStreamD0Ev
 1321              		.section	.text._ZNSt7__cxx1115basic_stringbufIcSt11char_traitsIcESaIcEED2Ev,"axG",@progbits,_ZNSt7
 1322              		.align 2
 1323              		.p2align 4,,15
 1324              		.weak	_ZNSt7__cxx1115basic_stringbufIcSt11char_traitsIcESaIcEED2Ev
 1326              	_ZNSt7__cxx1115basic_stringbufIcSt11char_traitsIcESaIcEED2Ev:
 1327              	.LFB1304:
 1328              		.cfi_startproc
 1329 0000 488D0500 		leaq	16+_ZTVNSt7__cxx1115basic_stringbufIcSt11char_traitsIcESaIcEEE(%rip), %rax
 1329      000000
 1330 0007 53       		pushq	%rbx
 1331              		.cfi_def_cfa_offset 16
 1332              		.cfi_offset 3, -16
 1333 0008 4889FB   		movq	%rdi, %rbx
 1334 000b 488907   		movq	%rax, (%rdi)
 1335 000e 488B7F48 		movq	72(%rdi), %rdi
 1336 0012 488D4358 		leaq	88(%rbx), %rax
 1337 0016 4839C7   		cmpq	%rax, %rdi
 1338 0019 7405     		je	.L88
 1339 001b E8000000 		call	_ZdlPv@PLT
 1339      00
 1340              	.L88:
 1341 0020 488D0500 		leaq	16+_ZTVSt15basic_streambufIcSt11char_traitsIcEE(%rip), %rax
 1341      000000
 1342 0027 488D7B38 		leaq	56(%rbx), %rdi
 1343 002b 488903   		movq	%rax, (%rbx)
 1344 002e 5B       		popq	%rbx
 1345              		.cfi_def_cfa_offset 8
 1346 002f E9000000 		jmp	_ZNSt6localeD1Ev@PLT
 1346      00
 1347              		.cfi_endproc
 1348              	.LFE1304:
 1350              		.weak	_ZNSt7__cxx1115basic_stringbufIcSt11char_traitsIcESaIcEED1Ev
 1351              		.set	_ZNSt7__cxx1115basic_stringbufIcSt11char_traitsIcESaIcEED1Ev,_ZNSt7__cxx1115basic_stringbufIc
 1352              		.section	.text._ZNSt7__cxx1115basic_stringbufIcSt11char_traitsIcESaIcEED0Ev,"axG",@progbits,_ZNSt7
 1353              		.align 2
 1354              		.p2align 4,,15
 1355              		.weak	_ZNSt7__cxx1115basic_stringbufIcSt11char_traitsIcESaIcEED0Ev
 1357              	_ZNSt7__cxx1115basic_stringbufIcSt11char_traitsIcESaIcEED0Ev:
 1358              	.LFB1306:
 1359              		.cfi_startproc
 1360 0000 488D0500 		leaq	16+_ZTVNSt7__cxx1115basic_stringbufIcSt11char_traitsIcESaIcEEE(%rip), %rax
 1360      000000
 1361 0007 53       		pushq	%rbx
 1362              		.cfi_def_cfa_offset 16
 1363              		.cfi_offset 3, -16
 1364 0008 4889FB   		movq	%rdi, %rbx
 1365 000b 488907   		movq	%rax, (%rdi)
 1366 000e 488B7F48 		movq	72(%rdi), %rdi
 1367 0012 488D4358 		leaq	88(%rbx), %rax
 1368 0016 4839C7   		cmpq	%rax, %rdi
 1369 0019 7405     		je	.L91
 1370 001b E8000000 		call	_ZdlPv@PLT
 1370      00
 1371              	.L91:
 1372 0020 488D0500 		leaq	16+_ZTVSt15basic_streambufIcSt11char_traitsIcEE(%rip), %rax
 1372      000000
 1373 0027 488D7B38 		leaq	56(%rbx), %rdi
 1374 002b 488903   		movq	%rax, (%rbx)
 1375 002e E8000000 		call	_ZNSt6localeD1Ev@PLT
 1375      00
 1376 0033 4889DF   		movq	%rbx, %rdi
 1377 0036 5B       		popq	%rbx
 1378              		.cfi_def_cfa_offset 8
 1379 0037 E9000000 		jmp	_ZdlPv@PLT
 1379      00
 1380              		.cfi_endproc
 1381              	.LFE1306:
 1383              		.section	.rodata._ZN8UnitTest10CheckEqualI12BufferStatusS1_EEvRNS_11TestResultsERKT_RKT0_RKNS_11Te
 1384              	.LC0:
 1385 0000 45787065 		.string	"Expected "
 1385      63746564 
 1385      2000
 1386              	.LC1:
 1387 000a 20627574 		.string	" but was "
 1387      20776173 
 1387      2000
 1388              		.section	.text._ZN8UnitTest10CheckEqualI12BufferStatusS1_EEvRNS_11TestResultsERKT_RKT0_RKNS_11Test
 1389              		.p2align 4,,15
 1390              		.weak	_ZN8UnitTest10CheckEqualI12BufferStatusS1_EEvRNS_11TestResultsERKT_RKT0_RKNS_11TestDetailsE
 1392              	_ZN8UnitTest10CheckEqualI12BufferStatusS1_EEvRNS_11TestResultsERKT_RKT0_RKNS_11TestDetailsE:
 1393              	.LFB1322:
 1394              		.cfi_startproc
 1395              		.cfi_personality 0x9b,DW.ref.__gxx_personality_v0
 1396              		.cfi_lsda 0x1b,.LLSDA1322
 1397 0000 4157     		pushq	%r15
 1398              		.cfi_def_cfa_offset 16
 1399              		.cfi_offset 15, -16
 1400 0002 4156     		pushq	%r14
 1401              		.cfi_def_cfa_offset 24
 1402              		.cfi_offset 14, -24
 1403 0004 4155     		pushq	%r13
 1404              		.cfi_def_cfa_offset 32
 1405              		.cfi_offset 13, -32
 1406 0006 4154     		pushq	%r12
 1407              		.cfi_def_cfa_offset 40
 1408              		.cfi_offset 12, -40
 1409 0008 55       		pushq	%rbp
 1410              		.cfi_def_cfa_offset 48
 1411              		.cfi_offset 6, -48
 1412 0009 53       		pushq	%rbx
 1413              		.cfi_def_cfa_offset 56
 1414              		.cfi_offset 3, -56
 1415 000a 4881ECB8 		subq	$440, %rsp
 1415      010000
 1416              		.cfi_def_cfa_offset 496
 1417 0011 64488B04 		movq	%fs:40, %rax
 1417      25280000 
 1417      00
 1418 001a 48898424 		movq	%rax, 424(%rsp)
 1418      A8010000 
 1419 0022 31C0     		xorl	%eax, %eax
 1420 0024 8B02     		movl	(%rdx), %eax
 1421 0026 3906     		cmpl	%eax, (%rsi)
 1422 0028 48893C24 		movq	%rdi, (%rsp)
 1423 002c 48894C24 		movq	%rcx, 8(%rsp)
 1423      08
 1424 0031 0F842F02 		je	.L93
 1424      0000
 1425 0037 488D5C24 		leaq	16(%rsp), %rbx
 1425      10
 1426 003c 4C8D2D00 		leaq	24+_ZTCN8UnitTest15MemoryOutStreamE0_So(%rip), %r13
 1426      000000
 1427 0043 4989F4   		movq	%rsi, %r12
 1428 0046 4889D5   		movq	%rdx, %rbp
 1429 0049 4C8DB390 		leaq	144(%rbx), %r14
 1429      000000
 1430 0050 4C89F7   		movq	%r14, %rdi
 1431 0053 E8000000 		call	_ZNSt8ios_baseC2Ev@PLT
 1431      00
 1432 0058 498D4528 		leaq	40(%r13), %rax
 1433 005c 31F6     		xorl	%esi, %esi
 1434 005e 4C89F7   		movq	%r14, %rdi
 1435 0061 48C78424 		movq	$0, 376(%rsp)
 1435      78010000 
 1435      00000000 
 1436 006d C6842480 		movb	$0, 384(%rsp)
 1436      01000000 
 1437 0075 C6842481 		movb	$0, 385(%rsp)
 1437      01000000 
 1438 007d 48C78424 		movq	$0, 392(%rsp)
 1438      88010000 
 1438      00000000 
 1439 0089 48C78424 		movq	$0, 400(%rsp)
 1439      90010000 
 1439      00000000 
 1440 0095 48C78424 		movq	$0, 408(%rsp)
 1440      98010000 
 1440      00000000 
 1441 00a1 48C78424 		movq	$0, 416(%rsp)
 1441      A0010000 
 1441      00000000 
 1442 00ad 4C896C24 		movq	%r13, 16(%rsp)
 1442      10
 1443 00b2 48898424 		movq	%rax, 160(%rsp)
 1443      A0000000 
 1444              	.LEHB30:
 1445 00ba E8000000 		call	_ZNSt9basic_iosIcSt11char_traitsIcEE4initEPSt15basic_streambufIcS1_E@PLT
 1445      00
 1446              	.LEHE30:
 1447 00bf 488D0500 		leaq	24+_ZTCN8UnitTest15MemoryOutStreamE0_NSt7__cxx1119basic_ostringstreamIcSt11char_traitsIcESaIc
 1447      000000
 1448 00c6 660FEFC0 		pxor	%xmm0, %xmm0
 1449 00ca 488D7B40 		leaq	64(%rbx), %rdi
 1450 00ce 48894424 		movq	%rax, 16(%rsp)
 1450      10
 1451 00d3 4883C028 		addq	$40, %rax
 1452 00d7 48898424 		movq	%rax, 160(%rsp)
 1452      A0000000 
 1453 00df 488D0500 		leaq	16+_ZTVSt15basic_streambufIcSt11char_traitsIcEE(%rip), %rax
 1453      000000
 1454 00e6 0F294424 		movaps	%xmm0, 32(%rsp)
 1454      20
 1455 00eb 48894424 		movq	%rax, 24(%rsp)
 1455      18
 1456 00f0 0F294424 		movaps	%xmm0, 48(%rsp)
 1456      30
 1457 00f5 0F294424 		movaps	%xmm0, 64(%rsp)
 1457      40
 1458 00fa E8000000 		call	_ZNSt6localeC1Ev@PLT
 1458      00
 1459 00ff 488D0500 		leaq	16+_ZTVNSt7__cxx1115basic_stringbufIcSt11char_traitsIcESaIcEEE(%rip), %rax
 1459      000000
 1460 0106 488D7308 		leaq	8(%rbx), %rsi
 1461 010a 48894424 		movq	%rax, 24(%rsp)
 1461      18
 1462 010f 488D4360 		leaq	96(%rbx), %rax
 1463 0113 C7442458 		movl	$16, 88(%rsp)
 1463      10000000 
 1464 011b 48C74424 		movq	$0, 104(%rsp)
 1464      68000000 
 1464      00
 1465 0124 C6442470 		movb	$0, 112(%rsp)
 1465      00
 1466 0129 48894424 		movq	%rax, 96(%rsp)
 1466      60
 1467 012e 488B4424 		movq	16(%rsp), %rax
 1467      10
 1468 0133 488B78E8 		movq	-24(%rax), %rdi
 1469 0137 4801DF   		addq	%rbx, %rdi
 1470              	.LEHB31:
 1471 013a E8000000 		call	_ZNSt9basic_iosIcSt11char_traitsIcEE4initEPSt15basic_streambufIcS1_E@PLT
 1471      00
 1472              	.LEHE31:
 1473 013f 4C8D3D00 		leaq	24+_ZTVN8UnitTest15MemoryOutStreamE(%rip), %r15
 1473      000000
 1474 0146 488D8380 		leaq	128(%rbx), %rax
 1474      000000
 1475 014d 488D3500 		leaq	.LC0(%rip), %rsi
 1475      000000
 1476 0154 BA090000 		movl	$9, %edx
 1476      00
 1477 0159 4889DF   		movq	%rbx, %rdi
 1478 015c 48C78424 		movq	$0, 136(%rsp)
 1478      88000000 
 1478      00000000 
 1479 0168 4D8D7728 		leaq	40(%r15), %r14
 1480 016c 4C897C24 		movq	%r15, 16(%rsp)
 1480      10
 1481 0171 48898424 		movq	%rax, 128(%rsp)
 1481      80000000 
 1482 0179 C6842490 		movb	$0, 144(%rsp)
 1482      00000000 
 1483 0181 4C89B424 		movq	%r14, 160(%rsp)
 1483      A0000000 
 1484              	.LEHB32:
 1485 0189 E8000000 		call	_ZSt16__ostream_insertIcSt11char_traitsIcEERSt13basic_ostreamIT_T0_ES6_PKS3_l@PLT
 1485      00
 1486 018e 418B3424 		movl	(%r12), %esi
 1487 0192 4889DF   		movq	%rbx, %rdi
 1488 0195 E8000000 		call	_ZNSolsEi@PLT
 1488      00
 1489 019a 488D3500 		leaq	.LC1(%rip), %rsi
 1489      000000
 1490 01a1 BA090000 		movl	$9, %edx
 1490      00
 1491 01a6 4889C7   		movq	%rax, %rdi
 1492 01a9 4989C4   		movq	%rax, %r12
 1493 01ac E8000000 		call	_ZSt16__ostream_insertIcSt11char_traitsIcEERSt13basic_ostreamIT_T0_ES6_PKS3_l@PLT
 1493      00
 1494 01b1 8B7500   		movl	0(%rbp), %esi
 1495 01b4 4C89E7   		movq	%r12, %rdi
 1496 01b7 E8000000 		call	_ZNSolsEi@PLT
 1496      00
 1497 01bc 4889DF   		movq	%rbx, %rdi
 1498 01bf E8000000 		call	_ZNK8UnitTest15MemoryOutStream7GetTextEv@PLT
 1498      00
 1499 01c4 488B7424 		movq	8(%rsp), %rsi
 1499      08
 1500 01c9 488B3C24 		movq	(%rsp), %rdi
 1501 01cd 4889C2   		movq	%rax, %rdx
 1502 01d0 E8000000 		call	_ZN8UnitTest11TestResults13OnTestFailureERKNS_11TestDetailsEPKc@PLT
 1502      00
 1503              	.LEHE32:
 1504 01d5 488BBC24 		movq	128(%rsp), %rdi
 1504      80000000 
 1505 01dd 488D8380 		leaq	128(%rbx), %rax
 1505      000000
 1506 01e4 4C897C24 		movq	%r15, 16(%rsp)
 1506      10
 1507 01e9 4C89B424 		movq	%r14, 160(%rsp)
 1507      A0000000 
 1508 01f1 4839C7   		cmpq	%rax, %rdi
 1509 01f4 7405     		je	.L99
 1510 01f6 E8000000 		call	_ZdlPv@PLT
 1510      00
 1511              	.L99:
 1512 01fb 488D0500 		leaq	64+_ZTCN8UnitTest15MemoryOutStreamE0_NSt7__cxx1119basic_ostringstreamIcSt11char_traitsIcESaIc
 1512      000000
 1513 0202 488B7C24 		movq	96(%rsp), %rdi
 1513      60
 1514 0207 F30F7E05 		movq	.LC2(%rip), %xmm0
 1514      00000000 
 1515 020f 48898424 		movq	%rax, 160(%rsp)
 1515      A0000000 
 1516 0217 488D4360 		leaq	96(%rbx), %rax
 1517 021b 0F160500 		movhps	.LC3(%rip), %xmm0
 1517      000000
 1518 0222 4839C7   		cmpq	%rax, %rdi
 1519 0225 0F294424 		movaps	%xmm0, 16(%rsp)
 1519      10
 1520 022a 7405     		je	.L100
 1521 022c E8000000 		call	_ZdlPv@PLT
 1521      00
 1522              	.L100:
 1523 0231 488D0500 		leaq	16+_ZTVSt15basic_streambufIcSt11char_traitsIcEE(%rip), %rax
 1523      000000
 1524 0238 488D7B40 		leaq	64(%rbx), %rdi
 1525 023c 48894424 		movq	%rax, 24(%rsp)
 1525      18
 1526 0241 E8000000 		call	_ZNSt6localeD1Ev@PLT
 1526      00
 1527 0246 488D0500 		leaq	16+_ZTVSt9basic_iosIcSt11char_traitsIcEE(%rip), %rax
 1527      000000
 1528 024d 488DBB90 		leaq	144(%rbx), %rdi
 1528      000000
 1529 0254 4C896C24 		movq	%r13, 16(%rsp)
 1529      10
 1530 0259 48898424 		movq	%rax, 160(%rsp)
 1530      A0000000 
 1531              	.LEHB33:
 1532 0261 E8000000 		call	_ZNSt8ios_baseD2Ev@PLT
 1532      00
 1533              	.LEHE33:
 1534              	.L93:
 1535 0266 488B8424 		movq	424(%rsp), %rax
 1535      A8010000 
 1536 026e 64483304 		xorq	%fs:40, %rax
 1536      25280000 
 1536      00
 1537 0277 7512     		jne	.L109
 1538 0279 4881C4B8 		addq	$440, %rsp
 1538      010000
 1539              		.cfi_remember_state
 1540              		.cfi_def_cfa_offset 56
 1541 0280 5B       		popq	%rbx
 1542              		.cfi_def_cfa_offset 48
 1543 0281 5D       		popq	%rbp
 1544              		.cfi_def_cfa_offset 40
 1545 0282 415C     		popq	%r12
 1546              		.cfi_def_cfa_offset 32
 1547 0284 415D     		popq	%r13
 1548              		.cfi_def_cfa_offset 24
 1549 0286 415E     		popq	%r14
 1550              		.cfi_def_cfa_offset 16
 1551 0288 415F     		popq	%r15
 1552              		.cfi_def_cfa_offset 8
 1553 028a C3       		ret
 1554              	.L109:
 1555              		.cfi_restore_state
 1556 028b E8000000 		call	__stack_chk_fail@PLT
 1556      00
 1557              	.L104:
 1558 0290 4889C5   		movq	%rax, %rbp
 1559              	.L97:
 1560 0293 488D0500 		leaq	16+_ZTVSt9basic_iosIcSt11char_traitsIcEE(%rip), %rax
 1560      000000
 1561 029a 488DBB90 		leaq	144(%rbx), %rdi
 1561      000000
 1562 02a1 48898424 		movq	%rax, 160(%rsp)
 1562      A0000000 
 1563 02a9 E8000000 		call	_ZNSt8ios_baseD2Ev@PLT
 1563      00
 1564 02ae 4889EF   		movq	%rbp, %rdi
 1565              	.LEHB34:
 1566 02b1 E8000000 		call	_Unwind_Resume@PLT
 1566      00
 1567              	.LEHE34:
 1568              	.L103:
 1569 02b6 4889C5   		movq	%rax, %rbp
 1570 02b9 4889DF   		movq	%rbx, %rdi
 1571 02bc E8000000 		call	_ZN8UnitTest15MemoryOutStreamD1Ev
 1571      00
 1572 02c1 4889EF   		movq	%rbp, %rdi
 1573              	.LEHB35:
 1574 02c4 E8000000 		call	_Unwind_Resume@PLT
 1574      00
 1575              	.LEHE35:
 1576              	.L105:
 1577 02c9 488D7B08 		leaq	8(%rbx), %rdi
 1578 02cd 4889C5   		movq	%rax, %rbp
 1579 02d0 E8000000 		call	_ZNSt7__cxx1115basic_stringbufIcSt11char_traitsIcESaIcEED1Ev
 1579      00
 1580 02d5 4C896C24 		movq	%r13, 16(%rsp)
 1580      10
 1581 02da EBB7     		jmp	.L97
 1582              		.cfi_endproc
 1583              	.LFE1322:
 1584              		.section	.gcc_except_table._ZN8UnitTest10CheckEqualI12BufferStatusS1_EEvRNS_11TestResultsERKT_RKT0
 1585              	.LLSDA1322:
 1586 0000 FF       		.byte	0xff
 1587 0001 FF       		.byte	0xff
 1588 0002 01       		.byte	0x1
 1589 0003 21       		.uleb128 .LLSDACSE1322-.LLSDACSB1322
 1590              	.LLSDACSB1322:
 1591 0004 BA01     		.uleb128 .LEHB30-.LFB1322
 1592 0006 05       		.uleb128 .LEHE30-.LEHB30
 1593 0007 9005     		.uleb128 .L104-.LFB1322
 1594 0009 00       		.uleb128 0
 1595 000a BA02     		.uleb128 .LEHB31-.LFB1322
 1596 000c 05       		.uleb128 .LEHE31-.LEHB31
 1597 000d C905     		.uleb128 .L105-.LFB1322
 1598 000f 00       		.uleb128 0
 1599 0010 8903     		.uleb128 .LEHB32-.LFB1322
 1600 0012 4C       		.uleb128 .LEHE32-.LEHB32
 1601 0013 B605     		.uleb128 .L103-.LFB1322
 1602 0015 00       		.uleb128 0
 1603 0016 E104     		.uleb128 .LEHB33-.LFB1322
 1604 0018 05       		.uleb128 .LEHE33-.LEHB33
 1605 0019 00       		.uleb128 0
 1606 001a 00       		.uleb128 0
 1607 001b B105     		.uleb128 .LEHB34-.LFB1322
 1608 001d 05       		.uleb128 .LEHE34-.LEHB34
 1609 001e 00       		.uleb128 0
 1610 001f 00       		.uleb128 0
 1611 0020 C405     		.uleb128 .LEHB35-.LFB1322
 1612 0022 05       		.uleb128 .LEHE35-.LEHB35
 1613 0023 00       		.uleb128 0
 1614 0024 00       		.uleb128 0
 1615              	.LLSDACSE1322:
 1616              		.section	.text._ZN8UnitTest10CheckEqualI12BufferStatusS1_EEvRNS_11TestResultsERKT_RKT0_RKNS_11Test
 1618              		.section	.rodata.str1.1,"aMS",@progbits,1
 1619              	.LC4:
 1620 0000 2E303430 		.string	".040BE10075820022F7\n"
 1620      42453130 
 1620      30373538 
 1620      32303032 
 1620      3246370A 
 1621              		.section	.rodata.str1.8,"aMS",@progbits,1
 1622              		.align 8
 1623              	.LC5:
 1624 0000 556E6861 		.string	"Unhandled exception in CHECK_EQUAL(BUF_SUCCESS, status)"
 1624      6E646C65 
 1624      64206578 
 1624      63657074 
 1624      696F6E20 
 1625              		.align 8
 1626              	.LC6:
 1627 0038 556E6861 		.string	"Unhandled exception in CHECK_EQUAL(HEX_JUNK_START_CODE, status)"
 1627      6E646C65 
 1627      64206578 
 1627      63657074 
 1627      696F6E20 
 1628              		.text
 1629              		.align 2
 1630              		.p2align 4,,15
 1631              		.globl	_ZNK27TestHexIO_testJunkStartCode7RunImplEv
 1633              	_ZNK27TestHexIO_testJunkStartCode7RunImplEv:
 1634              	.LFB1252:
 1635              		.cfi_startproc
 1636              		.cfi_personality 0x9b,DW.ref.__gxx_personality_v0
 1637              		.cfi_lsda 0x1b,.LLSDA1252
 1638 0000 4154     		pushq	%r12
 1639              		.cfi_def_cfa_offset 16
 1640              		.cfi_offset 12, -16
 1641 0002 55       		pushq	%rbp
 1642              		.cfi_def_cfa_offset 24
 1643              		.cfi_offset 6, -24
 1644 0003 31C9     		xorl	%ecx, %ecx
 1645 0005 53       		pushq	%rbx
 1646              		.cfi_def_cfa_offset 32
 1647              		.cfi_offset 3, -32
 1648 0006 31D2     		xorl	%edx, %edx
 1649 0008 BE000400 		movl	$1024, %esi
 1649      00
 1650 000d 4883EC60 		subq	$96, %rsp
 1651              		.cfi_def_cfa_offset 128
 1652 0011 488D6C24 		leaq	16(%rsp), %rbp
 1652      10
 1653 0016 C7442408 		movl	$0, 8(%rsp)
 1653      00000000 
 1654 001e 64488B04 		movq	%fs:40, %rax
 1654      25280000 
 1654      00
 1655 0027 48894424 		movq	%rax, 88(%rsp)
 1655      58
 1656 002c 31C0     		xorl	%eax, %eax
 1657 002e 4889EF   		movq	%rbp, %rdi
 1658              	.LEHB36:
 1659 0031 E8000000 		call	bufInitialise@PLT
 1659      00
 1660              	.LEHE36:
 1661 0036 89442404 		movl	%eax, 4(%rsp)
 1662              	.LEHB37:
 1663 003a E8000000 		call	_ZN8UnitTest11CurrentTest7DetailsEv@PLT
 1663      00
 1664 003f 488D5C24 		leaq	48(%rsp), %rbx
 1664      30
 1665 0044 488B30   		movq	(%rax), %rsi
 1666 0047 BA4C0000 		movl	$76, %edx
 1666      00
 1667 004c 4889DF   		movq	%rbx, %rdi
 1668 004f E8000000 		call	_ZN8UnitTest11TestDetailsC1ERKS0_i@PLT
 1668      00
 1669 0054 C744240C 		movl	$0, 12(%rsp)
 1669      00000000 
 1670 005c E8000000 		call	_ZN8UnitTest11CurrentTest7ResultsEv@PLT
 1670      00
 1671 0061 488B38   		movq	(%rax), %rdi
 1672 0064 488D5424 		leaq	4(%rsp), %rdx
 1672      04
 1673 0069 488D7424 		leaq	12(%rsp), %rsi
 1673      0C
 1674 006e 4889D9   		movq	%rbx, %rcx
 1675 0071 E8000000 		call	_ZN8UnitTest10CheckEqualI12BufferStatusS1_EEvRNS_11TestResultsERKT_RKT0_RKNS_11TestDetailsE
 1675      00
 1676              	.LEHE37:
 1677              	.L112:
 1678 0076 4883EC08 		subq	$8, %rsp
 1679              		.cfi_def_cfa_offset 136
 1680 007a 488D3D00 		leaq	.LC4(%rip), %rdi
 1680      000000
 1681 0081 4889EA   		movq	%rbp, %rdx
 1682 0084 6A00     		pushq	$0
 1683              		.cfi_def_cfa_offset 144
 1684 0086 31C9     		xorl	%ecx, %ecx
 1685 0088 31F6     		xorl	%esi, %esi
 1686 008a 4C8D4C24 		leaq	19(%rsp), %r9
 1686      13
 1687 008f 4C8D4424 		leaq	24(%rsp), %r8
 1687      18
 1688              	.LEHB38:
 1689 0094 E8000000 		call	bufProcessLine@PLT
 1689      00
 1690              	.LEHE38:
 1691 0099 89442414 		movl	%eax, 20(%rsp)
 1692 009d 58       		popq	%rax
 1693              		.cfi_def_cfa_offset 136
 1694 009e 5A       		popq	%rdx
 1695              		.cfi_def_cfa_offset 128
 1696              	.LEHB39:
 1697 009f E8000000 		call	_ZN8UnitTest11CurrentTest7DetailsEv@PLT
 1697      00
 1698 00a4 488B30   		movq	(%rax), %rsi
 1699 00a7 BA4E0000 		movl	$78, %edx
 1699      00
 1700 00ac 4889DF   		movq	%rbx, %rdi
 1701 00af E8000000 		call	_ZN8UnitTest11TestDetailsC1ERKS0_i@PLT
 1701      00
 1702 00b4 C744240C 		movl	$8, 12(%rsp)
 1702      08000000 
 1703 00bc E8000000 		call	_ZN8UnitTest11CurrentTest7ResultsEv@PLT
 1703      00
 1704 00c1 488B38   		movq	(%rax), %rdi
 1705 00c4 488D5424 		leaq	4(%rsp), %rdx
 1705      04
 1706 00c9 488D7424 		leaq	12(%rsp), %rsi
 1706      0C
 1707 00ce 4889D9   		movq	%rbx, %rcx
 1708 00d1 E8000000 		call	_ZN8UnitTest10CheckEqualI12BufferStatusS1_EEvRNS_11TestResultsERKT_RKT0_RKNS_11TestDetailsE
 1708      00
 1709              	.LEHE39:
 1710              	.L115:
 1711 00d6 4889EF   		movq	%rbp, %rdi
 1712              	.LEHB40:
 1713 00d9 E8000000 		call	bufDestroy@PLT
 1713      00
 1714              	.LEHE40:
 1715 00de 488B4424 		movq	88(%rsp), %rax
 1715      58
 1716 00e3 64483304 		xorq	%fs:40, %rax
 1716      25280000 
 1716      00
 1717 00ec 7509     		jne	.L124
 1718 00ee 4883C460 		addq	$96, %rsp
 1719              		.cfi_remember_state
 1720              		.cfi_def_cfa_offset 32
 1721 00f2 5B       		popq	%rbx
 1722              		.cfi_def_cfa_offset 24
 1723 00f3 5D       		popq	%rbp
 1724              		.cfi_def_cfa_offset 16
 1725 00f4 415C     		popq	%r12
 1726              		.cfi_def_cfa_offset 8
 1727 00f6 C3       		ret
 1728              	.L124:
 1729              		.cfi_restore_state
 1730 00f7 E8000000 		call	__stack_chk_fail@PLT
 1730      00
 1731              	.L120:
 1732 00fc 4889C7   		movq	%rax, %rdi
 1733 00ff E8000000 		call	__cxa_begin_catch@PLT
 1733      00
 1734              	.LEHB41:
 1735 0104 E8000000 		call	_ZN8UnitTest11CurrentTest7ResultsEv@PLT
 1735      00
 1736 0109 4C8B20   		movq	(%rax), %r12
 1737 010c E8000000 		call	_ZN8UnitTest11CurrentTest7DetailsEv@PLT
 1737      00
 1738 0111 488B30   		movq	(%rax), %rsi
 1739 0114 BA4E0000 		movl	$78, %edx
 1739      00
 1740 0119 4889DF   		movq	%rbx, %rdi
 1741 011c E8000000 		call	_ZN8UnitTest11TestDetailsC1ERKS0_i@PLT
 1741      00
 1742 0121 488D1500 		leaq	.LC6(%rip), %rdx
 1742      000000
 1743 0128 4889DE   		movq	%rbx, %rsi
 1744 012b 4C89E7   		movq	%r12, %rdi
 1745 012e E8000000 		call	_ZN8UnitTest11TestResults13OnTestFailureERKNS_11TestDetailsEPKc@PLT
 1745      00
 1746              	.LEHE41:
 1747              	.LEHB42:
 1748 0133 E8000000 		call	__cxa_end_catch@PLT
 1748      00
 1749              	.LEHE42:
 1750 0138 EB9C     		jmp	.L115
 1751              	.L118:
 1752 013a 4889C7   		movq	%rax, %rdi
 1753 013d E8000000 		call	__cxa_begin_catch@PLT
 1753      00
 1754              	.LEHB43:
 1755 0142 E8000000 		call	_ZN8UnitTest11CurrentTest7ResultsEv@PLT
 1755      00
 1756 0147 4C8B20   		movq	(%rax), %r12
 1757 014a E8000000 		call	_ZN8UnitTest11CurrentTest7DetailsEv@PLT
 1757      00
 1758 014f 488D5C24 		leaq	48(%rsp), %rbx
 1758      30
 1759 0154 488B30   		movq	(%rax), %rsi
 1760 0157 BA4C0000 		movl	$76, %edx
 1760      00
 1761 015c 4889DF   		movq	%rbx, %rdi
 1762 015f E8000000 		call	_ZN8UnitTest11TestDetailsC1ERKS0_i@PLT
 1762      00
 1763 0164 488D1500 		leaq	.LC5(%rip), %rdx
 1763      000000
 1764 016b 4889DE   		movq	%rbx, %rsi
 1765 016e 4C89E7   		movq	%r12, %rdi
 1766 0171 E8000000 		call	_ZN8UnitTest11TestResults13OnTestFailureERKNS_11TestDetailsEPKc@PLT
 1766      00
 1767              	.LEHE43:
 1768              	.LEHB44:
 1769 0176 E8000000 		call	__cxa_end_catch@PLT
 1769      00
 1770              	.LEHE44:
 1771 017b E9F6FEFF 		jmp	.L112
 1771      FF
 1772              	.L121:
 1773 0180 4889C3   		movq	%rax, %rbx
 1774 0183 E8000000 		call	__cxa_end_catch@PLT
 1774      00
 1775 0188 4889DF   		movq	%rbx, %rdi
 1776              	.LEHB45:
 1777 018b E8000000 		call	_Unwind_Resume@PLT
 1777      00
 1778              	.LEHE45:
 1779              	.L119:
 1780 0190 4889C3   		movq	%rax, %rbx
 1781 0193 E8000000 		call	__cxa_end_catch@PLT
 1781      00
 1782 0198 4889DF   		movq	%rbx, %rdi
 1783              	.LEHB46:
 1784 019b E8000000 		call	_Unwind_Resume@PLT
 1784      00
 1785              	.LEHE46:
 1786              		.cfi_endproc
 1787              	.LFE1252:
 1788              		.section	.gcc_except_table,"a",@progbits
 1789              		.align 4
 1790              	.LLSDA1252:
 1791 0000 FF       		.byte	0xff
 1792 0001 9B       		.byte	0x9b
 1793 0002 41       		.uleb128 .LLSDATT1252-.LLSDATTD1252
 1794              	.LLSDATTD1252:
 1795 0003 01       		.byte	0x1
 1796 0004 39       		.uleb128 .LLSDACSE1252-.LLSDACSB1252
 1797              	.LLSDACSB1252:
 1798 0005 31       		.uleb128 .LEHB36-.LFB1252
 1799 0006 05       		.uleb128 .LEHE36-.LEHB36
 1800 0007 00       		.uleb128 0
 1801 0008 00       		.uleb128 0
 1802 0009 3A       		.uleb128 .LEHB37-.LFB1252
 1803 000a 3C       		.uleb128 .LEHE37-.LEHB37
 1804 000b BA02     		.uleb128 .L118-.LFB1252
 1805 000d 01       		.uleb128 0x1
 1806 000e 9401     		.uleb128 .LEHB38-.LFB1252
 1807 0010 05       		.uleb128 .LEHE38-.LEHB38
 1808 0011 00       		.uleb128 0
 1809 0012 00       		.uleb128 0
 1810 0013 9F01     		.uleb128 .LEHB39-.LFB1252
 1811 0015 37       		.uleb128 .LEHE39-.LEHB39
 1812 0016 FC01     		.uleb128 .L120-.LFB1252
 1813 0018 01       		.uleb128 0x1
 1814 0019 D901     		.uleb128 .LEHB40-.LFB1252
 1815 001b 05       		.uleb128 .LEHE40-.LEHB40
 1816 001c 00       		.uleb128 0
 1817 001d 00       		.uleb128 0
 1818 001e 8402     		.uleb128 .LEHB41-.LFB1252
 1819 0020 2F       		.uleb128 .LEHE41-.LEHB41
 1820 0021 8003     		.uleb128 .L121-.LFB1252
 1821 0023 00       		.uleb128 0
 1822 0024 B302     		.uleb128 .LEHB42-.LFB1252
 1823 0026 05       		.uleb128 .LEHE42-.LEHB42
 1824 0027 00       		.uleb128 0
 1825 0028 00       		.uleb128 0
 1826 0029 C202     		.uleb128 .LEHB43-.LFB1252
 1827 002b 34       		.uleb128 .LEHE43-.LEHB43
 1828 002c 9003     		.uleb128 .L119-.LFB1252
 1829 002e 00       		.uleb128 0
 1830 002f F602     		.uleb128 .LEHB44-.LFB1252
 1831 0031 05       		.uleb128 .LEHE44-.LEHB44
 1832 0032 00       		.uleb128 0
 1833 0033 00       		.uleb128 0
 1834 0034 8B03     		.uleb128 .LEHB45-.LFB1252
 1835 0036 05       		.uleb128 .LEHE45-.LEHB45
 1836 0037 00       		.uleb128 0
 1837 0038 00       		.uleb128 0
 1838 0039 9B03     		.uleb128 .LEHB46-.LFB1252
 1839 003b 05       		.uleb128 .LEHE46-.LEHB46
 1840 003c 00       		.uleb128 0
 1841 003d 00       		.uleb128 0
 1842              	.LLSDACSE1252:
 1843 003e 01       		.byte	0x1
 1844 003f 00       		.byte	0
 1845              		.align 4
 1846 0040 00000000 		.long	0
 1847              	
 1848              	.LLSDATT1252:
 1849              		.text
 1851              		.section	.rodata.str1.1
 1852              	.LC7:
 1853 0015 3A2E2E30 		.string	":..0BE10075820022F7\n"
 1853      42453130 
 1853      30373538 
 1853      32303032 
 1853      3246370A 
 1854              		.section	.rodata.str1.8
 1855              		.align 8
 1856              	.LC8:
 1857 0078 556E6861 		.string	"Unhandled exception in CHECK_EQUAL(HEX_JUNK_BYTE_COUNT, status)"
 1857      6E646C65 
 1857      64206578 
 1857      63657074 
 1857      696F6E20 
 1858              		.text
 1859              		.align 2
 1860              		.p2align 4,,15
 1861              		.globl	_ZNK27TestHexIO_testJunkByteCount7RunImplEv
 1863              	_ZNK27TestHexIO_testJunkByteCount7RunImplEv:
 1864              	.LFB1256:
 1865              		.cfi_startproc
 1866              		.cfi_personality 0x9b,DW.ref.__gxx_personality_v0
 1867              		.cfi_lsda 0x1b,.LLSDA1256
 1868 01a0 4154     		pushq	%r12
 1869              		.cfi_def_cfa_offset 16
 1870              		.cfi_offset 12, -16
 1871 01a2 55       		pushq	%rbp
 1872              		.cfi_def_cfa_offset 24
 1873              		.cfi_offset 6, -24
 1874 01a3 31C9     		xorl	%ecx, %ecx
 1875 01a5 53       		pushq	%rbx
 1876              		.cfi_def_cfa_offset 32
 1877              		.cfi_offset 3, -32
 1878 01a6 31D2     		xorl	%edx, %edx
 1879 01a8 BE000400 		movl	$1024, %esi
 1879      00
 1880 01ad 4883EC60 		subq	$96, %rsp
 1881              		.cfi_def_cfa_offset 128
 1882 01b1 488D6C24 		leaq	16(%rsp), %rbp
 1882      10
 1883 01b6 C7442408 		movl	$0, 8(%rsp)
 1883      00000000 
 1884 01be 64488B04 		movq	%fs:40, %rax
 1884      25280000 
 1884      00
 1885 01c7 48894424 		movq	%rax, 88(%rsp)
 1885      58
 1886 01cc 31C0     		xorl	%eax, %eax
 1887 01ce 4889EF   		movq	%rbp, %rdi
 1888              	.LEHB47:
 1889 01d1 E8000000 		call	bufInitialise@PLT
 1889      00
 1890              	.LEHE47:
 1891 01d6 89442404 		movl	%eax, 4(%rsp)
 1892              	.LEHB48:
 1893 01da E8000000 		call	_ZN8UnitTest11CurrentTest7DetailsEv@PLT
 1893      00
 1894 01df 488D5C24 		leaq	48(%rsp), %rbx
 1894      30
 1895 01e4 488B30   		movq	(%rax), %rsi
 1896 01e7 BA590000 		movl	$89, %edx
 1896      00
 1897 01ec 4889DF   		movq	%rbx, %rdi
 1898 01ef E8000000 		call	_ZN8UnitTest11TestDetailsC1ERKS0_i@PLT
 1898      00
 1899 01f4 C744240C 		movl	$0, 12(%rsp)
 1899      00000000 
 1900 01fc E8000000 		call	_ZN8UnitTest11CurrentTest7ResultsEv@PLT
 1900      00
 1901 0201 488B38   		movq	(%rax), %rdi
 1902 0204 488D5424 		leaq	4(%rsp), %rdx
 1902      04
 1903 0209 488D7424 		leaq	12(%rsp), %rsi
 1903      0C
 1904 020e 4889D9   		movq	%rbx, %rcx
 1905 0211 E8000000 		call	_ZN8UnitTest10CheckEqualI12BufferStatusS1_EEvRNS_11TestResultsERKT_RKT0_RKNS_11TestDetailsE
 1905      00
 1906              	.LEHE48:
 1907              	.L127:
 1908 0216 4883EC08 		subq	$8, %rsp
 1909              		.cfi_def_cfa_offset 136
 1910 021a 488D3D00 		leaq	.LC7(%rip), %rdi
 1910      000000
 1911 0221 4889EA   		movq	%rbp, %rdx
 1912 0224 6A00     		pushq	$0
 1913              		.cfi_def_cfa_offset 144
 1914 0226 31C9     		xorl	%ecx, %ecx
 1915 0228 31F6     		xorl	%esi, %esi
 1916 022a 4C8D4C24 		leaq	19(%rsp), %r9
 1916      13
 1917 022f 4C8D4424 		leaq	24(%rsp), %r8
 1917      18
 1918              	.LEHB49:
 1919 0234 E8000000 		call	bufProcessLine@PLT
 1919      00
 1920              	.LEHE49:
 1921 0239 89442414 		movl	%eax, 20(%rsp)
 1922 023d 58       		popq	%rax
 1923              		.cfi_def_cfa_offset 136
 1924 023e 5A       		popq	%rdx
 1925              		.cfi_def_cfa_offset 128
 1926              	.LEHB50:
 1927 023f E8000000 		call	_ZN8UnitTest11CurrentTest7DetailsEv@PLT
 1927      00
 1928 0244 488B30   		movq	(%rax), %rsi
 1929 0247 BA5B0000 		movl	$91, %edx
 1929      00
 1930 024c 4889DF   		movq	%rbx, %rdi
 1931 024f E8000000 		call	_ZN8UnitTest11TestDetailsC1ERKS0_i@PLT
 1931      00
 1932 0254 C744240C 		movl	$9, 12(%rsp)
 1932      09000000 
 1933 025c E8000000 		call	_ZN8UnitTest11CurrentTest7ResultsEv@PLT
 1933      00
 1934 0261 488B38   		movq	(%rax), %rdi
 1935 0264 488D5424 		leaq	4(%rsp), %rdx
 1935      04
 1936 0269 488D7424 		leaq	12(%rsp), %rsi
 1936      0C
 1937 026e 4889D9   		movq	%rbx, %rcx
 1938 0271 E8000000 		call	_ZN8UnitTest10CheckEqualI12BufferStatusS1_EEvRNS_11TestResultsERKT_RKT0_RKNS_11TestDetailsE
 1938      00
 1939              	.LEHE50:
 1940              	.L130:
 1941 0276 4889EF   		movq	%rbp, %rdi
 1942              	.LEHB51:
 1943 0279 E8000000 		call	bufDestroy@PLT
 1943      00
 1944              	.LEHE51:
 1945 027e 488B4424 		movq	88(%rsp), %rax
 1945      58
 1946 0283 64483304 		xorq	%fs:40, %rax
 1946      25280000 
 1946      00
 1947 028c 7509     		jne	.L139
 1948 028e 4883C460 		addq	$96, %rsp
 1949              		.cfi_remember_state
 1950              		.cfi_def_cfa_offset 32
 1951 0292 5B       		popq	%rbx
 1952              		.cfi_def_cfa_offset 24
 1953 0293 5D       		popq	%rbp
 1954              		.cfi_def_cfa_offset 16
 1955 0294 415C     		popq	%r12
 1956              		.cfi_def_cfa_offset 8
 1957 0296 C3       		ret
 1958              	.L139:
 1959              		.cfi_restore_state
 1960 0297 E8000000 		call	__stack_chk_fail@PLT
 1960      00
 1961              	.L135:
 1962 029c 4889C7   		movq	%rax, %rdi
 1963 029f E8000000 		call	__cxa_begin_catch@PLT
 1963      00
 1964              	.LEHB52:
 1965 02a4 E8000000 		call	_ZN8UnitTest11CurrentTest7ResultsEv@PLT
 1965      00
 1966 02a9 4C8B20   		movq	(%rax), %r12
 1967 02ac E8000000 		call	_ZN8UnitTest11CurrentTest7DetailsEv@PLT
 1967      00
 1968 02b1 488B30   		movq	(%rax), %rsi
 1969 02b4 BA5B0000 		movl	$91, %edx
 1969      00
 1970 02b9 4889DF   		movq	%rbx, %rdi
 1971 02bc E8000000 		call	_ZN8UnitTest11TestDetailsC1ERKS0_i@PLT
 1971      00
 1972 02c1 488D1500 		leaq	.LC8(%rip), %rdx
 1972      000000
 1973 02c8 4889DE   		movq	%rbx, %rsi
 1974 02cb 4C89E7   		movq	%r12, %rdi
 1975 02ce E8000000 		call	_ZN8UnitTest11TestResults13OnTestFailureERKNS_11TestDetailsEPKc@PLT
 1975      00
 1976              	.LEHE52:
 1977              	.LEHB53:
 1978 02d3 E8000000 		call	__cxa_end_catch@PLT
 1978      00
 1979              	.LEHE53:
 1980 02d8 EB9C     		jmp	.L130
 1981              	.L133:
 1982 02da 4889C7   		movq	%rax, %rdi
 1983 02dd E8000000 		call	__cxa_begin_catch@PLT
 1983      00
 1984              	.LEHB54:
 1985 02e2 E8000000 		call	_ZN8UnitTest11CurrentTest7ResultsEv@PLT
 1985      00
 1986 02e7 4C8B20   		movq	(%rax), %r12
 1987 02ea E8000000 		call	_ZN8UnitTest11CurrentTest7DetailsEv@PLT
 1987      00
 1988 02ef 488D5C24 		leaq	48(%rsp), %rbx
 1988      30
 1989 02f4 488B30   		movq	(%rax), %rsi
 1990 02f7 BA590000 		movl	$89, %edx
 1990      00
 1991 02fc 4889DF   		movq	%rbx, %rdi
 1992 02ff E8000000 		call	_ZN8UnitTest11TestDetailsC1ERKS0_i@PLT
 1992      00
 1993 0304 488D1500 		leaq	.LC5(%rip), %rdx
 1993      000000
 1994 030b 4889DE   		movq	%rbx, %rsi
 1995 030e 4C89E7   		movq	%r12, %rdi
 1996 0311 E8000000 		call	_ZN8UnitTest11TestResults13OnTestFailureERKNS_11TestDetailsEPKc@PLT
 1996      00
 1997              	.LEHE54:
 1998              	.LEHB55:
 1999 0316 E8000000 		call	__cxa_end_catch@PLT
 1999      00
 2000              	.LEHE55:
 2001 031b E9F6FEFF 		jmp	.L127
 2001      FF
 2002              	.L136:
 2003 0320 4889C3   		movq	%rax, %rbx
 2004 0323 E8000000 		call	__cxa_end_catch@PLT
 2004      00
 2005 0328 4889DF   		movq	%rbx, %rdi
 2006              	.LEHB56:
 2007 032b E8000000 		call	_Unwind_Resume@PLT
 2007      00
 2008              	.LEHE56:
 2009              	.L134:
 2010 0330 4889C3   		movq	%rax, %rbx
 2011 0333 E8000000 		call	__cxa_end_catch@PLT
 2011      00
 2012 0338 4889DF   		movq	%rbx, %rdi
 2013              	.LEHB57:
 2014 033b E8000000 		call	_Unwind_Resume@PLT
 2014      00
 2015              	.LEHE57:
 2016              		.cfi_endproc
 2017              	.LFE1256:
 2018              		.section	.gcc_except_table
 2019              		.align 4
 2020              	.LLSDA1256:
 2021 0044 FF       		.byte	0xff
 2022 0045 9B       		.byte	0x9b
 2023 0046 41       		.uleb128 .LLSDATT1256-.LLSDATTD1256
 2024              	.LLSDATTD1256:
 2025 0047 01       		.byte	0x1
 2026 0048 39       		.uleb128 .LLSDACSE1256-.LLSDACSB1256
 2027              	.LLSDACSB1256:
 2028 0049 31       		.uleb128 .LEHB47-.LFB1256
 2029 004a 05       		.uleb128 .LEHE47-.LEHB47
 2030 004b 00       		.uleb128 0
 2031 004c 00       		.uleb128 0
 2032 004d 3A       		.uleb128 .LEHB48-.LFB1256
 2033 004e 3C       		.uleb128 .LEHE48-.LEHB48
 2034 004f BA02     		.uleb128 .L133-.LFB1256
 2035 0051 01       		.uleb128 0x1
 2036 0052 9401     		.uleb128 .LEHB49-.LFB1256
 2037 0054 05       		.uleb128 .LEHE49-.LEHB49
 2038 0055 00       		.uleb128 0
 2039 0056 00       		.uleb128 0
 2040 0057 9F01     		.uleb128 .LEHB50-.LFB1256
 2041 0059 37       		.uleb128 .LEHE50-.LEHB50
 2042 005a FC01     		.uleb128 .L135-.LFB1256
 2043 005c 01       		.uleb128 0x1
 2044 005d D901     		.uleb128 .LEHB51-.LFB1256
 2045 005f 05       		.uleb128 .LEHE51-.LEHB51
 2046 0060 00       		.uleb128 0
 2047 0061 00       		.uleb128 0
 2048 0062 8402     		.uleb128 .LEHB52-.LFB1256
 2049 0064 2F       		.uleb128 .LEHE52-.LEHB52
 2050 0065 8003     		.uleb128 .L136-.LFB1256
 2051 0067 00       		.uleb128 0
 2052 0068 B302     		.uleb128 .LEHB53-.LFB1256
 2053 006a 05       		.uleb128 .LEHE53-.LEHB53
 2054 006b 00       		.uleb128 0
 2055 006c 00       		.uleb128 0
 2056 006d C202     		.uleb128 .LEHB54-.LFB1256
 2057 006f 34       		.uleb128 .LEHE54-.LEHB54
 2058 0070 9003     		.uleb128 .L134-.LFB1256
 2059 0072 00       		.uleb128 0
 2060 0073 F602     		.uleb128 .LEHB55-.LFB1256
 2061 0075 05       		.uleb128 .LEHE55-.LEHB55
 2062 0076 00       		.uleb128 0
 2063 0077 00       		.uleb128 0
 2064 0078 8B03     		.uleb128 .LEHB56-.LFB1256
 2065 007a 05       		.uleb128 .LEHE56-.LEHB56
 2066 007b 00       		.uleb128 0
 2067 007c 00       		.uleb128 0
 2068 007d 9B03     		.uleb128 .LEHB57-.LFB1256
 2069 007f 05       		.uleb128 .LEHE57-.LEHB57
 2070 0080 00       		.uleb128 0
 2071 0081 00       		.uleb128 0
 2072              	.LLSDACSE1256:
 2073 0082 01       		.byte	0x1
 2074 0083 00       		.byte	0
 2075              		.align 4
 2076 0084 00000000 		.long	0
 2077              	
 2078              	.LLSDATT1256:
 2079              		.text
 2081              		.section	.rodata.str1.1
 2082              	.LC9:
 2083 002a 3A30342E 		.string	":04..E10075820022F7\n"
 2083      2E453130 
 2083      30373538 
 2083      32303032 
 2083      3246370A 
 2084              		.section	.rodata.str1.8
 2085              		.align 8
 2086              	.LC10:
 2087 00b8 556E6861 		.string	"Unhandled exception in CHECK_EQUAL(HEX_JUNK_ADDR_MSB, status)"
 2087      6E646C65 
 2087      64206578 
 2087      63657074 
 2087      696F6E20 
 2088              		.text
 2089              		.align 2
 2090              		.p2align 4,,15
 2091              		.globl	_ZNK25TestHexIO_testJunkAddrMsb7RunImplEv
 2093              	_ZNK25TestHexIO_testJunkAddrMsb7RunImplEv:
 2094              	.LFB1260:
 2095              		.cfi_startproc
 2096              		.cfi_personality 0x9b,DW.ref.__gxx_personality_v0
 2097              		.cfi_lsda 0x1b,.LLSDA1260
 2098 0340 4154     		pushq	%r12
 2099              		.cfi_def_cfa_offset 16
 2100              		.cfi_offset 12, -16
 2101 0342 55       		pushq	%rbp
 2102              		.cfi_def_cfa_offset 24
 2103              		.cfi_offset 6, -24
 2104 0343 31C9     		xorl	%ecx, %ecx
 2105 0345 53       		pushq	%rbx
 2106              		.cfi_def_cfa_offset 32
 2107              		.cfi_offset 3, -32
 2108 0346 31D2     		xorl	%edx, %edx
 2109 0348 BE000400 		movl	$1024, %esi
 2109      00
 2110 034d 4883EC60 		subq	$96, %rsp
 2111              		.cfi_def_cfa_offset 128
 2112 0351 488D6C24 		leaq	16(%rsp), %rbp
 2112      10
 2113 0356 C7442408 		movl	$0, 8(%rsp)
 2113      00000000 
 2114 035e 64488B04 		movq	%fs:40, %rax
 2114      25280000 
 2114      00
 2115 0367 48894424 		movq	%rax, 88(%rsp)
 2115      58
 2116 036c 31C0     		xorl	%eax, %eax
 2117 036e 4889EF   		movq	%rbp, %rdi
 2118              	.LEHB58:
 2119 0371 E8000000 		call	bufInitialise@PLT
 2119      00
 2120              	.LEHE58:
 2121 0376 89442404 		movl	%eax, 4(%rsp)
 2122              	.LEHB59:
 2123 037a E8000000 		call	_ZN8UnitTest11CurrentTest7DetailsEv@PLT
 2123      00
 2124 037f 488D5C24 		leaq	48(%rsp), %rbx
 2124      30
 2125 0384 488B30   		movq	(%rax), %rsi
 2126 0387 BA660000 		movl	$102, %edx
 2126      00
 2127 038c 4889DF   		movq	%rbx, %rdi
 2128 038f E8000000 		call	_ZN8UnitTest11TestDetailsC1ERKS0_i@PLT
 2128      00
 2129 0394 C744240C 		movl	$0, 12(%rsp)
 2129      00000000 
 2130 039c E8000000 		call	_ZN8UnitTest11CurrentTest7ResultsEv@PLT
 2130      00
 2131 03a1 488B38   		movq	(%rax), %rdi
 2132 03a4 488D5424 		leaq	4(%rsp), %rdx
 2132      04
 2133 03a9 488D7424 		leaq	12(%rsp), %rsi
 2133      0C
 2134 03ae 4889D9   		movq	%rbx, %rcx
 2135 03b1 E8000000 		call	_ZN8UnitTest10CheckEqualI12BufferStatusS1_EEvRNS_11TestResultsERKT_RKT0_RKNS_11TestDetailsE
 2135      00
 2136              	.LEHE59:
 2137              	.L142:
 2138 03b6 4883EC08 		subq	$8, %rsp
 2139              		.cfi_def_cfa_offset 136
 2140 03ba 488D3D00 		leaq	.LC9(%rip), %rdi
 2140      000000
 2141 03c1 4889EA   		movq	%rbp, %rdx
 2142 03c4 6A00     		pushq	$0
 2143              		.cfi_def_cfa_offset 144
 2144 03c6 31C9     		xorl	%ecx, %ecx
 2145 03c8 31F6     		xorl	%esi, %esi
 2146 03ca 4C8D4C24 		leaq	19(%rsp), %r9
 2146      13
 2147 03cf 4C8D4424 		leaq	24(%rsp), %r8
 2147      18
 2148              	.LEHB60:
 2149 03d4 E8000000 		call	bufProcessLine@PLT
 2149      00
 2150              	.LEHE60:
 2151 03d9 89442414 		movl	%eax, 20(%rsp)
 2152 03dd 58       		popq	%rax
 2153              		.cfi_def_cfa_offset 136
 2154 03de 5A       		popq	%rdx
 2155              		.cfi_def_cfa_offset 128
 2156              	.LEHB61:
 2157 03df E8000000 		call	_ZN8UnitTest11CurrentTest7DetailsEv@PLT
 2157      00
 2158 03e4 488B30   		movq	(%rax), %rsi
 2159 03e7 BA680000 		movl	$104, %edx
 2159      00
 2160 03ec 4889DF   		movq	%rbx, %rdi
 2161 03ef E8000000 		call	_ZN8UnitTest11TestDetailsC1ERKS0_i@PLT
 2161      00
 2162 03f4 C744240C 		movl	$10, 12(%rsp)
 2162      0A000000 
 2163 03fc E8000000 		call	_ZN8UnitTest11CurrentTest7ResultsEv@PLT
 2163      00
 2164 0401 488B38   		movq	(%rax), %rdi
 2165 0404 488D5424 		leaq	4(%rsp), %rdx
 2165      04
 2166 0409 488D7424 		leaq	12(%rsp), %rsi
 2166      0C
 2167 040e 4889D9   		movq	%rbx, %rcx
 2168 0411 E8000000 		call	_ZN8UnitTest10CheckEqualI12BufferStatusS1_EEvRNS_11TestResultsERKT_RKT0_RKNS_11TestDetailsE
 2168      00
 2169              	.LEHE61:
 2170              	.L145:
 2171 0416 4889EF   		movq	%rbp, %rdi
 2172              	.LEHB62:
 2173 0419 E8000000 		call	bufDestroy@PLT
 2173      00
 2174              	.LEHE62:
 2175 041e 488B4424 		movq	88(%rsp), %rax
 2175      58
 2176 0423 64483304 		xorq	%fs:40, %rax
 2176      25280000 
 2176      00
 2177 042c 7509     		jne	.L154
 2178 042e 4883C460 		addq	$96, %rsp
 2179              		.cfi_remember_state
 2180              		.cfi_def_cfa_offset 32
 2181 0432 5B       		popq	%rbx
 2182              		.cfi_def_cfa_offset 24
 2183 0433 5D       		popq	%rbp
 2184              		.cfi_def_cfa_offset 16
 2185 0434 415C     		popq	%r12
 2186              		.cfi_def_cfa_offset 8
 2187 0436 C3       		ret
 2188              	.L154:
 2189              		.cfi_restore_state
 2190 0437 E8000000 		call	__stack_chk_fail@PLT
 2190      00
 2191              	.L150:
 2192 043c 4889C7   		movq	%rax, %rdi
 2193 043f E8000000 		call	__cxa_begin_catch@PLT
 2193      00
 2194              	.LEHB63:
 2195 0444 E8000000 		call	_ZN8UnitTest11CurrentTest7ResultsEv@PLT
 2195      00
 2196 0449 4C8B20   		movq	(%rax), %r12
 2197 044c E8000000 		call	_ZN8UnitTest11CurrentTest7DetailsEv@PLT
 2197      00
 2198 0451 488B30   		movq	(%rax), %rsi
 2199 0454 BA680000 		movl	$104, %edx
 2199      00
 2200 0459 4889DF   		movq	%rbx, %rdi
 2201 045c E8000000 		call	_ZN8UnitTest11TestDetailsC1ERKS0_i@PLT
 2201      00
 2202 0461 488D1500 		leaq	.LC10(%rip), %rdx
 2202      000000
 2203 0468 4889DE   		movq	%rbx, %rsi
 2204 046b 4C89E7   		movq	%r12, %rdi
 2205 046e E8000000 		call	_ZN8UnitTest11TestResults13OnTestFailureERKNS_11TestDetailsEPKc@PLT
 2205      00
 2206              	.LEHE63:
 2207              	.LEHB64:
 2208 0473 E8000000 		call	__cxa_end_catch@PLT
 2208      00
 2209              	.LEHE64:
 2210 0478 EB9C     		jmp	.L145
 2211              	.L148:
 2212 047a 4889C7   		movq	%rax, %rdi
 2213 047d E8000000 		call	__cxa_begin_catch@PLT
 2213      00
 2214              	.LEHB65:
 2215 0482 E8000000 		call	_ZN8UnitTest11CurrentTest7ResultsEv@PLT
 2215      00
 2216 0487 4C8B20   		movq	(%rax), %r12
 2217 048a E8000000 		call	_ZN8UnitTest11CurrentTest7DetailsEv@PLT
 2217      00
 2218 048f 488D5C24 		leaq	48(%rsp), %rbx
 2218      30
 2219 0494 488B30   		movq	(%rax), %rsi
 2220 0497 BA660000 		movl	$102, %edx
 2220      00
 2221 049c 4889DF   		movq	%rbx, %rdi
 2222 049f E8000000 		call	_ZN8UnitTest11TestDetailsC1ERKS0_i@PLT
 2222      00
 2223 04a4 488D1500 		leaq	.LC5(%rip), %rdx
 2223      000000
 2224 04ab 4889DE   		movq	%rbx, %rsi
 2225 04ae 4C89E7   		movq	%r12, %rdi
 2226 04b1 E8000000 		call	_ZN8UnitTest11TestResults13OnTestFailureERKNS_11TestDetailsEPKc@PLT
 2226      00
 2227              	.LEHE65:
 2228              	.LEHB66:
 2229 04b6 E8000000 		call	__cxa_end_catch@PLT
 2229      00
 2230              	.LEHE66:
 2231 04bb E9F6FEFF 		jmp	.L142
 2231      FF
 2232              	.L151:
 2233 04c0 4889C3   		movq	%rax, %rbx
 2234 04c3 E8000000 		call	__cxa_end_catch@PLT
 2234      00
 2235 04c8 4889DF   		movq	%rbx, %rdi
 2236              	.LEHB67:
 2237 04cb E8000000 		call	_Unwind_Resume@PLT
 2237      00
 2238              	.LEHE67:
 2239              	.L149:
 2240 04d0 4889C3   		movq	%rax, %rbx
 2241 04d3 E8000000 		call	__cxa_end_catch@PLT
 2241      00
 2242 04d8 4889DF   		movq	%rbx, %rdi
 2243              	.LEHB68:
 2244 04db E8000000 		call	_Unwind_Resume@PLT
 2244      00
 2245              	.LEHE68:
 2246              		.cfi_endproc
 2247              	.LFE1260:
 2248              		.section	.gcc_except_table
 2249              		.align 4
 2250              	.LLSDA1260:
 2251 0088 FF       		.byte	0xff
 2252 0089 9B       		.byte	0x9b
 2253 008a 41       		.uleb128 .LLSDATT1260-.LLSDATTD1260
 2254              	.LLSDATTD1260:
 2255 008b 01       		.byte	0x1
 2256 008c 39       		.uleb128 .LLSDACSE1260-.LLSDACSB1260
 2257              	.LLSDACSB1260:
 2258 008d 31       		.uleb128 .LEHB58-.LFB1260
 2259 008e 05       		.uleb128 .LEHE58-.LEHB58
 2260 008f 00       		.uleb128 0
 2261 0090 00       		.uleb128 0
 2262 0091 3A       		.uleb128 .LEHB59-.LFB1260
 2263 0092 3C       		.uleb128 .LEHE59-.LEHB59
 2264 0093 BA02     		.uleb128 .L148-.LFB1260
 2265 0095 01       		.uleb128 0x1
 2266 0096 9401     		.uleb128 .LEHB60-.LFB1260
 2267 0098 05       		.uleb128 .LEHE60-.LEHB60
 2268 0099 00       		.uleb128 0
 2269 009a 00       		.uleb128 0
 2270 009b 9F01     		.uleb128 .LEHB61-.LFB1260
 2271 009d 37       		.uleb128 .LEHE61-.LEHB61
 2272 009e FC01     		.uleb128 .L150-.LFB1260
 2273 00a0 01       		.uleb128 0x1
 2274 00a1 D901     		.uleb128 .LEHB62-.LFB1260
 2275 00a3 05       		.uleb128 .LEHE62-.LEHB62
 2276 00a4 00       		.uleb128 0
 2277 00a5 00       		.uleb128 0
 2278 00a6 8402     		.uleb128 .LEHB63-.LFB1260
 2279 00a8 2F       		.uleb128 .LEHE63-.LEHB63
 2280 00a9 8003     		.uleb128 .L151-.LFB1260
 2281 00ab 00       		.uleb128 0
 2282 00ac B302     		.uleb128 .LEHB64-.LFB1260
 2283 00ae 05       		.uleb128 .LEHE64-.LEHB64
 2284 00af 00       		.uleb128 0
 2285 00b0 00       		.uleb128 0
 2286 00b1 C202     		.uleb128 .LEHB65-.LFB1260
 2287 00b3 34       		.uleb128 .LEHE65-.LEHB65
 2288 00b4 9003     		.uleb128 .L149-.LFB1260
 2289 00b6 00       		.uleb128 0
 2290 00b7 F602     		.uleb128 .LEHB66-.LFB1260
 2291 00b9 05       		.uleb128 .LEHE66-.LEHB66
 2292 00ba 00       		.uleb128 0
 2293 00bb 00       		.uleb128 0
 2294 00bc 8B03     		.uleb128 .LEHB67-.LFB1260
 2295 00be 05       		.uleb128 .LEHE67-.LEHB67
 2296 00bf 00       		.uleb128 0
 2297 00c0 00       		.uleb128 0
 2298 00c1 9B03     		.uleb128 .LEHB68-.LFB1260
 2299 00c3 05       		.uleb128 .LEHE68-.LEHB68
 2300 00c4 00       		.uleb128 0
 2301 00c5 00       		.uleb128 0
 2302              	.LLSDACSE1260:
 2303 00c6 01       		.byte	0x1
 2304 00c7 00       		.byte	0
 2305              		.align 4
 2306 00c8 00000000 		.long	0
 2307              	
 2308              	.LLSDATT1260:
 2309              		.text
 2311              		.section	.rodata.str1.1
 2312              	.LC11:
 2313 003f 3A303430 		.string	":040B..0075820022F7\n"
 2313      422E2E30 
 2313      30373538 
 2313      32303032 
 2313      3246370A 
 2314              		.section	.rodata.str1.8
 2315 00f6 0000     		.align 8
 2316              	.LC12:
 2317 00f8 556E6861 		.string	"Unhandled exception in CHECK_EQUAL(HEX_JUNK_ADDR_LSB, status)"
 2317      6E646C65 
 2317      64206578 
 2317      63657074 
 2317      696F6E20 
 2318              		.text
 2319              		.align 2
 2320              		.p2align 4,,15
 2321              		.globl	_ZNK25TestHexIO_testJunkAddrLsb7RunImplEv
 2323              	_ZNK25TestHexIO_testJunkAddrLsb7RunImplEv:
 2324              	.LFB1264:
 2325              		.cfi_startproc
 2326              		.cfi_personality 0x9b,DW.ref.__gxx_personality_v0
 2327              		.cfi_lsda 0x1b,.LLSDA1264
 2328 04e0 4154     		pushq	%r12
 2329              		.cfi_def_cfa_offset 16
 2330              		.cfi_offset 12, -16
 2331 04e2 55       		pushq	%rbp
 2332              		.cfi_def_cfa_offset 24
 2333              		.cfi_offset 6, -24
 2334 04e3 31C9     		xorl	%ecx, %ecx
 2335 04e5 53       		pushq	%rbx
 2336              		.cfi_def_cfa_offset 32
 2337              		.cfi_offset 3, -32
 2338 04e6 31D2     		xorl	%edx, %edx
 2339 04e8 BE000400 		movl	$1024, %esi
 2339      00
 2340 04ed 4883EC60 		subq	$96, %rsp
 2341              		.cfi_def_cfa_offset 128
 2342 04f1 488D6C24 		leaq	16(%rsp), %rbp
 2342      10
 2343 04f6 C7442408 		movl	$0, 8(%rsp)
 2343      00000000 
 2344 04fe 64488B04 		movq	%fs:40, %rax
 2344      25280000 
 2344      00
 2345 0507 48894424 		movq	%rax, 88(%rsp)
 2345      58
 2346 050c 31C0     		xorl	%eax, %eax
 2347 050e 4889EF   		movq	%rbp, %rdi
 2348              	.LEHB69:
 2349 0511 E8000000 		call	bufInitialise@PLT
 2349      00
 2350              	.LEHE69:
 2351 0516 89442404 		movl	%eax, 4(%rsp)
 2352              	.LEHB70:
 2353 051a E8000000 		call	_ZN8UnitTest11CurrentTest7DetailsEv@PLT
 2353      00
 2354 051f 488D5C24 		leaq	48(%rsp), %rbx
 2354      30
 2355 0524 488B30   		movq	(%rax), %rsi
 2356 0527 BA730000 		movl	$115, %edx
 2356      00
 2357 052c 4889DF   		movq	%rbx, %rdi
 2358 052f E8000000 		call	_ZN8UnitTest11TestDetailsC1ERKS0_i@PLT
 2358      00
 2359 0534 C744240C 		movl	$0, 12(%rsp)
 2359      00000000 
 2360 053c E8000000 		call	_ZN8UnitTest11CurrentTest7ResultsEv@PLT
 2360      00
 2361 0541 488B38   		movq	(%rax), %rdi
 2362 0544 488D5424 		leaq	4(%rsp), %rdx
 2362      04
 2363 0549 488D7424 		leaq	12(%rsp), %rsi
 2363      0C
 2364 054e 4889D9   		movq	%rbx, %rcx
 2365 0551 E8000000 		call	_ZN8UnitTest10CheckEqualI12BufferStatusS1_EEvRNS_11TestResultsERKT_RKT0_RKNS_11TestDetailsE
 2365      00
 2366              	.LEHE70:
 2367              	.L157:
 2368 0556 4883EC08 		subq	$8, %rsp
 2369              		.cfi_def_cfa_offset 136
 2370 055a 488D3D00 		leaq	.LC11(%rip), %rdi
 2370      000000
 2371 0561 4889EA   		movq	%rbp, %rdx
 2372 0564 6A00     		pushq	$0
 2373              		.cfi_def_cfa_offset 144
 2374 0566 31C9     		xorl	%ecx, %ecx
 2375 0568 31F6     		xorl	%esi, %esi
 2376 056a 4C8D4C24 		leaq	19(%rsp), %r9
 2376      13
 2377 056f 4C8D4424 		leaq	24(%rsp), %r8
 2377      18
 2378              	.LEHB71:
 2379 0574 E8000000 		call	bufProcessLine@PLT
 2379      00
 2380              	.LEHE71:
 2381 0579 89442414 		movl	%eax, 20(%rsp)
 2382 057d 58       		popq	%rax
 2383              		.cfi_def_cfa_offset 136
 2384 057e 5A       		popq	%rdx
 2385              		.cfi_def_cfa_offset 128
 2386              	.LEHB72:
 2387 057f E8000000 		call	_ZN8UnitTest11CurrentTest7DetailsEv@PLT
 2387      00
 2388 0584 488B30   		movq	(%rax), %rsi
 2389 0587 BA750000 		movl	$117, %edx
 2389      00
 2390 058c 4889DF   		movq	%rbx, %rdi
 2391 058f E8000000 		call	_ZN8UnitTest11TestDetailsC1ERKS0_i@PLT
 2391      00
 2392 0594 C744240C 		movl	$11, 12(%rsp)
 2392      0B000000 
 2393 059c E8000000 		call	_ZN8UnitTest11CurrentTest7ResultsEv@PLT
 2393      00
 2394 05a1 488B38   		movq	(%rax), %rdi
 2395 05a4 488D5424 		leaq	4(%rsp), %rdx
 2395      04
 2396 05a9 488D7424 		leaq	12(%rsp), %rsi
 2396      0C
 2397 05ae 4889D9   		movq	%rbx, %rcx
 2398 05b1 E8000000 		call	_ZN8UnitTest10CheckEqualI12BufferStatusS1_EEvRNS_11TestResultsERKT_RKT0_RKNS_11TestDetailsE
 2398      00
 2399              	.LEHE72:
 2400              	.L160:
 2401 05b6 4889EF   		movq	%rbp, %rdi
 2402              	.LEHB73:
 2403 05b9 E8000000 		call	bufDestroy@PLT
 2403      00
 2404              	.LEHE73:
 2405 05be 488B4424 		movq	88(%rsp), %rax
 2405      58
 2406 05c3 64483304 		xorq	%fs:40, %rax
 2406      25280000 
 2406      00
 2407 05cc 7509     		jne	.L169
 2408 05ce 4883C460 		addq	$96, %rsp
 2409              		.cfi_remember_state
 2410              		.cfi_def_cfa_offset 32
 2411 05d2 5B       		popq	%rbx
 2412              		.cfi_def_cfa_offset 24
 2413 05d3 5D       		popq	%rbp
 2414              		.cfi_def_cfa_offset 16
 2415 05d4 415C     		popq	%r12
 2416              		.cfi_def_cfa_offset 8
 2417 05d6 C3       		ret
 2418              	.L169:
 2419              		.cfi_restore_state
 2420 05d7 E8000000 		call	__stack_chk_fail@PLT
 2420      00
 2421              	.L165:
 2422 05dc 4889C7   		movq	%rax, %rdi
 2423 05df E8000000 		call	__cxa_begin_catch@PLT
 2423      00
 2424              	.LEHB74:
 2425 05e4 E8000000 		call	_ZN8UnitTest11CurrentTest7ResultsEv@PLT
 2425      00
 2426 05e9 4C8B20   		movq	(%rax), %r12
 2427 05ec E8000000 		call	_ZN8UnitTest11CurrentTest7DetailsEv@PLT
 2427      00
 2428 05f1 488B30   		movq	(%rax), %rsi
 2429 05f4 BA750000 		movl	$117, %edx
 2429      00
 2430 05f9 4889DF   		movq	%rbx, %rdi
 2431 05fc E8000000 		call	_ZN8UnitTest11TestDetailsC1ERKS0_i@PLT
 2431      00
 2432 0601 488D1500 		leaq	.LC12(%rip), %rdx
 2432      000000
 2433 0608 4889DE   		movq	%rbx, %rsi
 2434 060b 4C89E7   		movq	%r12, %rdi
 2435 060e E8000000 		call	_ZN8UnitTest11TestResults13OnTestFailureERKNS_11TestDetailsEPKc@PLT
 2435      00
 2436              	.LEHE74:
 2437              	.LEHB75:
 2438 0613 E8000000 		call	__cxa_end_catch@PLT
 2438      00
 2439              	.LEHE75:
 2440 0618 EB9C     		jmp	.L160
 2441              	.L163:
 2442 061a 4889C7   		movq	%rax, %rdi
 2443 061d E8000000 		call	__cxa_begin_catch@PLT
 2443      00
 2444              	.LEHB76:
 2445 0622 E8000000 		call	_ZN8UnitTest11CurrentTest7ResultsEv@PLT
 2445      00
 2446 0627 4C8B20   		movq	(%rax), %r12
 2447 062a E8000000 		call	_ZN8UnitTest11CurrentTest7DetailsEv@PLT
 2447      00
 2448 062f 488D5C24 		leaq	48(%rsp), %rbx
 2448      30
 2449 0634 488B30   		movq	(%rax), %rsi
 2450 0637 BA730000 		movl	$115, %edx
 2450      00
 2451 063c 4889DF   		movq	%rbx, %rdi
 2452 063f E8000000 		call	_ZN8UnitTest11TestDetailsC1ERKS0_i@PLT
 2452      00
 2453 0644 488D1500 		leaq	.LC5(%rip), %rdx
 2453      000000
 2454 064b 4889DE   		movq	%rbx, %rsi
 2455 064e 4C89E7   		movq	%r12, %rdi
 2456 0651 E8000000 		call	_ZN8UnitTest11TestResults13OnTestFailureERKNS_11TestDetailsEPKc@PLT
 2456      00
 2457              	.LEHE76:
 2458              	.LEHB77:
 2459 0656 E8000000 		call	__cxa_end_catch@PLT
 2459      00
 2460              	.LEHE77:
 2461 065b E9F6FEFF 		jmp	.L157
 2461      FF
 2462              	.L166:
 2463 0660 4889C3   		movq	%rax, %rbx
 2464 0663 E8000000 		call	__cxa_end_catch@PLT
 2464      00
 2465 0668 4889DF   		movq	%rbx, %rdi
 2466              	.LEHB78:
 2467 066b E8000000 		call	_Unwind_Resume@PLT
 2467      00
 2468              	.LEHE78:
 2469              	.L164:
 2470 0670 4889C3   		movq	%rax, %rbx
 2471 0673 E8000000 		call	__cxa_end_catch@PLT
 2471      00
 2472 0678 4889DF   		movq	%rbx, %rdi
 2473              	.LEHB79:
 2474 067b E8000000 		call	_Unwind_Resume@PLT
 2474      00
 2475              	.LEHE79:
 2476              		.cfi_endproc
 2477              	.LFE1264:
 2478              		.section	.gcc_except_table
 2479              		.align 4
 2480              	.LLSDA1264:
 2481 00cc FF       		.byte	0xff
 2482 00cd 9B       		.byte	0x9b
 2483 00ce 41       		.uleb128 .LLSDATT1264-.LLSDATTD1264
 2484              	.LLSDATTD1264:
 2485 00cf 01       		.byte	0x1
 2486 00d0 39       		.uleb128 .LLSDACSE1264-.LLSDACSB1264
 2487              	.LLSDACSB1264:
 2488 00d1 31       		.uleb128 .LEHB69-.LFB1264
 2489 00d2 05       		.uleb128 .LEHE69-.LEHB69
 2490 00d3 00       		.uleb128 0
 2491 00d4 00       		.uleb128 0
 2492 00d5 3A       		.uleb128 .LEHB70-.LFB1264
 2493 00d6 3C       		.uleb128 .LEHE70-.LEHB70
 2494 00d7 BA02     		.uleb128 .L163-.LFB1264
 2495 00d9 01       		.uleb128 0x1
 2496 00da 9401     		.uleb128 .LEHB71-.LFB1264
 2497 00dc 05       		.uleb128 .LEHE71-.LEHB71
 2498 00dd 00       		.uleb128 0
 2499 00de 00       		.uleb128 0
 2500 00df 9F01     		.uleb128 .LEHB72-.LFB1264
 2501 00e1 37       		.uleb128 .LEHE72-.LEHB72
 2502 00e2 FC01     		.uleb128 .L165-.LFB1264
 2503 00e4 01       		.uleb128 0x1
 2504 00e5 D901     		.uleb128 .LEHB73-.LFB1264
 2505 00e7 05       		.uleb128 .LEHE73-.LEHB73
 2506 00e8 00       		.uleb128 0
 2507 00e9 00       		.uleb128 0
 2508 00ea 8402     		.uleb128 .LEHB74-.LFB1264
 2509 00ec 2F       		.uleb128 .LEHE74-.LEHB74
 2510 00ed 8003     		.uleb128 .L166-.LFB1264
 2511 00ef 00       		.uleb128 0
 2512 00f0 B302     		.uleb128 .LEHB75-.LFB1264
 2513 00f2 05       		.uleb128 .LEHE75-.LEHB75
 2514 00f3 00       		.uleb128 0
 2515 00f4 00       		.uleb128 0
 2516 00f5 C202     		.uleb128 .LEHB76-.LFB1264
 2517 00f7 34       		.uleb128 .LEHE76-.LEHB76
 2518 00f8 9003     		.uleb128 .L164-.LFB1264
 2519 00fa 00       		.uleb128 0
 2520 00fb F602     		.uleb128 .LEHB77-.LFB1264
 2521 00fd 05       		.uleb128 .LEHE77-.LEHB77
 2522 00fe 00       		.uleb128 0
 2523 00ff 00       		.uleb128 0
 2524 0100 8B03     		.uleb128 .LEHB78-.LFB1264
 2525 0102 05       		.uleb128 .LEHE78-.LEHB78
 2526 0103 00       		.uleb128 0
 2527 0104 00       		.uleb128 0
 2528 0105 9B03     		.uleb128 .LEHB79-.LFB1264
 2529 0107 05       		.uleb128 .LEHE79-.LEHB79
 2530 0108 00       		.uleb128 0
 2531 0109 00       		.uleb128 0
 2532              	.LLSDACSE1264:
 2533 010a 01       		.byte	0x1
 2534 010b 00       		.byte	0
 2535              		.align 4
 2536 010c 00000000 		.long	0
 2537              	
 2538              	.LLSDATT1264:
 2539              		.text
 2541              		.section	.rodata.str1.1
 2542              	.LC13:
 2543 0054 3A303430 		.string	":040BE1..75820022F7\n"
 2543      4245312E 
 2543      2E373538 
 2543      32303032 
 2543      3246370A 
 2544              		.section	.rodata.str1.8
 2545 0136 0000     		.align 8
 2546              	.LC14:
 2547 0138 556E6861 		.string	"Unhandled exception in CHECK_EQUAL(HEX_JUNK_REC_TYPE, status)"
 2547      6E646C65 
 2547      64206578 
 2547      63657074 
 2547      696F6E20 
 2548              		.text
 2549              		.align 2
 2550              		.p2align 4,,15
 2551              		.globl	_ZNK25TestHexIO_testJunkRecType7RunImplEv
 2553              	_ZNK25TestHexIO_testJunkRecType7RunImplEv:
 2554              	.LFB1268:
 2555              		.cfi_startproc
 2556              		.cfi_personality 0x9b,DW.ref.__gxx_personality_v0
 2557              		.cfi_lsda 0x1b,.LLSDA1268
 2558 0680 4154     		pushq	%r12
 2559              		.cfi_def_cfa_offset 16
 2560              		.cfi_offset 12, -16
 2561 0682 55       		pushq	%rbp
 2562              		.cfi_def_cfa_offset 24
 2563              		.cfi_offset 6, -24
 2564 0683 31C9     		xorl	%ecx, %ecx
 2565 0685 53       		pushq	%rbx
 2566              		.cfi_def_cfa_offset 32
 2567              		.cfi_offset 3, -32
 2568 0686 31D2     		xorl	%edx, %edx
 2569 0688 BE000400 		movl	$1024, %esi
 2569      00
 2570 068d 4883EC60 		subq	$96, %rsp
 2571              		.cfi_def_cfa_offset 128
 2572 0691 488D6C24 		leaq	16(%rsp), %rbp
 2572      10
 2573 0696 C7442408 		movl	$0, 8(%rsp)
 2573      00000000 
 2574 069e 64488B04 		movq	%fs:40, %rax
 2574      25280000 
 2574      00
 2575 06a7 48894424 		movq	%rax, 88(%rsp)
 2575      58
 2576 06ac 31C0     		xorl	%eax, %eax
 2577 06ae 4889EF   		movq	%rbp, %rdi
 2578              	.LEHB80:
 2579 06b1 E8000000 		call	bufInitialise@PLT
 2579      00
 2580              	.LEHE80:
 2581 06b6 89442404 		movl	%eax, 4(%rsp)
 2582              	.LEHB81:
 2583 06ba E8000000 		call	_ZN8UnitTest11CurrentTest7DetailsEv@PLT
 2583      00
 2584 06bf 488D5C24 		leaq	48(%rsp), %rbx
 2584      30
 2585 06c4 488B30   		movq	(%rax), %rsi
 2586 06c7 BA800000 		movl	$128, %edx
 2586      00
 2587 06cc 4889DF   		movq	%rbx, %rdi
 2588 06cf E8000000 		call	_ZN8UnitTest11TestDetailsC1ERKS0_i@PLT
 2588      00
 2589 06d4 C744240C 		movl	$0, 12(%rsp)
 2589      00000000 
 2590 06dc E8000000 		call	_ZN8UnitTest11CurrentTest7ResultsEv@PLT
 2590      00
 2591 06e1 488B38   		movq	(%rax), %rdi
 2592 06e4 488D5424 		leaq	4(%rsp), %rdx
 2592      04
 2593 06e9 488D7424 		leaq	12(%rsp), %rsi
 2593      0C
 2594 06ee 4889D9   		movq	%rbx, %rcx
 2595 06f1 E8000000 		call	_ZN8UnitTest10CheckEqualI12BufferStatusS1_EEvRNS_11TestResultsERKT_RKT0_RKNS_11TestDetailsE
 2595      00
 2596              	.LEHE81:
 2597              	.L172:
 2598 06f6 4883EC08 		subq	$8, %rsp
 2599              		.cfi_def_cfa_offset 136
 2600 06fa 488D3D00 		leaq	.LC13(%rip), %rdi
 2600      000000
 2601 0701 4889EA   		movq	%rbp, %rdx
 2602 0704 6A00     		pushq	$0
 2603              		.cfi_def_cfa_offset 144
 2604 0706 31C9     		xorl	%ecx, %ecx
 2605 0708 31F6     		xorl	%esi, %esi
 2606 070a 4C8D4C24 		leaq	19(%rsp), %r9
 2606      13
 2607 070f 4C8D4424 		leaq	24(%rsp), %r8
 2607      18
 2608              	.LEHB82:
 2609 0714 E8000000 		call	bufProcessLine@PLT
 2609      00
 2610              	.LEHE82:
 2611 0719 89442414 		movl	%eax, 20(%rsp)
 2612 071d 58       		popq	%rax
 2613              		.cfi_def_cfa_offset 136
 2614 071e 5A       		popq	%rdx
 2615              		.cfi_def_cfa_offset 128
 2616              	.LEHB83:
 2617 071f E8000000 		call	_ZN8UnitTest11CurrentTest7DetailsEv@PLT
 2617      00
 2618 0724 488B30   		movq	(%rax), %rsi
 2619 0727 BA820000 		movl	$130, %edx
 2619      00
 2620 072c 4889DF   		movq	%rbx, %rdi
 2621 072f E8000000 		call	_ZN8UnitTest11TestDetailsC1ERKS0_i@PLT
 2621      00
 2622 0734 C744240C 		movl	$12, 12(%rsp)
 2622      0C000000 
 2623 073c E8000000 		call	_ZN8UnitTest11CurrentTest7ResultsEv@PLT
 2623      00
 2624 0741 488B38   		movq	(%rax), %rdi
 2625 0744 488D5424 		leaq	4(%rsp), %rdx
 2625      04
 2626 0749 488D7424 		leaq	12(%rsp), %rsi
 2626      0C
 2627 074e 4889D9   		movq	%rbx, %rcx
 2628 0751 E8000000 		call	_ZN8UnitTest10CheckEqualI12BufferStatusS1_EEvRNS_11TestResultsERKT_RKT0_RKNS_11TestDetailsE
 2628      00
 2629              	.LEHE83:
 2630              	.L175:
 2631 0756 4889EF   		movq	%rbp, %rdi
 2632              	.LEHB84:
 2633 0759 E8000000 		call	bufDestroy@PLT
 2633      00
 2634              	.LEHE84:
 2635 075e 488B4424 		movq	88(%rsp), %rax
 2635      58
 2636 0763 64483304 		xorq	%fs:40, %rax
 2636      25280000 
 2636      00
 2637 076c 7509     		jne	.L184
 2638 076e 4883C460 		addq	$96, %rsp
 2639              		.cfi_remember_state
 2640              		.cfi_def_cfa_offset 32
 2641 0772 5B       		popq	%rbx
 2642              		.cfi_def_cfa_offset 24
 2643 0773 5D       		popq	%rbp
 2644              		.cfi_def_cfa_offset 16
 2645 0774 415C     		popq	%r12
 2646              		.cfi_def_cfa_offset 8
 2647 0776 C3       		ret
 2648              	.L184:
 2649              		.cfi_restore_state
 2650 0777 E8000000 		call	__stack_chk_fail@PLT
 2650      00
 2651              	.L180:
 2652 077c 4889C7   		movq	%rax, %rdi
 2653 077f E8000000 		call	__cxa_begin_catch@PLT
 2653      00
 2654              	.LEHB85:
 2655 0784 E8000000 		call	_ZN8UnitTest11CurrentTest7ResultsEv@PLT
 2655      00
 2656 0789 4C8B20   		movq	(%rax), %r12
 2657 078c E8000000 		call	_ZN8UnitTest11CurrentTest7DetailsEv@PLT
 2657      00
 2658 0791 488B30   		movq	(%rax), %rsi
 2659 0794 BA820000 		movl	$130, %edx
 2659      00
 2660 0799 4889DF   		movq	%rbx, %rdi
 2661 079c E8000000 		call	_ZN8UnitTest11TestDetailsC1ERKS0_i@PLT
 2661      00
 2662 07a1 488D1500 		leaq	.LC14(%rip), %rdx
 2662      000000
 2663 07a8 4889DE   		movq	%rbx, %rsi
 2664 07ab 4C89E7   		movq	%r12, %rdi
 2665 07ae E8000000 		call	_ZN8UnitTest11TestResults13OnTestFailureERKNS_11TestDetailsEPKc@PLT
 2665      00
 2666              	.LEHE85:
 2667              	.LEHB86:
 2668 07b3 E8000000 		call	__cxa_end_catch@PLT
 2668      00
 2669              	.LEHE86:
 2670 07b8 EB9C     		jmp	.L175
 2671              	.L178:
 2672 07ba 4889C7   		movq	%rax, %rdi
 2673 07bd E8000000 		call	__cxa_begin_catch@PLT
 2673      00
 2674              	.LEHB87:
 2675 07c2 E8000000 		call	_ZN8UnitTest11CurrentTest7ResultsEv@PLT
 2675      00
 2676 07c7 4C8B20   		movq	(%rax), %r12
 2677 07ca E8000000 		call	_ZN8UnitTest11CurrentTest7DetailsEv@PLT
 2677      00
 2678 07cf 488D5C24 		leaq	48(%rsp), %rbx
 2678      30
 2679 07d4 488B30   		movq	(%rax), %rsi
 2680 07d7 BA800000 		movl	$128, %edx
 2680      00
 2681 07dc 4889DF   		movq	%rbx, %rdi
 2682 07df E8000000 		call	_ZN8UnitTest11TestDetailsC1ERKS0_i@PLT
 2682      00
 2683 07e4 488D1500 		leaq	.LC5(%rip), %rdx
 2683      000000
 2684 07eb 4889DE   		movq	%rbx, %rsi
 2685 07ee 4C89E7   		movq	%r12, %rdi
 2686 07f1 E8000000 		call	_ZN8UnitTest11TestResults13OnTestFailureERKNS_11TestDetailsEPKc@PLT
 2686      00
 2687              	.LEHE87:
 2688              	.LEHB88:
 2689 07f6 E8000000 		call	__cxa_end_catch@PLT
 2689      00
 2690              	.LEHE88:
 2691 07fb E9F6FEFF 		jmp	.L172
 2691      FF
 2692              	.L181:
 2693 0800 4889C3   		movq	%rax, %rbx
 2694 0803 E8000000 		call	__cxa_end_catch@PLT
 2694      00
 2695 0808 4889DF   		movq	%rbx, %rdi
 2696              	.LEHB89:
 2697 080b E8000000 		call	_Unwind_Resume@PLT
 2697      00
 2698              	.LEHE89:
 2699              	.L179:
 2700 0810 4889C3   		movq	%rax, %rbx
 2701 0813 E8000000 		call	__cxa_end_catch@PLT
 2701      00
 2702 0818 4889DF   		movq	%rbx, %rdi
 2703              	.LEHB90:
 2704 081b E8000000 		call	_Unwind_Resume@PLT
 2704      00
 2705              	.LEHE90:
 2706              		.cfi_endproc
 2707              	.LFE1268:
 2708              		.section	.gcc_except_table
 2709              		.align 4
 2710              	.LLSDA1268:
 2711 0110 FF       		.byte	0xff
 2712 0111 9B       		.byte	0x9b
 2713 0112 41       		.uleb128 .LLSDATT1268-.LLSDATTD1268
 2714              	.LLSDATTD1268:
 2715 0113 01       		.byte	0x1
 2716 0114 39       		.uleb128 .LLSDACSE1268-.LLSDACSB1268
 2717              	.LLSDACSB1268:
 2718 0115 31       		.uleb128 .LEHB80-.LFB1268
 2719 0116 05       		.uleb128 .LEHE80-.LEHB80
 2720 0117 00       		.uleb128 0
 2721 0118 00       		.uleb128 0
 2722 0119 3A       		.uleb128 .LEHB81-.LFB1268
 2723 011a 3C       		.uleb128 .LEHE81-.LEHB81
 2724 011b BA02     		.uleb128 .L178-.LFB1268
 2725 011d 01       		.uleb128 0x1
 2726 011e 9401     		.uleb128 .LEHB82-.LFB1268
 2727 0120 05       		.uleb128 .LEHE82-.LEHB82
 2728 0121 00       		.uleb128 0
 2729 0122 00       		.uleb128 0
 2730 0123 9F01     		.uleb128 .LEHB83-.LFB1268
 2731 0125 37       		.uleb128 .LEHE83-.LEHB83
 2732 0126 FC01     		.uleb128 .L180-.LFB1268
 2733 0128 01       		.uleb128 0x1
 2734 0129 D901     		.uleb128 .LEHB84-.LFB1268
 2735 012b 05       		.uleb128 .LEHE84-.LEHB84
 2736 012c 00       		.uleb128 0
 2737 012d 00       		.uleb128 0
 2738 012e 8402     		.uleb128 .LEHB85-.LFB1268
 2739 0130 2F       		.uleb128 .LEHE85-.LEHB85
 2740 0131 8003     		.uleb128 .L181-.LFB1268
 2741 0133 00       		.uleb128 0
 2742 0134 B302     		.uleb128 .LEHB86-.LFB1268
 2743 0136 05       		.uleb128 .LEHE86-.LEHB86
 2744 0137 00       		.uleb128 0
 2745 0138 00       		.uleb128 0
 2746 0139 C202     		.uleb128 .LEHB87-.LFB1268
 2747 013b 34       		.uleb128 .LEHE87-.LEHB87
 2748 013c 9003     		.uleb128 .L179-.LFB1268
 2749 013e 00       		.uleb128 0
 2750 013f F602     		.uleb128 .LEHB88-.LFB1268
 2751 0141 05       		.uleb128 .LEHE88-.LEHB88
 2752 0142 00       		.uleb128 0
 2753 0143 00       		.uleb128 0
 2754 0144 8B03     		.uleb128 .LEHB89-.LFB1268
 2755 0146 05       		.uleb128 .LEHE89-.LEHB89
 2756 0147 00       		.uleb128 0
 2757 0148 00       		.uleb128 0
 2758 0149 9B03     		.uleb128 .LEHB90-.LFB1268
 2759 014b 05       		.uleb128 .LEHE90-.LEHB90
 2760 014c 00       		.uleb128 0
 2761 014d 00       		.uleb128 0
 2762              	.LLSDACSE1268:
 2763 014e 01       		.byte	0x1
 2764 014f 00       		.byte	0
 2765              		.align 4
 2766 0150 00000000 		.long	0
 2767              	
 2768              	.LLSDATT1268:
 2769              		.text
 2771              		.section	.rodata.str1.1
 2772              	.LC15:
 2773 0069 3A303430 		.string	":040BE100..820022F7\n"
 2773      42453130 
 2773      302E2E38 
 2773      32303032 
 2773      3246370A 
 2774              		.section	.rodata.str1.8
 2775 0176 0000     		.align 8
 2776              	.LC16:
 2777 0178 556E6861 		.string	"Unhandled exception in CHECK_EQUAL(HEX_JUNK_DATA_BYTE, status)"
 2777      6E646C65 
 2777      64206578 
 2777      63657074 
 2777      696F6E20 
 2778              		.text
 2779              		.align 2
 2780              		.p2align 4,,15
 2781              		.globl	_ZNK26TestHexIO_testJunkDataByte7RunImplEv
 2783              	_ZNK26TestHexIO_testJunkDataByte7RunImplEv:
 2784              	.LFB1272:
 2785              		.cfi_startproc
 2786              		.cfi_personality 0x9b,DW.ref.__gxx_personality_v0
 2787              		.cfi_lsda 0x1b,.LLSDA1272
 2788 0820 4154     		pushq	%r12
 2789              		.cfi_def_cfa_offset 16
 2790              		.cfi_offset 12, -16
 2791 0822 55       		pushq	%rbp
 2792              		.cfi_def_cfa_offset 24
 2793              		.cfi_offset 6, -24
 2794 0823 31C9     		xorl	%ecx, %ecx
 2795 0825 53       		pushq	%rbx
 2796              		.cfi_def_cfa_offset 32
 2797              		.cfi_offset 3, -32
 2798 0826 31D2     		xorl	%edx, %edx
 2799 0828 BE000400 		movl	$1024, %esi
 2799      00
 2800 082d 4883EC60 		subq	$96, %rsp
 2801              		.cfi_def_cfa_offset 128
 2802 0831 488D6C24 		leaq	16(%rsp), %rbp
 2802      10
 2803 0836 C7442408 		movl	$0, 8(%rsp)
 2803      00000000 
 2804 083e 64488B04 		movq	%fs:40, %rax
 2804      25280000 
 2804      00
 2805 0847 48894424 		movq	%rax, 88(%rsp)
 2805      58
 2806 084c 31C0     		xorl	%eax, %eax
 2807 084e 4889EF   		movq	%rbp, %rdi
 2808              	.LEHB91:
 2809 0851 E8000000 		call	bufInitialise@PLT
 2809      00
 2810              	.LEHE91:
 2811 0856 89442404 		movl	%eax, 4(%rsp)
 2812              	.LEHB92:
 2813 085a E8000000 		call	_ZN8UnitTest11CurrentTest7DetailsEv@PLT
 2813      00
 2814 085f 488D5C24 		leaq	48(%rsp), %rbx
 2814      30
 2815 0864 488B30   		movq	(%rax), %rsi
 2816 0867 BA8D0000 		movl	$141, %edx
 2816      00
 2817 086c 4889DF   		movq	%rbx, %rdi
 2818 086f E8000000 		call	_ZN8UnitTest11TestDetailsC1ERKS0_i@PLT
 2818      00
 2819 0874 C744240C 		movl	$0, 12(%rsp)
 2819      00000000 
 2820 087c E8000000 		call	_ZN8UnitTest11CurrentTest7ResultsEv@PLT
 2820      00
 2821 0881 488B38   		movq	(%rax), %rdi
 2822 0884 488D5424 		leaq	4(%rsp), %rdx
 2822      04
 2823 0889 488D7424 		leaq	12(%rsp), %rsi
 2823      0C
 2824 088e 4889D9   		movq	%rbx, %rcx
 2825 0891 E8000000 		call	_ZN8UnitTest10CheckEqualI12BufferStatusS1_EEvRNS_11TestResultsERKT_RKT0_RKNS_11TestDetailsE
 2825      00
 2826              	.LEHE92:
 2827              	.L187:
 2828 0896 4883EC08 		subq	$8, %rsp
 2829              		.cfi_def_cfa_offset 136
 2830 089a 488D3D00 		leaq	.LC15(%rip), %rdi
 2830      000000
 2831 08a1 4889EA   		movq	%rbp, %rdx
 2832 08a4 6A00     		pushq	$0
 2833              		.cfi_def_cfa_offset 144
 2834 08a6 31C9     		xorl	%ecx, %ecx
 2835 08a8 31F6     		xorl	%esi, %esi
 2836 08aa 4C8D4C24 		leaq	19(%rsp), %r9
 2836      13
 2837 08af 4C8D4424 		leaq	24(%rsp), %r8
 2837      18
 2838              	.LEHB93:
 2839 08b4 E8000000 		call	bufProcessLine@PLT
 2839      00
 2840              	.LEHE93:
 2841 08b9 89442414 		movl	%eax, 20(%rsp)
 2842 08bd 58       		popq	%rax
 2843              		.cfi_def_cfa_offset 136
 2844 08be 5A       		popq	%rdx
 2845              		.cfi_def_cfa_offset 128
 2846              	.LEHB94:
 2847 08bf E8000000 		call	_ZN8UnitTest11CurrentTest7DetailsEv@PLT
 2847      00
 2848 08c4 488B30   		movq	(%rax), %rsi
 2849 08c7 BA8F0000 		movl	$143, %edx
 2849      00
 2850 08cc 4889DF   		movq	%rbx, %rdi
 2851 08cf E8000000 		call	_ZN8UnitTest11TestDetailsC1ERKS0_i@PLT
 2851      00
 2852 08d4 C744240C 		movl	$14, 12(%rsp)
 2852      0E000000 
 2853 08dc E8000000 		call	_ZN8UnitTest11CurrentTest7ResultsEv@PLT
 2853      00
 2854 08e1 488B38   		movq	(%rax), %rdi
 2855 08e4 488D5424 		leaq	4(%rsp), %rdx
 2855      04
 2856 08e9 488D7424 		leaq	12(%rsp), %rsi
 2856      0C
 2857 08ee 4889D9   		movq	%rbx, %rcx
 2858 08f1 E8000000 		call	_ZN8UnitTest10CheckEqualI12BufferStatusS1_EEvRNS_11TestResultsERKT_RKT0_RKNS_11TestDetailsE
 2858      00
 2859              	.LEHE94:
 2860              	.L190:
 2861 08f6 4889EF   		movq	%rbp, %rdi
 2862              	.LEHB95:
 2863 08f9 E8000000 		call	bufDestroy@PLT
 2863      00
 2864              	.LEHE95:
 2865 08fe 488B4424 		movq	88(%rsp), %rax
 2865      58
 2866 0903 64483304 		xorq	%fs:40, %rax
 2866      25280000 
 2866      00
 2867 090c 7509     		jne	.L199
 2868 090e 4883C460 		addq	$96, %rsp
 2869              		.cfi_remember_state
 2870              		.cfi_def_cfa_offset 32
 2871 0912 5B       		popq	%rbx
 2872              		.cfi_def_cfa_offset 24
 2873 0913 5D       		popq	%rbp
 2874              		.cfi_def_cfa_offset 16
 2875 0914 415C     		popq	%r12
 2876              		.cfi_def_cfa_offset 8
 2877 0916 C3       		ret
 2878              	.L199:
 2879              		.cfi_restore_state
 2880 0917 E8000000 		call	__stack_chk_fail@PLT
 2880      00
 2881              	.L195:
 2882 091c 4889C7   		movq	%rax, %rdi
 2883 091f E8000000 		call	__cxa_begin_catch@PLT
 2883      00
 2884              	.LEHB96:
 2885 0924 E8000000 		call	_ZN8UnitTest11CurrentTest7ResultsEv@PLT
 2885      00
 2886 0929 4C8B20   		movq	(%rax), %r12
 2887 092c E8000000 		call	_ZN8UnitTest11CurrentTest7DetailsEv@PLT
 2887      00
 2888 0931 488B30   		movq	(%rax), %rsi
 2889 0934 BA8F0000 		movl	$143, %edx
 2889      00
 2890 0939 4889DF   		movq	%rbx, %rdi
 2891 093c E8000000 		call	_ZN8UnitTest11TestDetailsC1ERKS0_i@PLT
 2891      00
 2892 0941 488D1500 		leaq	.LC16(%rip), %rdx
 2892      000000
 2893 0948 4889DE   		movq	%rbx, %rsi
 2894 094b 4C89E7   		movq	%r12, %rdi
 2895 094e E8000000 		call	_ZN8UnitTest11TestResults13OnTestFailureERKNS_11TestDetailsEPKc@PLT
 2895      00
 2896              	.LEHE96:
 2897              	.LEHB97:
 2898 0953 E8000000 		call	__cxa_end_catch@PLT
 2898      00
 2899              	.LEHE97:
 2900 0958 EB9C     		jmp	.L190
 2901              	.L193:
 2902 095a 4889C7   		movq	%rax, %rdi
 2903 095d E8000000 		call	__cxa_begin_catch@PLT
 2903      00
 2904              	.LEHB98:
 2905 0962 E8000000 		call	_ZN8UnitTest11CurrentTest7ResultsEv@PLT
 2905      00
 2906 0967 4C8B20   		movq	(%rax), %r12
 2907 096a E8000000 		call	_ZN8UnitTest11CurrentTest7DetailsEv@PLT
 2907      00
 2908 096f 488D5C24 		leaq	48(%rsp), %rbx
 2908      30
 2909 0974 488B30   		movq	(%rax), %rsi
 2910 0977 BA8D0000 		movl	$141, %edx
 2910      00
 2911 097c 4889DF   		movq	%rbx, %rdi
 2912 097f E8000000 		call	_ZN8UnitTest11TestDetailsC1ERKS0_i@PLT
 2912      00
 2913 0984 488D1500 		leaq	.LC5(%rip), %rdx
 2913      000000
 2914 098b 4889DE   		movq	%rbx, %rsi
 2915 098e 4C89E7   		movq	%r12, %rdi
 2916 0991 E8000000 		call	_ZN8UnitTest11TestResults13OnTestFailureERKNS_11TestDetailsEPKc@PLT
 2916      00
 2917              	.LEHE98:
 2918              	.LEHB99:
 2919 0996 E8000000 		call	__cxa_end_catch@PLT
 2919      00
 2920              	.LEHE99:
 2921 099b E9F6FEFF 		jmp	.L187
 2921      FF
 2922              	.L196:
 2923 09a0 4889C3   		movq	%rax, %rbx
 2924 09a3 E8000000 		call	__cxa_end_catch@PLT
 2924      00
 2925 09a8 4889DF   		movq	%rbx, %rdi
 2926              	.LEHB100:
 2927 09ab E8000000 		call	_Unwind_Resume@PLT
 2927      00
 2928              	.LEHE100:
 2929              	.L194:
 2930 09b0 4889C3   		movq	%rax, %rbx
 2931 09b3 E8000000 		call	__cxa_end_catch@PLT
 2931      00
 2932 09b8 4889DF   		movq	%rbx, %rdi
 2933              	.LEHB101:
 2934 09bb E8000000 		call	_Unwind_Resume@PLT
 2934      00
 2935              	.LEHE101:
 2936              		.cfi_endproc
 2937              	.LFE1272:
 2938              		.section	.gcc_except_table
 2939              		.align 4
 2940              	.LLSDA1272:
 2941 0154 FF       		.byte	0xff
 2942 0155 9B       		.byte	0x9b
 2943 0156 41       		.uleb128 .LLSDATT1272-.LLSDATTD1272
 2944              	.LLSDATTD1272:
 2945 0157 01       		.byte	0x1
 2946 0158 39       		.uleb128 .LLSDACSE1272-.LLSDACSB1272
 2947              	.LLSDACSB1272:
 2948 0159 31       		.uleb128 .LEHB91-.LFB1272
 2949 015a 05       		.uleb128 .LEHE91-.LEHB91
 2950 015b 00       		.uleb128 0
 2951 015c 00       		.uleb128 0
 2952 015d 3A       		.uleb128 .LEHB92-.LFB1272
 2953 015e 3C       		.uleb128 .LEHE92-.LEHB92
 2954 015f BA02     		.uleb128 .L193-.LFB1272
 2955 0161 01       		.uleb128 0x1
 2956 0162 9401     		.uleb128 .LEHB93-.LFB1272
 2957 0164 05       		.uleb128 .LEHE93-.LEHB93
 2958 0165 00       		.uleb128 0
 2959 0166 00       		.uleb128 0
 2960 0167 9F01     		.uleb128 .LEHB94-.LFB1272
 2961 0169 37       		.uleb128 .LEHE94-.LEHB94
 2962 016a FC01     		.uleb128 .L195-.LFB1272
 2963 016c 01       		.uleb128 0x1
 2964 016d D901     		.uleb128 .LEHB95-.LFB1272
 2965 016f 05       		.uleb128 .LEHE95-.LEHB95
 2966 0170 00       		.uleb128 0
 2967 0171 00       		.uleb128 0
 2968 0172 8402     		.uleb128 .LEHB96-.LFB1272
 2969 0174 2F       		.uleb128 .LEHE96-.LEHB96
 2970 0175 8003     		.uleb128 .L196-.LFB1272
 2971 0177 00       		.uleb128 0
 2972 0178 B302     		.uleb128 .LEHB97-.LFB1272
 2973 017a 05       		.uleb128 .LEHE97-.LEHB97
 2974 017b 00       		.uleb128 0
 2975 017c 00       		.uleb128 0
 2976 017d C202     		.uleb128 .LEHB98-.LFB1272
 2977 017f 34       		.uleb128 .LEHE98-.LEHB98
 2978 0180 9003     		.uleb128 .L194-.LFB1272
 2979 0182 00       		.uleb128 0
 2980 0183 F602     		.uleb128 .LEHB99-.LFB1272
 2981 0185 05       		.uleb128 .LEHE99-.LEHB99
 2982 0186 00       		.uleb128 0
 2983 0187 00       		.uleb128 0
 2984 0188 8B03     		.uleb128 .LEHB100-.LFB1272
 2985 018a 05       		.uleb128 .LEHE100-.LEHB100
 2986 018b 00       		.uleb128 0
 2987 018c 00       		.uleb128 0
 2988 018d 9B03     		.uleb128 .LEHB101-.LFB1272
 2989 018f 05       		.uleb128 .LEHE101-.LEHB101
 2990 0190 00       		.uleb128 0
 2991 0191 00       		.uleb128 0
 2992              	.LLSDACSE1272:
 2993 0192 01       		.byte	0x1
 2994 0193 00       		.byte	0
 2995              		.align 4
 2996 0194 00000000 		.long	0
 2997              	
 2998              	.LLSDATT1272:
 2999              		.text
 3001              		.section	.rodata.str1.1
 3002              	.LC17:
 3003 007e 3A303430 		.string	":040BE10075820022..\n"
 3003      42453130 
 3003      30373538 
 3003      32303032 
 3003      322E2E0A 
 3004              		.section	.rodata.str1.8
 3005 01b7 00       		.align 8
 3006              	.LC18:
 3007 01b8 556E6861 		.string	"Unhandled exception in CHECK_EQUAL(HEX_JUNK_CHECKSUM, status)"
 3007      6E646C65 
 3007      64206578 
 3007      63657074 
 3007      696F6E20 
 3008              		.text
 3009              		.align 2
 3010              		.p2align 4,,15
 3011              		.globl	_ZNK26TestHexIO_testJunkChecksum7RunImplEv
 3013              	_ZNK26TestHexIO_testJunkChecksum7RunImplEv:
 3014              	.LFB1276:
 3015              		.cfi_startproc
 3016              		.cfi_personality 0x9b,DW.ref.__gxx_personality_v0
 3017              		.cfi_lsda 0x1b,.LLSDA1276
 3018 09c0 4154     		pushq	%r12
 3019              		.cfi_def_cfa_offset 16
 3020              		.cfi_offset 12, -16
 3021 09c2 55       		pushq	%rbp
 3022              		.cfi_def_cfa_offset 24
 3023              		.cfi_offset 6, -24
 3024 09c3 31C9     		xorl	%ecx, %ecx
 3025 09c5 53       		pushq	%rbx
 3026              		.cfi_def_cfa_offset 32
 3027              		.cfi_offset 3, -32
 3028 09c6 31D2     		xorl	%edx, %edx
 3029 09c8 BE000400 		movl	$1024, %esi
 3029      00
 3030 09cd 4883EC60 		subq	$96, %rsp
 3031              		.cfi_def_cfa_offset 128
 3032 09d1 488D6C24 		leaq	16(%rsp), %rbp
 3032      10
 3033 09d6 C7442408 		movl	$0, 8(%rsp)
 3033      00000000 
 3034 09de 64488B04 		movq	%fs:40, %rax
 3034      25280000 
 3034      00
 3035 09e7 48894424 		movq	%rax, 88(%rsp)
 3035      58
 3036 09ec 31C0     		xorl	%eax, %eax
 3037 09ee 4889EF   		movq	%rbp, %rdi
 3038              	.LEHB102:
 3039 09f1 E8000000 		call	bufInitialise@PLT
 3039      00
 3040              	.LEHE102:
 3041 09f6 89442404 		movl	%eax, 4(%rsp)
 3042              	.LEHB103:
 3043 09fa E8000000 		call	_ZN8UnitTest11CurrentTest7DetailsEv@PLT
 3043      00
 3044 09ff 488D5C24 		leaq	48(%rsp), %rbx
 3044      30
 3045 0a04 488B30   		movq	(%rax), %rsi
 3046 0a07 BA9A0000 		movl	$154, %edx
 3046      00
 3047 0a0c 4889DF   		movq	%rbx, %rdi
 3048 0a0f E8000000 		call	_ZN8UnitTest11TestDetailsC1ERKS0_i@PLT
 3048      00
 3049 0a14 C744240C 		movl	$0, 12(%rsp)
 3049      00000000 
 3050 0a1c E8000000 		call	_ZN8UnitTest11CurrentTest7ResultsEv@PLT
 3050      00
 3051 0a21 488B38   		movq	(%rax), %rdi
 3052 0a24 488D5424 		leaq	4(%rsp), %rdx
 3052      04
 3053 0a29 488D7424 		leaq	12(%rsp), %rsi
 3053      0C
 3054 0a2e 4889D9   		movq	%rbx, %rcx
 3055 0a31 E8000000 		call	_ZN8UnitTest10CheckEqualI12BufferStatusS1_EEvRNS_11TestResultsERKT_RKT0_RKNS_11TestDetailsE
 3055      00
 3056              	.LEHE103:
 3057              	.L202:
 3058 0a36 4883EC08 		subq	$8, %rsp
 3059              		.cfi_def_cfa_offset 136
 3060 0a3a 488D3D00 		leaq	.LC17(%rip), %rdi
 3060      000000
 3061 0a41 4889EA   		movq	%rbp, %rdx
 3062 0a44 6A00     		pushq	$0
 3063              		.cfi_def_cfa_offset 144
 3064 0a46 31C9     		xorl	%ecx, %ecx
 3065 0a48 31F6     		xorl	%esi, %esi
 3066 0a4a 4C8D4C24 		leaq	19(%rsp), %r9
 3066      13
 3067 0a4f 4C8D4424 		leaq	24(%rsp), %r8
 3067      18
 3068              	.LEHB104:
 3069 0a54 E8000000 		call	bufProcessLine@PLT
 3069      00
 3070              	.LEHE104:
 3071 0a59 89442414 		movl	%eax, 20(%rsp)
 3072 0a5d 58       		popq	%rax
 3073              		.cfi_def_cfa_offset 136
 3074 0a5e 5A       		popq	%rdx
 3075              		.cfi_def_cfa_offset 128
 3076              	.LEHB105:
 3077 0a5f E8000000 		call	_ZN8UnitTest11CurrentTest7DetailsEv@PLT
 3077      00
 3078 0a64 488B30   		movq	(%rax), %rsi
 3079 0a67 BA9C0000 		movl	$156, %edx
 3079      00
 3080 0a6c 4889DF   		movq	%rbx, %rdi
 3081 0a6f E8000000 		call	_ZN8UnitTest11TestDetailsC1ERKS0_i@PLT
 3081      00
 3082 0a74 C744240C 		movl	$15, 12(%rsp)
 3082      0F000000 
 3083 0a7c E8000000 		call	_ZN8UnitTest11CurrentTest7ResultsEv@PLT
 3083      00
 3084 0a81 488B38   		movq	(%rax), %rdi
 3085 0a84 488D5424 		leaq	4(%rsp), %rdx
 3085      04
 3086 0a89 488D7424 		leaq	12(%rsp), %rsi
 3086      0C
 3087 0a8e 4889D9   		movq	%rbx, %rcx
 3088 0a91 E8000000 		call	_ZN8UnitTest10CheckEqualI12BufferStatusS1_EEvRNS_11TestResultsERKT_RKT0_RKNS_11TestDetailsE
 3088      00
 3089              	.LEHE105:
 3090              	.L205:
 3091 0a96 4889EF   		movq	%rbp, %rdi
 3092              	.LEHB106:
 3093 0a99 E8000000 		call	bufDestroy@PLT
 3093      00
 3094              	.LEHE106:
 3095 0a9e 488B4424 		movq	88(%rsp), %rax
 3095      58
 3096 0aa3 64483304 		xorq	%fs:40, %rax
 3096      25280000 
 3096      00
 3097 0aac 7509     		jne	.L214
 3098 0aae 4883C460 		addq	$96, %rsp
 3099              		.cfi_remember_state
 3100              		.cfi_def_cfa_offset 32
 3101 0ab2 5B       		popq	%rbx
 3102              		.cfi_def_cfa_offset 24
 3103 0ab3 5D       		popq	%rbp
 3104              		.cfi_def_cfa_offset 16
 3105 0ab4 415C     		popq	%r12
 3106              		.cfi_def_cfa_offset 8
 3107 0ab6 C3       		ret
 3108              	.L214:
 3109              		.cfi_restore_state
 3110 0ab7 E8000000 		call	__stack_chk_fail@PLT
 3110      00
 3111              	.L210:
 3112 0abc 4889C7   		movq	%rax, %rdi
 3113 0abf E8000000 		call	__cxa_begin_catch@PLT
 3113      00
 3114              	.LEHB107:
 3115 0ac4 E8000000 		call	_ZN8UnitTest11CurrentTest7ResultsEv@PLT
 3115      00
 3116 0ac9 4C8B20   		movq	(%rax), %r12
 3117 0acc E8000000 		call	_ZN8UnitTest11CurrentTest7DetailsEv@PLT
 3117      00
 3118 0ad1 488B30   		movq	(%rax), %rsi
 3119 0ad4 BA9C0000 		movl	$156, %edx
 3119      00
 3120 0ad9 4889DF   		movq	%rbx, %rdi
 3121 0adc E8000000 		call	_ZN8UnitTest11TestDetailsC1ERKS0_i@PLT
 3121      00
 3122 0ae1 488D1500 		leaq	.LC18(%rip), %rdx
 3122      000000
 3123 0ae8 4889DE   		movq	%rbx, %rsi
 3124 0aeb 4C89E7   		movq	%r12, %rdi
 3125 0aee E8000000 		call	_ZN8UnitTest11TestResults13OnTestFailureERKNS_11TestDetailsEPKc@PLT
 3125      00
 3126              	.LEHE107:
 3127              	.LEHB108:
 3128 0af3 E8000000 		call	__cxa_end_catch@PLT
 3128      00
 3129              	.LEHE108:
 3130 0af8 EB9C     		jmp	.L205
 3131              	.L208:
 3132 0afa 4889C7   		movq	%rax, %rdi
 3133 0afd E8000000 		call	__cxa_begin_catch@PLT
 3133      00
 3134              	.LEHB109:
 3135 0b02 E8000000 		call	_ZN8UnitTest11CurrentTest7ResultsEv@PLT
 3135      00
 3136 0b07 4C8B20   		movq	(%rax), %r12
 3137 0b0a E8000000 		call	_ZN8UnitTest11CurrentTest7DetailsEv@PLT
 3137      00
 3138 0b0f 488D5C24 		leaq	48(%rsp), %rbx
 3138      30
 3139 0b14 488B30   		movq	(%rax), %rsi
 3140 0b17 BA9A0000 		movl	$154, %edx
 3140      00
 3141 0b1c 4889DF   		movq	%rbx, %rdi
 3142 0b1f E8000000 		call	_ZN8UnitTest11TestDetailsC1ERKS0_i@PLT
 3142      00
 3143 0b24 488D1500 		leaq	.LC5(%rip), %rdx
 3143      000000
 3144 0b2b 4889DE   		movq	%rbx, %rsi
 3145 0b2e 4C89E7   		movq	%r12, %rdi
 3146 0b31 E8000000 		call	_ZN8UnitTest11TestResults13OnTestFailureERKNS_11TestDetailsEPKc@PLT
 3146      00
 3147              	.LEHE109:
 3148              	.LEHB110:
 3149 0b36 E8000000 		call	__cxa_end_catch@PLT
 3149      00
 3150              	.LEHE110:
 3151 0b3b E9F6FEFF 		jmp	.L202
 3151      FF
 3152              	.L211:
 3153 0b40 4889C3   		movq	%rax, %rbx
 3154 0b43 E8000000 		call	__cxa_end_catch@PLT
 3154      00
 3155 0b48 4889DF   		movq	%rbx, %rdi
 3156              	.LEHB111:
 3157 0b4b E8000000 		call	_Unwind_Resume@PLT
 3157      00
 3158              	.LEHE111:
 3159              	.L209:
 3160 0b50 4889C3   		movq	%rax, %rbx
 3161 0b53 E8000000 		call	__cxa_end_catch@PLT
 3161      00
 3162 0b58 4889DF   		movq	%rbx, %rdi
 3163              	.LEHB112:
 3164 0b5b E8000000 		call	_Unwind_Resume@PLT
 3164      00
 3165              	.LEHE112:
 3166              		.cfi_endproc
 3167              	.LFE1276:
 3168              		.section	.gcc_except_table
 3169              		.align 4
 3170              	.LLSDA1276:
 3171 0198 FF       		.byte	0xff
 3172 0199 9B       		.byte	0x9b
 3173 019a 41       		.uleb128 .LLSDATT1276-.LLSDATTD1276
 3174              	.LLSDATTD1276:
 3175 019b 01       		.byte	0x1
 3176 019c 39       		.uleb128 .LLSDACSE1276-.LLSDACSB1276
 3177              	.LLSDACSB1276:
 3178 019d 31       		.uleb128 .LEHB102-.LFB1276
 3179 019e 05       		.uleb128 .LEHE102-.LEHB102
 3180 019f 00       		.uleb128 0
 3181 01a0 00       		.uleb128 0
 3182 01a1 3A       		.uleb128 .LEHB103-.LFB1276
 3183 01a2 3C       		.uleb128 .LEHE103-.LEHB103
 3184 01a3 BA02     		.uleb128 .L208-.LFB1276
 3185 01a5 01       		.uleb128 0x1
 3186 01a6 9401     		.uleb128 .LEHB104-.LFB1276
 3187 01a8 05       		.uleb128 .LEHE104-.LEHB104
 3188 01a9 00       		.uleb128 0
 3189 01aa 00       		.uleb128 0
 3190 01ab 9F01     		.uleb128 .LEHB105-.LFB1276
 3191 01ad 37       		.uleb128 .LEHE105-.LEHB105
 3192 01ae FC01     		.uleb128 .L210-.LFB1276
 3193 01b0 01       		.uleb128 0x1
 3194 01b1 D901     		.uleb128 .LEHB106-.LFB1276
 3195 01b3 05       		.uleb128 .LEHE106-.LEHB106
 3196 01b4 00       		.uleb128 0
 3197 01b5 00       		.uleb128 0
 3198 01b6 8402     		.uleb128 .LEHB107-.LFB1276
 3199 01b8 2F       		.uleb128 .LEHE107-.LEHB107
 3200 01b9 8003     		.uleb128 .L211-.LFB1276
 3201 01bb 00       		.uleb128 0
 3202 01bc B302     		.uleb128 .LEHB108-.LFB1276
 3203 01be 05       		.uleb128 .LEHE108-.LEHB108
 3204 01bf 00       		.uleb128 0
 3205 01c0 00       		.uleb128 0
 3206 01c1 C202     		.uleb128 .LEHB109-.LFB1276
 3207 01c3 34       		.uleb128 .LEHE109-.LEHB109
 3208 01c4 9003     		.uleb128 .L209-.LFB1276
 3209 01c6 00       		.uleb128 0
 3210 01c7 F602     		.uleb128 .LEHB110-.LFB1276
 3211 01c9 05       		.uleb128 .LEHE110-.LEHB110
 3212 01ca 00       		.uleb128 0
 3213 01cb 00       		.uleb128 0
 3214 01cc 8B03     		.uleb128 .LEHB111-.LFB1276
 3215 01ce 05       		.uleb128 .LEHE111-.LEHB111
 3216 01cf 00       		.uleb128 0
 3217 01d0 00       		.uleb128 0
 3218 01d1 9B03     		.uleb128 .LEHB112-.LFB1276
 3219 01d3 05       		.uleb128 .LEHE112-.LEHB112
 3220 01d4 00       		.uleb128 0
 3221 01d5 00       		.uleb128 0
 3222              	.LLSDACSE1276:
 3223 01d6 01       		.byte	0x1
 3224 01d7 00       		.byte	0
 3225              		.align 4
 3226 01d8 00000000 		.long	0
 3227              	
 3228              	.LLSDATT1276:
 3229              		.text
 3231              		.section	.rodata.str1.1
 3232              	.LC19:
 3233 0093 3A303430 		.string	":040BE10075820022F8\n"
 3233      42453130 
 3233      30373538 
 3233      32303032 
 3233      3246380A 
 3234              		.section	.rodata.str1.8
 3235 01f6 0000     		.align 8
 3236              	.LC20:
 3237 01f8 556E6861 		.string	"Unhandled exception in CHECK_EQUAL(HEX_BAD_CHECKSUM, status)"
 3237      6E646C65 
 3237      64206578 
 3237      63657074 
 3237      696F6E20 
 3238              		.text
 3239              		.align 2
 3240              		.p2align 4,,15
 3241              		.globl	_ZNK25TestHexIO_testBadChecksum7RunImplEv
 3243              	_ZNK25TestHexIO_testBadChecksum7RunImplEv:
 3244              	.LFB1280:
 3245              		.cfi_startproc
 3246              		.cfi_personality 0x9b,DW.ref.__gxx_personality_v0
 3247              		.cfi_lsda 0x1b,.LLSDA1280
 3248 0b60 4154     		pushq	%r12
 3249              		.cfi_def_cfa_offset 16
 3250              		.cfi_offset 12, -16
 3251 0b62 55       		pushq	%rbp
 3252              		.cfi_def_cfa_offset 24
 3253              		.cfi_offset 6, -24
 3254 0b63 31C9     		xorl	%ecx, %ecx
 3255 0b65 53       		pushq	%rbx
 3256              		.cfi_def_cfa_offset 32
 3257              		.cfi_offset 3, -32
 3258 0b66 31D2     		xorl	%edx, %edx
 3259 0b68 BE000400 		movl	$1024, %esi
 3259      00
 3260 0b6d 4883EC60 		subq	$96, %rsp
 3261              		.cfi_def_cfa_offset 128
 3262 0b71 488D6C24 		leaq	16(%rsp), %rbp
 3262      10
 3263 0b76 C7442408 		movl	$0, 8(%rsp)
 3263      00000000 
 3264 0b7e 64488B04 		movq	%fs:40, %rax
 3264      25280000 
 3264      00
 3265 0b87 48894424 		movq	%rax, 88(%rsp)
 3265      58
 3266 0b8c 31C0     		xorl	%eax, %eax
 3267 0b8e 4889EF   		movq	%rbp, %rdi
 3268              	.LEHB113:
 3269 0b91 E8000000 		call	bufInitialise@PLT
 3269      00
 3270              	.LEHE113:
 3271 0b96 89442404 		movl	%eax, 4(%rsp)
 3272              	.LEHB114:
 3273 0b9a E8000000 		call	_ZN8UnitTest11CurrentTest7DetailsEv@PLT
 3273      00
 3274 0b9f 488D5C24 		leaq	48(%rsp), %rbx
 3274      30
 3275 0ba4 488B30   		movq	(%rax), %rsi
 3276 0ba7 BAA70000 		movl	$167, %edx
 3276      00
 3277 0bac 4889DF   		movq	%rbx, %rdi
 3278 0baf E8000000 		call	_ZN8UnitTest11TestDetailsC1ERKS0_i@PLT
 3278      00
 3279 0bb4 C744240C 		movl	$0, 12(%rsp)
 3279      00000000 
 3280 0bbc E8000000 		call	_ZN8UnitTest11CurrentTest7ResultsEv@PLT
 3280      00
 3281 0bc1 488B38   		movq	(%rax), %rdi
 3282 0bc4 488D5424 		leaq	4(%rsp), %rdx
 3282      04
 3283 0bc9 488D7424 		leaq	12(%rsp), %rsi
 3283      0C
 3284 0bce 4889D9   		movq	%rbx, %rcx
 3285 0bd1 E8000000 		call	_ZN8UnitTest10CheckEqualI12BufferStatusS1_EEvRNS_11TestResultsERKT_RKT0_RKNS_11TestDetailsE
 3285      00
 3286              	.LEHE114:
 3287              	.L217:
 3288 0bd6 4883EC08 		subq	$8, %rsp
 3289              		.cfi_def_cfa_offset 136
 3290 0bda 488D3D00 		leaq	.LC19(%rip), %rdi
 3290      000000
 3291 0be1 4889EA   		movq	%rbp, %rdx
 3292 0be4 6A00     		pushq	$0
 3293              		.cfi_def_cfa_offset 144
 3294 0be6 31C9     		xorl	%ecx, %ecx
 3295 0be8 31F6     		xorl	%esi, %esi
 3296 0bea 4C8D4C24 		leaq	19(%rsp), %r9
 3296      13
 3297 0bef 4C8D4424 		leaq	24(%rsp), %r8
 3297      18
 3298              	.LEHB115:
 3299 0bf4 E8000000 		call	bufProcessLine@PLT
 3299      00
 3300              	.LEHE115:
 3301 0bf9 89442414 		movl	%eax, 20(%rsp)
 3302 0bfd 58       		popq	%rax
 3303              		.cfi_def_cfa_offset 136
 3304 0bfe 5A       		popq	%rdx
 3305              		.cfi_def_cfa_offset 128
 3306              	.LEHB116:
 3307 0bff E8000000 		call	_ZN8UnitTest11CurrentTest7DetailsEv@PLT
 3307      00
 3308 0c04 488B30   		movq	(%rax), %rsi
 3309 0c07 BAA90000 		movl	$169, %edx
 3309      00
 3310 0c0c 4889DF   		movq	%rbx, %rdi
 3311 0c0f E8000000 		call	_ZN8UnitTest11TestDetailsC1ERKS0_i@PLT
 3311      00
 3312 0c14 C744240C 		movl	$16, 12(%rsp)
 3312      10000000 
 3313 0c1c E8000000 		call	_ZN8UnitTest11CurrentTest7ResultsEv@PLT
 3313      00
 3314 0c21 488B38   		movq	(%rax), %rdi
 3315 0c24 488D5424 		leaq	4(%rsp), %rdx
 3315      04
 3316 0c29 488D7424 		leaq	12(%rsp), %rsi
 3316      0C
 3317 0c2e 4889D9   		movq	%rbx, %rcx
 3318 0c31 E8000000 		call	_ZN8UnitTest10CheckEqualI12BufferStatusS1_EEvRNS_11TestResultsERKT_RKT0_RKNS_11TestDetailsE
 3318      00
 3319              	.LEHE116:
 3320              	.L220:
 3321 0c36 4889EF   		movq	%rbp, %rdi
 3322              	.LEHB117:
 3323 0c39 E8000000 		call	bufDestroy@PLT
 3323      00
 3324              	.LEHE117:
 3325 0c3e 488B4424 		movq	88(%rsp), %rax
 3325      58
 3326 0c43 64483304 		xorq	%fs:40, %rax
 3326      25280000 
 3326      00
 3327 0c4c 7509     		jne	.L229
 3328 0c4e 4883C460 		addq	$96, %rsp
 3329              		.cfi_remember_state
 3330              		.cfi_def_cfa_offset 32
 3331 0c52 5B       		popq	%rbx
 3332              		.cfi_def_cfa_offset 24
 3333 0c53 5D       		popq	%rbp
 3334              		.cfi_def_cfa_offset 16
 3335 0c54 415C     		popq	%r12
 3336              		.cfi_def_cfa_offset 8
 3337 0c56 C3       		ret
 3338              	.L229:
 3339              		.cfi_restore_state
 3340 0c57 E8000000 		call	__stack_chk_fail@PLT
 3340      00
 3341              	.L225:
 3342 0c5c 4889C7   		movq	%rax, %rdi
 3343 0c5f E8000000 		call	__cxa_begin_catch@PLT
 3343      00
 3344              	.LEHB118:
 3345 0c64 E8000000 		call	_ZN8UnitTest11CurrentTest7ResultsEv@PLT
 3345      00
 3346 0c69 4C8B20   		movq	(%rax), %r12
 3347 0c6c E8000000 		call	_ZN8UnitTest11CurrentTest7DetailsEv@PLT
 3347      00
 3348 0c71 488B30   		movq	(%rax), %rsi
 3349 0c74 BAA90000 		movl	$169, %edx
 3349      00
 3350 0c79 4889DF   		movq	%rbx, %rdi
 3351 0c7c E8000000 		call	_ZN8UnitTest11TestDetailsC1ERKS0_i@PLT
 3351      00
 3352 0c81 488D1500 		leaq	.LC20(%rip), %rdx
 3352      000000
 3353 0c88 4889DE   		movq	%rbx, %rsi
 3354 0c8b 4C89E7   		movq	%r12, %rdi
 3355 0c8e E8000000 		call	_ZN8UnitTest11TestResults13OnTestFailureERKNS_11TestDetailsEPKc@PLT
 3355      00
 3356              	.LEHE118:
 3357              	.LEHB119:
 3358 0c93 E8000000 		call	__cxa_end_catch@PLT
 3358      00
 3359              	.LEHE119:
 3360 0c98 EB9C     		jmp	.L220
 3361              	.L223:
 3362 0c9a 4889C7   		movq	%rax, %rdi
 3363 0c9d E8000000 		call	__cxa_begin_catch@PLT
 3363      00
 3364              	.LEHB120:
 3365 0ca2 E8000000 		call	_ZN8UnitTest11CurrentTest7ResultsEv@PLT
 3365      00
 3366 0ca7 4C8B20   		movq	(%rax), %r12
 3367 0caa E8000000 		call	_ZN8UnitTest11CurrentTest7DetailsEv@PLT
 3367      00
 3368 0caf 488D5C24 		leaq	48(%rsp), %rbx
 3368      30
 3369 0cb4 488B30   		movq	(%rax), %rsi
 3370 0cb7 BAA70000 		movl	$167, %edx
 3370      00
 3371 0cbc 4889DF   		movq	%rbx, %rdi
 3372 0cbf E8000000 		call	_ZN8UnitTest11TestDetailsC1ERKS0_i@PLT
 3372      00
 3373 0cc4 488D1500 		leaq	.LC5(%rip), %rdx
 3373      000000
 3374 0ccb 4889DE   		movq	%rbx, %rsi
 3375 0cce 4C89E7   		movq	%r12, %rdi
 3376 0cd1 E8000000 		call	_ZN8UnitTest11TestResults13OnTestFailureERKNS_11TestDetailsEPKc@PLT
 3376      00
 3377              	.LEHE120:
 3378              	.LEHB121:
 3379 0cd6 E8000000 		call	__cxa_end_catch@PLT
 3379      00
 3380              	.LEHE121:
 3381 0cdb E9F6FEFF 		jmp	.L217
 3381      FF
 3382              	.L226:
 3383 0ce0 4889C3   		movq	%rax, %rbx
 3384 0ce3 E8000000 		call	__cxa_end_catch@PLT
 3384      00
 3385 0ce8 4889DF   		movq	%rbx, %rdi
 3386              	.LEHB122:
 3387 0ceb E8000000 		call	_Unwind_Resume@PLT
 3387      00
 3388              	.LEHE122:
 3389              	.L224:
 3390 0cf0 4889C3   		movq	%rax, %rbx
 3391 0cf3 E8000000 		call	__cxa_end_catch@PLT
 3391      00
 3392 0cf8 4889DF   		movq	%rbx, %rdi
 3393              	.LEHB123:
 3394 0cfb E8000000 		call	_Unwind_Resume@PLT
 3394      00
 3395              	.LEHE123:
 3396              		.cfi_endproc
 3397              	.LFE1280:
 3398              		.section	.gcc_except_table
 3399              		.align 4
 3400              	.LLSDA1280:
 3401 01dc FF       		.byte	0xff
 3402 01dd 9B       		.byte	0x9b
 3403 01de 41       		.uleb128 .LLSDATT1280-.LLSDATTD1280
 3404              	.LLSDATTD1280:
 3405 01df 01       		.byte	0x1
 3406 01e0 39       		.uleb128 .LLSDACSE1280-.LLSDACSB1280
 3407              	.LLSDACSB1280:
 3408 01e1 31       		.uleb128 .LEHB113-.LFB1280
 3409 01e2 05       		.uleb128 .LEHE113-.LEHB113
 3410 01e3 00       		.uleb128 0
 3411 01e4 00       		.uleb128 0
 3412 01e5 3A       		.uleb128 .LEHB114-.LFB1280
 3413 01e6 3C       		.uleb128 .LEHE114-.LEHB114
 3414 01e7 BA02     		.uleb128 .L223-.LFB1280
 3415 01e9 01       		.uleb128 0x1
 3416 01ea 9401     		.uleb128 .LEHB115-.LFB1280
 3417 01ec 05       		.uleb128 .LEHE115-.LEHB115
 3418 01ed 00       		.uleb128 0
 3419 01ee 00       		.uleb128 0
 3420 01ef 9F01     		.uleb128 .LEHB116-.LFB1280
 3421 01f1 37       		.uleb128 .LEHE116-.LEHB116
 3422 01f2 FC01     		.uleb128 .L225-.LFB1280
 3423 01f4 01       		.uleb128 0x1
 3424 01f5 D901     		.uleb128 .LEHB117-.LFB1280
 3425 01f7 05       		.uleb128 .LEHE117-.LEHB117
 3426 01f8 00       		.uleb128 0
 3427 01f9 00       		.uleb128 0
 3428 01fa 8402     		.uleb128 .LEHB118-.LFB1280
 3429 01fc 2F       		.uleb128 .LEHE118-.LEHB118
 3430 01fd 8003     		.uleb128 .L226-.LFB1280
 3431 01ff 00       		.uleb128 0
 3432 0200 B302     		.uleb128 .LEHB119-.LFB1280
 3433 0202 05       		.uleb128 .LEHE119-.LEHB119
 3434 0203 00       		.uleb128 0
 3435 0204 00       		.uleb128 0
 3436 0205 C202     		.uleb128 .LEHB120-.LFB1280
 3437 0207 34       		.uleb128 .LEHE120-.LEHB120
 3438 0208 9003     		.uleb128 .L224-.LFB1280
 3439 020a 00       		.uleb128 0
 3440 020b F602     		.uleb128 .LEHB121-.LFB1280
 3441 020d 05       		.uleb128 .LEHE121-.LEHB121
 3442 020e 00       		.uleb128 0
 3443 020f 00       		.uleb128 0
 3444 0210 8B03     		.uleb128 .LEHB122-.LFB1280
 3445 0212 05       		.uleb128 .LEHE122-.LEHB122
 3446 0213 00       		.uleb128 0
 3447 0214 00       		.uleb128 0
 3448 0215 9B03     		.uleb128 .LEHB123-.LFB1280
 3449 0217 05       		.uleb128 .LEHE123-.LEHB123
 3450 0218 00       		.uleb128 0
 3451 0219 00       		.uleb128 0
 3452              	.LLSDACSE1280:
 3453 021a 01       		.byte	0x1
 3454 021b 00       		.byte	0
 3455              		.align 4
 3456 021c 00000000 		.long	0
 3457              	
 3458              	.LLSDATT1280:
 3459              		.text
 3461              		.section	.rodata.str1.1
 3462              	.LC21:
 3463 00a8 3A303430 		.string	":040BE10075820022F7 \n"
 3463      42453130 
 3463      30373538 
 3463      32303032 
 3463      32463720 
 3464              		.section	.rodata.str1.8
 3465 0235 000000   		.align 8
 3466              	.LC22:
 3467 0238 556E6861 		.string	"Unhandled exception in CHECK_EQUAL(HEX_CORRUPT_LINE, status)"
 3467      6E646C65 
 3467      64206578 
 3467      63657074 
 3467      696F6E20 
 3468              		.text
 3469              		.align 2
 3470              		.p2align 4,,15
 3471              		.globl	_ZNK25TestHexIO_testCorruptLine7RunImplEv
 3473              	_ZNK25TestHexIO_testCorruptLine7RunImplEv:
 3474              	.LFB1284:
 3475              		.cfi_startproc
 3476              		.cfi_personality 0x9b,DW.ref.__gxx_personality_v0
 3477              		.cfi_lsda 0x1b,.LLSDA1284
 3478 0d00 4154     		pushq	%r12
 3479              		.cfi_def_cfa_offset 16
 3480              		.cfi_offset 12, -16
 3481 0d02 55       		pushq	%rbp
 3482              		.cfi_def_cfa_offset 24
 3483              		.cfi_offset 6, -24
 3484 0d03 31C9     		xorl	%ecx, %ecx
 3485 0d05 53       		pushq	%rbx
 3486              		.cfi_def_cfa_offset 32
 3487              		.cfi_offset 3, -32
 3488 0d06 31D2     		xorl	%edx, %edx
 3489 0d08 BE000400 		movl	$1024, %esi
 3489      00
 3490 0d0d 4883EC60 		subq	$96, %rsp
 3491              		.cfi_def_cfa_offset 128
 3492 0d11 488D6C24 		leaq	16(%rsp), %rbp
 3492      10
 3493 0d16 C7442408 		movl	$0, 8(%rsp)
 3493      00000000 
 3494 0d1e 64488B04 		movq	%fs:40, %rax
 3494      25280000 
 3494      00
 3495 0d27 48894424 		movq	%rax, 88(%rsp)
 3495      58
 3496 0d2c 31C0     		xorl	%eax, %eax
 3497 0d2e 4889EF   		movq	%rbp, %rdi
 3498              	.LEHB124:
 3499 0d31 E8000000 		call	bufInitialise@PLT
 3499      00
 3500              	.LEHE124:
 3501 0d36 89442404 		movl	%eax, 4(%rsp)
 3502              	.LEHB125:
 3503 0d3a E8000000 		call	_ZN8UnitTest11CurrentTest7DetailsEv@PLT
 3503      00
 3504 0d3f 488D5C24 		leaq	48(%rsp), %rbx
 3504      30
 3505 0d44 488B30   		movq	(%rax), %rsi
 3506 0d47 BAB40000 		movl	$180, %edx
 3506      00
 3507 0d4c 4889DF   		movq	%rbx, %rdi
 3508 0d4f E8000000 		call	_ZN8UnitTest11TestDetailsC1ERKS0_i@PLT
 3508      00
 3509 0d54 C744240C 		movl	$0, 12(%rsp)
 3509      00000000 
 3510 0d5c E8000000 		call	_ZN8UnitTest11CurrentTest7ResultsEv@PLT
 3510      00
 3511 0d61 488B38   		movq	(%rax), %rdi
 3512 0d64 488D5424 		leaq	4(%rsp), %rdx
 3512      04
 3513 0d69 488D7424 		leaq	12(%rsp), %rsi
 3513      0C
 3514 0d6e 4889D9   		movq	%rbx, %rcx
 3515 0d71 E8000000 		call	_ZN8UnitTest10CheckEqualI12BufferStatusS1_EEvRNS_11TestResultsERKT_RKT0_RKNS_11TestDetailsE
 3515      00
 3516              	.LEHE125:
 3517              	.L232:
 3518 0d76 4883EC08 		subq	$8, %rsp
 3519              		.cfi_def_cfa_offset 136
 3520 0d7a 488D3D00 		leaq	.LC21(%rip), %rdi
 3520      000000
 3521 0d81 4889EA   		movq	%rbp, %rdx
 3522 0d84 6A00     		pushq	$0
 3523              		.cfi_def_cfa_offset 144
 3524 0d86 31C9     		xorl	%ecx, %ecx
 3525 0d88 31F6     		xorl	%esi, %esi
 3526 0d8a 4C8D4C24 		leaq	19(%rsp), %r9
 3526      13
 3527 0d8f 4C8D4424 		leaq	24(%rsp), %r8
 3527      18
 3528              	.LEHB126:
 3529 0d94 E8000000 		call	bufProcessLine@PLT
 3529      00
 3530              	.LEHE126:
 3531 0d99 89442414 		movl	%eax, 20(%rsp)
 3532 0d9d 58       		popq	%rax
 3533              		.cfi_def_cfa_offset 136
 3534 0d9e 5A       		popq	%rdx
 3535              		.cfi_def_cfa_offset 128
 3536              	.LEHB127:
 3537 0d9f E8000000 		call	_ZN8UnitTest11CurrentTest7DetailsEv@PLT
 3537      00
 3538 0da4 488B30   		movq	(%rax), %rsi
 3539 0da7 BAB60000 		movl	$182, %edx
 3539      00
 3540 0dac 4889DF   		movq	%rbx, %rdi
 3541 0daf E8000000 		call	_ZN8UnitTest11TestDetailsC1ERKS0_i@PLT
 3541      00
 3542 0db4 C744240C 		movl	$17, 12(%rsp)
 3542      11000000 
 3543 0dbc E8000000 		call	_ZN8UnitTest11CurrentTest7ResultsEv@PLT
 3543      00
 3544 0dc1 488B38   		movq	(%rax), %rdi
 3545 0dc4 488D5424 		leaq	4(%rsp), %rdx
 3545      04
 3546 0dc9 488D7424 		leaq	12(%rsp), %rsi
 3546      0C
 3547 0dce 4889D9   		movq	%rbx, %rcx
 3548 0dd1 E8000000 		call	_ZN8UnitTest10CheckEqualI12BufferStatusS1_EEvRNS_11TestResultsERKT_RKT0_RKNS_11TestDetailsE
 3548      00
 3549              	.LEHE127:
 3550              	.L235:
 3551 0dd6 4889EF   		movq	%rbp, %rdi
 3552              	.LEHB128:
 3553 0dd9 E8000000 		call	bufDestroy@PLT
 3553      00
 3554              	.LEHE128:
 3555 0dde 488B4424 		movq	88(%rsp), %rax
 3555      58
 3556 0de3 64483304 		xorq	%fs:40, %rax
 3556      25280000 
 3556      00
 3557 0dec 7509     		jne	.L244
 3558 0dee 4883C460 		addq	$96, %rsp
 3559              		.cfi_remember_state
 3560              		.cfi_def_cfa_offset 32
 3561 0df2 5B       		popq	%rbx
 3562              		.cfi_def_cfa_offset 24
 3563 0df3 5D       		popq	%rbp
 3564              		.cfi_def_cfa_offset 16
 3565 0df4 415C     		popq	%r12
 3566              		.cfi_def_cfa_offset 8
 3567 0df6 C3       		ret
 3568              	.L244:
 3569              		.cfi_restore_state
 3570 0df7 E8000000 		call	__stack_chk_fail@PLT
 3570      00
 3571              	.L240:
 3572 0dfc 4889C7   		movq	%rax, %rdi
 3573 0dff E8000000 		call	__cxa_begin_catch@PLT
 3573      00
 3574              	.LEHB129:
 3575 0e04 E8000000 		call	_ZN8UnitTest11CurrentTest7ResultsEv@PLT
 3575      00
 3576 0e09 4C8B20   		movq	(%rax), %r12
 3577 0e0c E8000000 		call	_ZN8UnitTest11CurrentTest7DetailsEv@PLT
 3577      00
 3578 0e11 488B30   		movq	(%rax), %rsi
 3579 0e14 BAB60000 		movl	$182, %edx
 3579      00
 3580 0e19 4889DF   		movq	%rbx, %rdi
 3581 0e1c E8000000 		call	_ZN8UnitTest11TestDetailsC1ERKS0_i@PLT
 3581      00
 3582 0e21 488D1500 		leaq	.LC22(%rip), %rdx
 3582      000000
 3583 0e28 4889DE   		movq	%rbx, %rsi
 3584 0e2b 4C89E7   		movq	%r12, %rdi
 3585 0e2e E8000000 		call	_ZN8UnitTest11TestResults13OnTestFailureERKNS_11TestDetailsEPKc@PLT
 3585      00
 3586              	.LEHE129:
 3587              	.LEHB130:
 3588 0e33 E8000000 		call	__cxa_end_catch@PLT
 3588      00
 3589              	.LEHE130:
 3590 0e38 EB9C     		jmp	.L235
 3591              	.L238:
 3592 0e3a 4889C7   		movq	%rax, %rdi
 3593 0e3d E8000000 		call	__cxa_begin_catch@PLT
 3593      00
 3594              	.LEHB131:
 3595 0e42 E8000000 		call	_ZN8UnitTest11CurrentTest7ResultsEv@PLT
 3595      00
 3596 0e47 4C8B20   		movq	(%rax), %r12
 3597 0e4a E8000000 		call	_ZN8UnitTest11CurrentTest7DetailsEv@PLT
 3597      00
 3598 0e4f 488D5C24 		leaq	48(%rsp), %rbx
 3598      30
 3599 0e54 488B30   		movq	(%rax), %rsi
 3600 0e57 BAB40000 		movl	$180, %edx
 3600      00
 3601 0e5c 4889DF   		movq	%rbx, %rdi
 3602 0e5f E8000000 		call	_ZN8UnitTest11TestDetailsC1ERKS0_i@PLT
 3602      00
 3603 0e64 488D1500 		leaq	.LC5(%rip), %rdx
 3603      000000
 3604 0e6b 4889DE   		movq	%rbx, %rsi
 3605 0e6e 4C89E7   		movq	%r12, %rdi
 3606 0e71 E8000000 		call	_ZN8UnitTest11TestResults13OnTestFailureERKNS_11TestDetailsEPKc@PLT
 3606      00
 3607              	.LEHE131:
 3608              	.LEHB132:
 3609 0e76 E8000000 		call	__cxa_end_catch@PLT
 3609      00
 3610              	.LEHE132:
 3611 0e7b E9F6FEFF 		jmp	.L232
 3611      FF
 3612              	.L241:
 3613 0e80 4889C3   		movq	%rax, %rbx
 3614 0e83 E8000000 		call	__cxa_end_catch@PLT
 3614      00
 3615 0e88 4889DF   		movq	%rbx, %rdi
 3616              	.LEHB133:
 3617 0e8b E8000000 		call	_Unwind_Resume@PLT
 3617      00
 3618              	.LEHE133:
 3619              	.L239:
 3620 0e90 4889C3   		movq	%rax, %rbx
 3621 0e93 E8000000 		call	__cxa_end_catch@PLT
 3621      00
 3622 0e98 4889DF   		movq	%rbx, %rdi
 3623              	.LEHB134:
 3624 0e9b E8000000 		call	_Unwind_Resume@PLT
 3624      00
 3625              	.LEHE134:
 3626              		.cfi_endproc
 3627              	.LFE1284:
 3628              		.section	.gcc_except_table
 3629              		.align 4
 3630              	.LLSDA1284:
 3631 0220 FF       		.byte	0xff
 3632 0221 9B       		.byte	0x9b
 3633 0222 41       		.uleb128 .LLSDATT1284-.LLSDATTD1284
 3634              	.LLSDATTD1284:
 3635 0223 01       		.byte	0x1
 3636 0224 39       		.uleb128 .LLSDACSE1284-.LLSDACSB1284
 3637              	.LLSDACSB1284:
 3638 0225 31       		.uleb128 .LEHB124-.LFB1284
 3639 0226 05       		.uleb128 .LEHE124-.LEHB124
 3640 0227 00       		.uleb128 0
 3641 0228 00       		.uleb128 0
 3642 0229 3A       		.uleb128 .LEHB125-.LFB1284
 3643 022a 3C       		.uleb128 .LEHE125-.LEHB125
 3644 022b BA02     		.uleb128 .L238-.LFB1284
 3645 022d 01       		.uleb128 0x1
 3646 022e 9401     		.uleb128 .LEHB126-.LFB1284
 3647 0230 05       		.uleb128 .LEHE126-.LEHB126
 3648 0231 00       		.uleb128 0
 3649 0232 00       		.uleb128 0
 3650 0233 9F01     		.uleb128 .LEHB127-.LFB1284
 3651 0235 37       		.uleb128 .LEHE127-.LEHB127
 3652 0236 FC01     		.uleb128 .L240-.LFB1284
 3653 0238 01       		.uleb128 0x1
 3654 0239 D901     		.uleb128 .LEHB128-.LFB1284
 3655 023b 05       		.uleb128 .LEHE128-.LEHB128
 3656 023c 00       		.uleb128 0
 3657 023d 00       		.uleb128 0
 3658 023e 8402     		.uleb128 .LEHB129-.LFB1284
 3659 0240 2F       		.uleb128 .LEHE129-.LEHB129
 3660 0241 8003     		.uleb128 .L241-.LFB1284
 3661 0243 00       		.uleb128 0
 3662 0244 B302     		.uleb128 .LEHB130-.LFB1284
 3663 0246 05       		.uleb128 .LEHE130-.LEHB130
 3664 0247 00       		.uleb128 0
 3665 0248 00       		.uleb128 0
 3666 0249 C202     		.uleb128 .LEHB131-.LFB1284
 3667 024b 34       		.uleb128 .LEHE131-.LEHB131
 3668 024c 9003     		.uleb128 .L239-.LFB1284
 3669 024e 00       		.uleb128 0
 3670 024f F602     		.uleb128 .LEHB132-.LFB1284
 3671 0251 05       		.uleb128 .LEHE132-.LEHB132
 3672 0252 00       		.uleb128 0
 3673 0253 00       		.uleb128 0
 3674 0254 8B03     		.uleb128 .LEHB133-.LFB1284
 3675 0256 05       		.uleb128 .LEHE133-.LEHB133
 3676 0257 00       		.uleb128 0
 3677 0258 00       		.uleb128 0
 3678 0259 9B03     		.uleb128 .LEHB134-.LFB1284
 3679 025b 05       		.uleb128 .LEHE134-.LEHB134
 3680 025c 00       		.uleb128 0
 3681 025d 00       		.uleb128 0
 3682              	.LLSDACSE1284:
 3683 025e 01       		.byte	0x1
 3684 025f 00       		.byte	0
 3685              		.align 4
 3686 0260 00000000 		.long	0
 3687              	
 3688              	.LLSDATT1284:
 3689              		.text
 3691              		.section	.text._ZN8UnitTest10CheckEqualIihEEvRNS_11TestResultsERKT_RKT0_RKNS_11TestDetailsE,"axG",
 3692              		.p2align 4,,15
 3693              		.weak	_ZN8UnitTest10CheckEqualIihEEvRNS_11TestResultsERKT_RKT0_RKNS_11TestDetailsE
 3695              	_ZN8UnitTest10CheckEqualIihEEvRNS_11TestResultsERKT_RKT0_RKNS_11TestDetailsE:
 3696              	.LFB1327:
 3697              		.cfi_startproc
 3698              		.cfi_personality 0x9b,DW.ref.__gxx_personality_v0
 3699              		.cfi_lsda 0x1b,.LLSDA1327
 3700 0000 4157     		pushq	%r15
 3701              		.cfi_def_cfa_offset 16
 3702              		.cfi_offset 15, -16
 3703 0002 4156     		pushq	%r14
 3704              		.cfi_def_cfa_offset 24
 3705              		.cfi_offset 14, -24
 3706 0004 4155     		pushq	%r13
 3707              		.cfi_def_cfa_offset 32
 3708              		.cfi_offset 13, -32
 3709 0006 4154     		pushq	%r12
 3710              		.cfi_def_cfa_offset 40
 3711              		.cfi_offset 12, -40
 3712 0008 55       		pushq	%rbp
 3713              		.cfi_def_cfa_offset 48
 3714              		.cfi_offset 6, -48
 3715 0009 53       		pushq	%rbx
 3716              		.cfi_def_cfa_offset 56
 3717              		.cfi_offset 3, -56
 3718 000a 4881ECC8 		subq	$456, %rsp
 3718      010000
 3719              		.cfi_def_cfa_offset 512
 3720 0011 64488B04 		movq	%fs:40, %rax
 3720      25280000 
 3720      00
 3721 001a 48898424 		movq	%rax, 440(%rsp)
 3721      B8010000 
 3722 0022 31C0     		xorl	%eax, %eax
 3723 0024 0FB602   		movzbl	(%rdx), %eax
 3724 0027 48893C24 		movq	%rdi, (%rsp)
 3725 002b 3906     		cmpl	%eax, (%rsi)
 3726 002d 48894C24 		movq	%rcx, 8(%rsp)
 3726      08
 3727 0032 0F844102 		je	.L245
 3727      0000
 3728 0038 488D5C24 		leaq	32(%rsp), %rbx
 3728      20
 3729 003d 4C8D2D00 		leaq	24+_ZTCN8UnitTest15MemoryOutStreamE0_So(%rip), %r13
 3729      000000
 3730 0044 4989F4   		movq	%rsi, %r12
 3731 0047 4889D5   		movq	%rdx, %rbp
 3732 004a 4C8DB390 		leaq	144(%rbx), %r14
 3732      000000
 3733 0051 4C89F7   		movq	%r14, %rdi
 3734 0054 E8000000 		call	_ZNSt8ios_baseC2Ev@PLT
 3734      00
 3735 0059 498D4528 		leaq	40(%r13), %rax
 3736 005d 31F6     		xorl	%esi, %esi
 3737 005f 4C89F7   		movq	%r14, %rdi
 3738 0062 48C78424 		movq	$0, 392(%rsp)
 3738      88010000 
 3738      00000000 
 3739 006e C6842490 		movb	$0, 400(%rsp)
 3739      01000000 
 3740 0076 C6842491 		movb	$0, 401(%rsp)
 3740      01000000 
 3741 007e 48C78424 		movq	$0, 408(%rsp)
 3741      98010000 
 3741      00000000 
 3742 008a 48C78424 		movq	$0, 416(%rsp)
 3742      A0010000 
 3742      00000000 
 3743 0096 48C78424 		movq	$0, 424(%rsp)
 3743      A8010000 
 3743      00000000 
 3744 00a2 48C78424 		movq	$0, 432(%rsp)
 3744      B0010000 
 3744      00000000 
 3745 00ae 4C896C24 		movq	%r13, 32(%rsp)
 3745      20
 3746 00b3 48898424 		movq	%rax, 176(%rsp)
 3746      B0000000 
 3747              	.LEHB135:
 3748 00bb E8000000 		call	_ZNSt9basic_iosIcSt11char_traitsIcEE4initEPSt15basic_streambufIcS1_E@PLT
 3748      00
 3749              	.LEHE135:
 3750 00c0 488D0500 		leaq	24+_ZTCN8UnitTest15MemoryOutStreamE0_NSt7__cxx1119basic_ostringstreamIcSt11char_traitsIcESaIc
 3750      000000
 3751 00c7 660FEFC0 		pxor	%xmm0, %xmm0
 3752 00cb 488D7B40 		leaq	64(%rbx), %rdi
 3753 00cf 48894424 		movq	%rax, 32(%rsp)
 3753      20
 3754 00d4 4883C028 		addq	$40, %rax
 3755 00d8 48898424 		movq	%rax, 176(%rsp)
 3755      B0000000 
 3756 00e0 488D0500 		leaq	16+_ZTVSt15basic_streambufIcSt11char_traitsIcEE(%rip), %rax
 3756      000000
 3757 00e7 0F294424 		movaps	%xmm0, 48(%rsp)
 3757      30
 3758 00ec 48894424 		movq	%rax, 40(%rsp)
 3758      28
 3759 00f1 0F294424 		movaps	%xmm0, 64(%rsp)
 3759      40
 3760 00f6 0F294424 		movaps	%xmm0, 80(%rsp)
 3760      50
 3761 00fb E8000000 		call	_ZNSt6localeC1Ev@PLT
 3761      00
 3762 0100 488D0500 		leaq	16+_ZTVNSt7__cxx1115basic_stringbufIcSt11char_traitsIcESaIcEEE(%rip), %rax
 3762      000000
 3763 0107 488D7308 		leaq	8(%rbx), %rsi
 3764 010b 48894424 		movq	%rax, 40(%rsp)
 3764      28
 3765 0110 488D4360 		leaq	96(%rbx), %rax
 3766 0114 C7442468 		movl	$16, 104(%rsp)
 3766      10000000 
 3767 011c 48C74424 		movq	$0, 120(%rsp)
 3767      78000000 
 3767      00
 3768 0125 C6842480 		movb	$0, 128(%rsp)
 3768      00000000 
 3769 012d 48894424 		movq	%rax, 112(%rsp)
 3769      70
 3770 0132 488B4424 		movq	32(%rsp), %rax
 3770      20
 3771 0137 488B78E8 		movq	-24(%rax), %rdi
 3772 013b 4801DF   		addq	%rbx, %rdi
 3773              	.LEHB136:
 3774 013e E8000000 		call	_ZNSt9basic_iosIcSt11char_traitsIcEE4initEPSt15basic_streambufIcS1_E@PLT
 3774      00
 3775              	.LEHE136:
 3776 0143 4C8D3D00 		leaq	24+_ZTVN8UnitTest15MemoryOutStreamE(%rip), %r15
 3776      000000
 3777 014a 488D8380 		leaq	128(%rbx), %rax
 3777      000000
 3778 0151 488D3500 		leaq	.LC0(%rip), %rsi
 3778      000000
 3779 0158 BA090000 		movl	$9, %edx
 3779      00
 3780 015d 4889DF   		movq	%rbx, %rdi
 3781 0160 48C78424 		movq	$0, 152(%rsp)
 3781      98000000 
 3781      00000000 
 3782 016c 4D8D7728 		leaq	40(%r15), %r14
 3783 0170 4C897C24 		movq	%r15, 32(%rsp)
 3783      20
 3784 0175 48898424 		movq	%rax, 144(%rsp)
 3784      90000000 
 3785 017d C68424A0 		movb	$0, 160(%rsp)
 3785      00000000 
 3786 0185 4C89B424 		movq	%r14, 176(%rsp)
 3786      B0000000 
 3787              	.LEHB137:
 3788 018d E8000000 		call	_ZSt16__ostream_insertIcSt11char_traitsIcEERSt13basic_ostreamIT_T0_ES6_PKS3_l@PLT
 3788      00
 3789 0192 418B3424 		movl	(%r12), %esi
 3790 0196 4889DF   		movq	%rbx, %rdi
 3791 0199 E8000000 		call	_ZNSolsEi@PLT
 3791      00
 3792 019e 488D3500 		leaq	.LC1(%rip), %rsi
 3792      000000
 3793 01a5 BA090000 		movl	$9, %edx
 3793      00
 3794 01aa 4889C7   		movq	%rax, %rdi
 3795 01ad 4989C4   		movq	%rax, %r12
 3796 01b0 E8000000 		call	_ZSt16__ostream_insertIcSt11char_traitsIcEERSt13basic_ostreamIT_T0_ES6_PKS3_l@PLT
 3796      00
 3797 01b5 0FB64500 		movzbl	0(%rbp), %eax
 3798 01b9 488D7424 		leaq	31(%rsp), %rsi
 3798      1F
 3799 01be BA010000 		movl	$1, %edx
 3799      00
 3800 01c3 4C89E7   		movq	%r12, %rdi
 3801 01c6 8844241F 		movb	%al, 31(%rsp)
 3802 01ca E8000000 		call	_ZSt16__ostream_insertIcSt11char_traitsIcEERSt13basic_ostreamIT_T0_ES6_PKS3_l@PLT
 3802      00
 3803 01cf 4889DF   		movq	%rbx, %rdi
 3804 01d2 E8000000 		call	_ZNK8UnitTest15MemoryOutStream7GetTextEv@PLT
 3804      00
 3805 01d7 488B7424 		movq	8(%rsp), %rsi
 3805      08
 3806 01dc 488B3C24 		movq	(%rsp), %rdi
 3807 01e0 4889C2   		movq	%rax, %rdx
 3808 01e3 E8000000 		call	_ZN8UnitTest11TestResults13OnTestFailureERKNS_11TestDetailsEPKc@PLT
 3808      00
 3809              	.LEHE137:
 3810 01e8 488BBC24 		movq	144(%rsp), %rdi
 3810      90000000 
 3811 01f0 488D8380 		leaq	128(%rbx), %rax
 3811      000000
 3812 01f7 4C897C24 		movq	%r15, 32(%rsp)
 3812      20
 3813 01fc 4C89B424 		movq	%r14, 176(%rsp)
 3813      B0000000 
 3814 0204 4839C7   		cmpq	%rax, %rdi
 3815 0207 7405     		je	.L251
 3816 0209 E8000000 		call	_ZdlPv@PLT
 3816      00
 3817              	.L251:
 3818 020e 488D0500 		leaq	64+_ZTCN8UnitTest15MemoryOutStreamE0_NSt7__cxx1119basic_ostringstreamIcSt11char_traitsIcESaIc
 3818      000000
 3819 0215 488B7C24 		movq	112(%rsp), %rdi
 3819      70
 3820 021a F30F7E05 		movq	.LC2(%rip), %xmm0
 3820      00000000 
 3821 0222 48898424 		movq	%rax, 176(%rsp)
 3821      B0000000 
 3822 022a 488D4360 		leaq	96(%rbx), %rax
 3823 022e 0F160500 		movhps	.LC3(%rip), %xmm0
 3823      000000
 3824 0235 4839C7   		cmpq	%rax, %rdi
 3825 0238 0F294424 		movaps	%xmm0, 32(%rsp)
 3825      20
 3826 023d 7405     		je	.L252
 3827 023f E8000000 		call	_ZdlPv@PLT
 3827      00
 3828              	.L252:
 3829 0244 488D0500 		leaq	16+_ZTVSt15basic_streambufIcSt11char_traitsIcEE(%rip), %rax
 3829      000000
 3830 024b 488D7B40 		leaq	64(%rbx), %rdi
 3831 024f 48894424 		movq	%rax, 40(%rsp)
 3831      28
 3832 0254 E8000000 		call	_ZNSt6localeD1Ev@PLT
 3832      00
 3833 0259 488D0500 		leaq	16+_ZTVSt9basic_iosIcSt11char_traitsIcEE(%rip), %rax
 3833      000000
 3834 0260 488DBB90 		leaq	144(%rbx), %rdi
 3834      000000
 3835 0267 4C896C24 		movq	%r13, 32(%rsp)
 3835      20
 3836 026c 48898424 		movq	%rax, 176(%rsp)
 3836      B0000000 
 3837              	.LEHB138:
 3838 0274 E8000000 		call	_ZNSt8ios_baseD2Ev@PLT
 3838      00
 3839              	.LEHE138:
 3840              	.L245:
 3841 0279 488B8424 		movq	440(%rsp), %rax
 3841      B8010000 
 3842 0281 64483304 		xorq	%fs:40, %rax
 3842      25280000 
 3842      00
 3843 028a 7512     		jne	.L261
 3844 028c 4881C4C8 		addq	$456, %rsp
 3844      010000
 3845              		.cfi_remember_state
 3846              		.cfi_def_cfa_offset 56
 3847 0293 5B       		popq	%rbx
 3848              		.cfi_def_cfa_offset 48
 3849 0294 5D       		popq	%rbp
 3850              		.cfi_def_cfa_offset 40
 3851 0295 415C     		popq	%r12
 3852              		.cfi_def_cfa_offset 32
 3853 0297 415D     		popq	%r13
 3854              		.cfi_def_cfa_offset 24
 3855 0299 415E     		popq	%r14
 3856              		.cfi_def_cfa_offset 16
 3857 029b 415F     		popq	%r15
 3858              		.cfi_def_cfa_offset 8
 3859 029d C3       		ret
 3860              	.L261:
 3861              		.cfi_restore_state
 3862 029e E8000000 		call	__stack_chk_fail@PLT
 3862      00
 3863              	.L256:
 3864 02a3 4889C5   		movq	%rax, %rbp
 3865              	.L249:
 3866 02a6 488D0500 		leaq	16+_ZTVSt9basic_iosIcSt11char_traitsIcEE(%rip), %rax
 3866      000000
 3867 02ad 488DBB90 		leaq	144(%rbx), %rdi
 3867      000000
 3868 02b4 48898424 		movq	%rax, 176(%rsp)
 3868      B0000000 
 3869 02bc E8000000 		call	_ZNSt8ios_baseD2Ev@PLT
 3869      00
 3870 02c1 4889EF   		movq	%rbp, %rdi
 3871              	.LEHB139:
 3872 02c4 E8000000 		call	_Unwind_Resume@PLT
 3872      00
 3873              	.LEHE139:
 3874              	.L255:
 3875 02c9 4889C5   		movq	%rax, %rbp
 3876 02cc 4889DF   		movq	%rbx, %rdi
 3877 02cf E8000000 		call	_ZN8UnitTest15MemoryOutStreamD1Ev
 3877      00
 3878 02d4 4889EF   		movq	%rbp, %rdi
 3879              	.LEHB140:
 3880 02d7 E8000000 		call	_Unwind_Resume@PLT
 3880      00
 3881              	.LEHE140:
 3882              	.L257:
 3883 02dc 488D7B08 		leaq	8(%rbx), %rdi
 3884 02e0 4889C5   		movq	%rax, %rbp
 3885 02e3 E8000000 		call	_ZNSt7__cxx1115basic_stringbufIcSt11char_traitsIcESaIcEED1Ev
 3885      00
 3886 02e8 4C896C24 		movq	%r13, 32(%rsp)
 3886      20
 3887 02ed EBB7     		jmp	.L249
 3888              		.cfi_endproc
 3889              	.LFE1327:
 3890              		.section	.gcc_except_table
 3891              	.LLSDA1327:
 3892 0264 FF       		.byte	0xff
 3893 0265 FF       		.byte	0xff
 3894 0266 01       		.byte	0x1
 3895 0267 21       		.uleb128 .LLSDACSE1327-.LLSDACSB1327
 3896              	.LLSDACSB1327:
 3897 0268 BB01     		.uleb128 .LEHB135-.LFB1327
 3898 026a 05       		.uleb128 .LEHE135-.LEHB135
 3899 026b A305     		.uleb128 .L256-.LFB1327
 3900 026d 00       		.uleb128 0
 3901 026e BE02     		.uleb128 .LEHB136-.LFB1327
 3902 0270 05       		.uleb128 .LEHE136-.LEHB136
 3903 0271 DC05     		.uleb128 .L257-.LFB1327
 3904 0273 00       		.uleb128 0
 3905 0274 8D03     		.uleb128 .LEHB137-.LFB1327
 3906 0276 5B       		.uleb128 .LEHE137-.LEHB137
 3907 0277 C905     		.uleb128 .L255-.LFB1327
 3908 0279 00       		.uleb128 0
 3909 027a F404     		.uleb128 .LEHB138-.LFB1327
 3910 027c 05       		.uleb128 .LEHE138-.LEHB138
 3911 027d 00       		.uleb128 0
 3912 027e 00       		.uleb128 0
 3913 027f C405     		.uleb128 .LEHB139-.LFB1327
 3914 0281 05       		.uleb128 .LEHE139-.LEHB139
 3915 0282 00       		.uleb128 0
 3916 0283 00       		.uleb128 0
 3917 0284 D705     		.uleb128 .LEHB140-.LFB1327
 3918 0286 05       		.uleb128 .LEHE140-.LEHB140
 3919 0287 00       		.uleb128 0
 3920 0288 00       		.uleb128 0
 3921              	.LLSDACSE1327:
 3922              		.section	.text._ZN8UnitTest10CheckEqualIihEEvRNS_11TestResultsERKT_RKT0_RKNS_11TestDetailsE,"axG",
 3924              		.section	.text._ZN8UnitTest10CheckEqualImmEEvRNS_11TestResultsERKT_RKT0_RKNS_11TestDetailsE,"axG",
 3925              		.p2align 4,,15
 3926              		.weak	_ZN8UnitTest10CheckEqualImmEEvRNS_11TestResultsERKT_RKT0_RKNS_11TestDetailsE
 3928              	_ZN8UnitTest10CheckEqualImmEEvRNS_11TestResultsERKT_RKT0_RKNS_11TestDetailsE:
 3929              	.LFB1328:
 3930              		.cfi_startproc
 3931              		.cfi_personality 0x9b,DW.ref.__gxx_personality_v0
 3932              		.cfi_lsda 0x1b,.LLSDA1328
 3933 0000 4157     		pushq	%r15
 3934              		.cfi_def_cfa_offset 16
 3935              		.cfi_offset 15, -16
 3936 0002 4156     		pushq	%r14
 3937              		.cfi_def_cfa_offset 24
 3938              		.cfi_offset 14, -24
 3939 0004 4155     		pushq	%r13
 3940              		.cfi_def_cfa_offset 32
 3941              		.cfi_offset 13, -32
 3942 0006 4154     		pushq	%r12
 3943              		.cfi_def_cfa_offset 40
 3944              		.cfi_offset 12, -40
 3945 0008 55       		pushq	%rbp
 3946              		.cfi_def_cfa_offset 48
 3947              		.cfi_offset 6, -48
 3948 0009 53       		pushq	%rbx
 3949              		.cfi_def_cfa_offset 56
 3950              		.cfi_offset 3, -56
 3951 000a 4881ECB8 		subq	$440, %rsp
 3951      010000
 3952              		.cfi_def_cfa_offset 496
 3953 0011 64488B04 		movq	%fs:40, %rax
 3953      25280000 
 3953      00
 3954 001a 48898424 		movq	%rax, 424(%rsp)
 3954      A8010000 
 3955 0022 31C0     		xorl	%eax, %eax
 3956 0024 488B02   		movq	(%rdx), %rax
 3957 0027 483906   		cmpq	%rax, (%rsi)
 3958 002a 48893C24 		movq	%rdi, (%rsp)
 3959 002e 48894C24 		movq	%rcx, 8(%rsp)
 3959      08
 3960 0033 0F843002 		je	.L262
 3960      0000
 3961 0039 488D5C24 		leaq	16(%rsp), %rbx
 3961      10
 3962 003e 4C8D2D00 		leaq	24+_ZTCN8UnitTest15MemoryOutStreamE0_So(%rip), %r13
 3962      000000
 3963 0045 4989F4   		movq	%rsi, %r12
 3964 0048 4889D5   		movq	%rdx, %rbp
 3965 004b 4C8DB390 		leaq	144(%rbx), %r14
 3965      000000
 3966 0052 4C89F7   		movq	%r14, %rdi
 3967 0055 E8000000 		call	_ZNSt8ios_baseC2Ev@PLT
 3967      00
 3968 005a 498D4528 		leaq	40(%r13), %rax
 3969 005e 31F6     		xorl	%esi, %esi
 3970 0060 4C89F7   		movq	%r14, %rdi
 3971 0063 48C78424 		movq	$0, 376(%rsp)
 3971      78010000 
 3971      00000000 
 3972 006f C6842480 		movb	$0, 384(%rsp)
 3972      01000000 
 3973 0077 C6842481 		movb	$0, 385(%rsp)
 3973      01000000 
 3974 007f 48C78424 		movq	$0, 392(%rsp)
 3974      88010000 
 3974      00000000 
 3975 008b 48C78424 		movq	$0, 400(%rsp)
 3975      90010000 
 3975      00000000 
 3976 0097 48C78424 		movq	$0, 408(%rsp)
 3976      98010000 
 3976      00000000 
 3977 00a3 48C78424 		movq	$0, 416(%rsp)
 3977      A0010000 
 3977      00000000 
 3978 00af 4C896C24 		movq	%r13, 16(%rsp)
 3978      10
 3979 00b4 48898424 		movq	%rax, 160(%rsp)
 3979      A0000000 
 3980              	.LEHB141:
 3981 00bc E8000000 		call	_ZNSt9basic_iosIcSt11char_traitsIcEE4initEPSt15basic_streambufIcS1_E@PLT
 3981      00
 3982              	.LEHE141:
 3983 00c1 488D0500 		leaq	24+_ZTCN8UnitTest15MemoryOutStreamE0_NSt7__cxx1119basic_ostringstreamIcSt11char_traitsIcESaIc
 3983      000000
 3984 00c8 660FEFC0 		pxor	%xmm0, %xmm0
 3985 00cc 488D7B40 		leaq	64(%rbx), %rdi
 3986 00d0 48894424 		movq	%rax, 16(%rsp)
 3986      10
 3987 00d5 4883C028 		addq	$40, %rax
 3988 00d9 48898424 		movq	%rax, 160(%rsp)
 3988      A0000000 
 3989 00e1 488D0500 		leaq	16+_ZTVSt15basic_streambufIcSt11char_traitsIcEE(%rip), %rax
 3989      000000
 3990 00e8 0F294424 		movaps	%xmm0, 32(%rsp)
 3990      20
 3991 00ed 48894424 		movq	%rax, 24(%rsp)
 3991      18
 3992 00f2 0F294424 		movaps	%xmm0, 48(%rsp)
 3992      30
 3993 00f7 0F294424 		movaps	%xmm0, 64(%rsp)
 3993      40
 3994 00fc E8000000 		call	_ZNSt6localeC1Ev@PLT
 3994      00
 3995 0101 488D0500 		leaq	16+_ZTVNSt7__cxx1115basic_stringbufIcSt11char_traitsIcESaIcEEE(%rip), %rax
 3995      000000
 3996 0108 488D7308 		leaq	8(%rbx), %rsi
 3997 010c 48894424 		movq	%rax, 24(%rsp)
 3997      18
 3998 0111 488D4360 		leaq	96(%rbx), %rax
 3999 0115 C7442458 		movl	$16, 88(%rsp)
 3999      10000000 
 4000 011d 48C74424 		movq	$0, 104(%rsp)
 4000      68000000 
 4000      00
 4001 0126 C6442470 		movb	$0, 112(%rsp)
 4001      00
 4002 012b 48894424 		movq	%rax, 96(%rsp)
 4002      60
 4003 0130 488B4424 		movq	16(%rsp), %rax
 4003      10
 4004 0135 488B78E8 		movq	-24(%rax), %rdi
 4005 0139 4801DF   		addq	%rbx, %rdi
 4006              	.LEHB142:
 4007 013c E8000000 		call	_ZNSt9basic_iosIcSt11char_traitsIcEE4initEPSt15basic_streambufIcS1_E@PLT
 4007      00
 4008              	.LEHE142:
 4009 0141 4C8D3D00 		leaq	24+_ZTVN8UnitTest15MemoryOutStreamE(%rip), %r15
 4009      000000
 4010 0148 488D8380 		leaq	128(%rbx), %rax
 4010      000000
 4011 014f 488D3500 		leaq	.LC0(%rip), %rsi
 4011      000000
 4012 0156 BA090000 		movl	$9, %edx
 4012      00
 4013 015b 4889DF   		movq	%rbx, %rdi
 4014 015e 48C78424 		movq	$0, 136(%rsp)
 4014      88000000 
 4014      00000000 
 4015 016a 4D8D7728 		leaq	40(%r15), %r14
 4016 016e 4C897C24 		movq	%r15, 16(%rsp)
 4016      10
 4017 0173 48898424 		movq	%rax, 128(%rsp)
 4017      80000000 
 4018 017b C6842490 		movb	$0, 144(%rsp)
 4018      00000000 
 4019 0183 4C89B424 		movq	%r14, 160(%rsp)
 4019      A0000000 
 4020              	.LEHB143:
 4021 018b E8000000 		call	_ZSt16__ostream_insertIcSt11char_traitsIcEERSt13basic_ostreamIT_T0_ES6_PKS3_l@PLT
 4021      00
 4022 0190 498B3424 		movq	(%r12), %rsi
 4023 0194 4889DF   		movq	%rbx, %rdi
 4024 0197 E8000000 		call	_ZNSo9_M_insertImEERSoT_@PLT
 4024      00
 4025 019c 488D3500 		leaq	.LC1(%rip), %rsi
 4025      000000
 4026 01a3 BA090000 		movl	$9, %edx
 4026      00
 4027 01a8 4889C7   		movq	%rax, %rdi
 4028 01ab 4989C4   		movq	%rax, %r12
 4029 01ae E8000000 		call	_ZSt16__ostream_insertIcSt11char_traitsIcEERSt13basic_ostreamIT_T0_ES6_PKS3_l@PLT
 4029      00
 4030 01b3 488B7500 		movq	0(%rbp), %rsi
 4031 01b7 4C89E7   		movq	%r12, %rdi
 4032 01ba E8000000 		call	_ZNSo9_M_insertImEERSoT_@PLT
 4032      00
 4033 01bf 4889DF   		movq	%rbx, %rdi
 4034 01c2 E8000000 		call	_ZNK8UnitTest15MemoryOutStream7GetTextEv@PLT
 4034      00
 4035 01c7 488B7424 		movq	8(%rsp), %rsi
 4035      08
 4036 01cc 488B3C24 		movq	(%rsp), %rdi
 4037 01d0 4889C2   		movq	%rax, %rdx
 4038 01d3 E8000000 		call	_ZN8UnitTest11TestResults13OnTestFailureERKNS_11TestDetailsEPKc@PLT
 4038      00
 4039              	.LEHE143:
 4040 01d8 488BBC24 		movq	128(%rsp), %rdi
 4040      80000000 
 4041 01e0 488D8380 		leaq	128(%rbx), %rax
 4041      000000
 4042 01e7 4C897C24 		movq	%r15, 16(%rsp)
 4042      10
 4043 01ec 4C89B424 		movq	%r14, 160(%rsp)
 4043      A0000000 
 4044 01f4 4839C7   		cmpq	%rax, %rdi
 4045 01f7 7405     		je	.L268
 4046 01f9 E8000000 		call	_ZdlPv@PLT
 4046      00
 4047              	.L268:
 4048 01fe 488D0500 		leaq	64+_ZTCN8UnitTest15MemoryOutStreamE0_NSt7__cxx1119basic_ostringstreamIcSt11char_traitsIcESaIc
 4048      000000
 4049 0205 488B7C24 		movq	96(%rsp), %rdi
 4049      60
 4050 020a F30F7E05 		movq	.LC2(%rip), %xmm0
 4050      00000000 
 4051 0212 48898424 		movq	%rax, 160(%rsp)
 4051      A0000000 
 4052 021a 488D4360 		leaq	96(%rbx), %rax
 4053 021e 0F160500 		movhps	.LC3(%rip), %xmm0
 4053      000000
 4054 0225 4839C7   		cmpq	%rax, %rdi
 4055 0228 0F294424 		movaps	%xmm0, 16(%rsp)
 4055      10
 4056 022d 7405     		je	.L269
 4057 022f E8000000 		call	_ZdlPv@PLT
 4057      00
 4058              	.L269:
 4059 0234 488D0500 		leaq	16+_ZTVSt15basic_streambufIcSt11char_traitsIcEE(%rip), %rax
 4059      000000
 4060 023b 488D7B40 		leaq	64(%rbx), %rdi
 4061 023f 48894424 		movq	%rax, 24(%rsp)
 4061      18
 4062 0244 E8000000 		call	_ZNSt6localeD1Ev@PLT
 4062      00
 4063 0249 488D0500 		leaq	16+_ZTVSt9basic_iosIcSt11char_traitsIcEE(%rip), %rax
 4063      000000
 4064 0250 488DBB90 		leaq	144(%rbx), %rdi
 4064      000000
 4065 0257 4C896C24 		movq	%r13, 16(%rsp)
 4065      10
 4066 025c 48898424 		movq	%rax, 160(%rsp)
 4066      A0000000 
 4067              	.LEHB144:
 4068 0264 E8000000 		call	_ZNSt8ios_baseD2Ev@PLT
 4068      00
 4069              	.LEHE144:
 4070              	.L262:
 4071 0269 488B8424 		movq	424(%rsp), %rax
 4071      A8010000 
 4072 0271 64483304 		xorq	%fs:40, %rax
 4072      25280000 
 4072      00
 4073 027a 7512     		jne	.L278
 4074 027c 4881C4B8 		addq	$440, %rsp
 4074      010000
 4075              		.cfi_remember_state
 4076              		.cfi_def_cfa_offset 56
 4077 0283 5B       		popq	%rbx
 4078              		.cfi_def_cfa_offset 48
 4079 0284 5D       		popq	%rbp
 4080              		.cfi_def_cfa_offset 40
 4081 0285 415C     		popq	%r12
 4082              		.cfi_def_cfa_offset 32
 4083 0287 415D     		popq	%r13
 4084              		.cfi_def_cfa_offset 24
 4085 0289 415E     		popq	%r14
 4086              		.cfi_def_cfa_offset 16
 4087 028b 415F     		popq	%r15
 4088              		.cfi_def_cfa_offset 8
 4089 028d C3       		ret
 4090              	.L278:
 4091              		.cfi_restore_state
 4092 028e E8000000 		call	__stack_chk_fail@PLT
 4092      00
 4093              	.L273:
 4094 0293 4889C5   		movq	%rax, %rbp
 4095              	.L266:
 4096 0296 488D0500 		leaq	16+_ZTVSt9basic_iosIcSt11char_traitsIcEE(%rip), %rax
 4096      000000
 4097 029d 488DBB90 		leaq	144(%rbx), %rdi
 4097      000000
 4098 02a4 48898424 		movq	%rax, 160(%rsp)
 4098      A0000000 
 4099 02ac E8000000 		call	_ZNSt8ios_baseD2Ev@PLT
 4099      00
 4100 02b1 4889EF   		movq	%rbp, %rdi
 4101              	.LEHB145:
 4102 02b4 E8000000 		call	_Unwind_Resume@PLT
 4102      00
 4103              	.LEHE145:
 4104              	.L272:
 4105 02b9 4889C5   		movq	%rax, %rbp
 4106 02bc 4889DF   		movq	%rbx, %rdi
 4107 02bf E8000000 		call	_ZN8UnitTest15MemoryOutStreamD1Ev
 4107      00
 4108 02c4 4889EF   		movq	%rbp, %rdi
 4109              	.LEHB146:
 4110 02c7 E8000000 		call	_Unwind_Resume@PLT
 4110      00
 4111              	.LEHE146:
 4112              	.L274:
 4113 02cc 488D7B08 		leaq	8(%rbx), %rdi
 4114 02d0 4889C5   		movq	%rax, %rbp
 4115 02d3 E8000000 		call	_ZNSt7__cxx1115basic_stringbufIcSt11char_traitsIcESaIcEED1Ev
 4115      00
 4116 02d8 4C896C24 		movq	%r13, 16(%rsp)
 4116      10
 4117 02dd EBB7     		jmp	.L266
 4118              		.cfi_endproc
 4119              	.LFE1328:
 4120              		.section	.gcc_except_table
 4121              	.LLSDA1328:
 4122 0289 FF       		.byte	0xff
 4123 028a FF       		.byte	0xff
 4124 028b 01       		.byte	0x1
 4125 028c 21       		.uleb128 .LLSDACSE1328-.LLSDACSB1328
 4126              	.LLSDACSB1328:
 4127 028d BC01     		.uleb128 .LEHB141-.LFB1328
 4128 028f 05       		.uleb128 .LEHE141-.LEHB141
 4129 0290 9305     		.uleb128 .L273-.LFB1328
 4130 0292 00       		.uleb128 0
 4131 0293 BC02     		.uleb128 .LEHB142-.LFB1328
 4132 0295 05       		.uleb128 .LEHE142-.LEHB142
 4133 0296 CC05     		.uleb128 .L274-.LFB1328
 4134 0298 00       		.uleb128 0
 4135 0299 8B03     		.uleb128 .LEHB143-.LFB1328
 4136 029b 4D       		.uleb128 .LEHE143-.LEHB143
 4137 029c B905     		.uleb128 .L272-.LFB1328
 4138 029e 00       		.uleb128 0
 4139 029f E404     		.uleb128 .LEHB144-.LFB1328
 4140 02a1 05       		.uleb128 .LEHE144-.LEHB144
 4141 02a2 00       		.uleb128 0
 4142 02a3 00       		.uleb128 0
 4143 02a4 B405     		.uleb128 .LEHB145-.LFB1328
 4144 02a6 05       		.uleb128 .LEHE145-.LEHB145
 4145 02a7 00       		.uleb128 0
 4146 02a8 00       		.uleb128 0
 4147 02a9 C705     		.uleb128 .LEHB146-.LFB1328
 4148 02ab 05       		.uleb128 .LEHE146-.LEHB146
 4149 02ac 00       		.uleb128 0
 4150 02ad 00       		.uleb128 0
 4151              	.LLSDACSE1328:
 4152              		.section	.text._ZN8UnitTest10CheckEqualImmEEvRNS_11TestResultsERKT_RKT0_RKNS_11TestDetailsE,"axG",
 4154              		.section	.rodata.str1.1
 4155              	.LC23:
 4156 00be 3A303030 		.string	":00000001FF\n"
 4156      30303030 
 4156      3146460A 
 4156      00
 4157              		.section	.rodata.str1.8
 4158 0275 000000   		.align 8
 4159              	.LC24:
 4160 0278 556E6861 		.string	"Unhandled exception in CHECK_EQUAL(0x01, recordType)"
 4160      6E646C65 
 4160      64206578 
 4160      63657074 
 4160      696F6E20 
 4161 02ad 000000   		.align 8
 4162              	.LC25:
 4163 02b0 556E6861 		.string	"Unhandled exception in CHECK_EQUAL(0UL, data.length)"
 4163      6E646C65 
 4163      64206578 
 4163      63657074 
 4163      696F6E20 
 4164 02e5 000000   		.align 8
 4165              	.LC26:
 4166 02e8 556E6861 		.string	"Unhandled exception in CHECK_EQUAL(0UL, mask.length)"
 4166      6E646C65 
 4166      64206578 
 4166      63657074 
 4166      696F6E20 
 4167              		.text
 4168              		.align 2
 4169              		.p2align 4,,15
 4170              		.globl	_ZNK22TestHexIO_testValidEOF7RunImplEv
 4172              	_ZNK22TestHexIO_testValidEOF7RunImplEv:
 4173              	.LFB1248:
 4174              		.cfi_startproc
 4175              		.cfi_personality 0x9b,DW.ref.__gxx_personality_v0
 4176              		.cfi_lsda 0x1b,.LLSDA1248
 4177 0ea0 4157     		pushq	%r15
 4178              		.cfi_def_cfa_offset 16
 4179              		.cfi_offset 15, -16
 4180 0ea2 4156     		pushq	%r14
 4181              		.cfi_def_cfa_offset 24
 4182              		.cfi_offset 14, -24
 4183 0ea4 31C9     		xorl	%ecx, %ecx
 4184 0ea6 4155     		pushq	%r13
 4185              		.cfi_def_cfa_offset 32
 4186              		.cfi_offset 13, -32
 4187 0ea8 4154     		pushq	%r12
 4188              		.cfi_def_cfa_offset 40
 4189              		.cfi_offset 12, -40
 4190 0eaa 31D2     		xorl	%edx, %edx
 4191 0eac 55       		pushq	%rbp
 4192              		.cfi_def_cfa_offset 48
 4193              		.cfi_offset 6, -48
 4194 0ead 53       		pushq	%rbx
 4195              		.cfi_def_cfa_offset 56
 4196              		.cfi_offset 3, -56
 4197 0eae BE000400 		movl	$1024, %esi
 4197      00
 4198 0eb3 4881EC38 		subq	$568, %rsp
 4198      020000
 4199              		.cfi_def_cfa_offset 624
 4200 0eba 4C8D6C24 		leaq	48(%rsp), %r13
 4200      30
 4201 0ebf C7442424 		movl	$0, 36(%rsp)
 4201      00000000 
 4202 0ec7 64488B04 		movq	%fs:40, %rax
 4202      25280000 
 4202      00
 4203 0ed0 48898424 		movq	%rax, 552(%rsp)
 4203      28020000 
 4204 0ed8 31C0     		xorl	%eax, %eax
 4205 0eda 4C89EF   		movq	%r13, %rdi
 4206              	.LEHB147:
 4207 0edd E8000000 		call	bufInitialise@PLT
 4207      00
 4208              	.LEHE147:
 4209 0ee2 89442420 		movl	%eax, 32(%rsp)
 4210              	.LEHB148:
 4211 0ee6 E8000000 		call	_ZN8UnitTest11CurrentTest7DetailsEv@PLT
 4211      00
 4212 0eeb 488D5C24 		leaq	112(%rsp), %rbx
 4212      70
 4213 0ef0 488B30   		movq	(%rax), %rsi
 4214 0ef3 BA390000 		movl	$57, %edx
 4214      00
 4215 0ef8 4889DF   		movq	%rbx, %rdi
 4216 0efb E8000000 		call	_ZN8UnitTest11TestDetailsC1ERKS0_i@PLT
 4216      00
 4217 0f00 C7442450 		movl	$0, 80(%rsp)
 4217      00000000 
 4218 0f08 E8000000 		call	_ZN8UnitTest11CurrentTest7ResultsEv@PLT
 4218      00
 4219 0f0d 4C8D6424 		leaq	80(%rsp), %r12
 4219      50
 4220 0f12 488B38   		movq	(%rax), %rdi
 4221 0f15 488D5424 		leaq	32(%rsp), %rdx
 4221      20
 4222 0f1a 4889D9   		movq	%rbx, %rcx
 4223 0f1d 4C89E6   		movq	%r12, %rsi
 4224 0f20 E8000000 		call	_ZN8UnitTest10CheckEqualI12BufferStatusS1_EEvRNS_11TestResultsERKT_RKT0_RKNS_11TestDetailsE
 4224      00
 4225              	.LEHE148:
 4226              	.L290:
 4227 0f25 31C9     		xorl	%ecx, %ecx
 4228 0f27 31D2     		xorl	%edx, %edx
 4229 0f29 BE000400 		movl	$1024, %esi
 4229      00
 4230 0f2e 4C89E7   		movq	%r12, %rdi
 4231              	.LEHB149:
 4232 0f31 E8000000 		call	bufInitialise@PLT
 4232      00
 4233              	.LEHE149:
 4234 0f36 89442420 		movl	%eax, 32(%rsp)
 4235              	.LEHB150:
 4236 0f3a E8000000 		call	_ZN8UnitTest11CurrentTest7DetailsEv@PLT
 4236      00
 4237 0f3f 488B30   		movq	(%rax), %rsi
 4238 0f42 BA3B0000 		movl	$59, %edx
 4238      00
 4239 0f47 4889DF   		movq	%rbx, %rdi
 4240 0f4a E8000000 		call	_ZN8UnitTest11TestDetailsC1ERKS0_i@PLT
 4240      00
 4241 0f4f C7442428 		movl	$0, 40(%rsp)
 4241      00000000 
 4242 0f57 E8000000 		call	_ZN8UnitTest11CurrentTest7ResultsEv@PLT
 4242      00
 4243 0f5c 488B38   		movq	(%rax), %rdi
 4244 0f5f 488D5424 		leaq	32(%rsp), %rdx
 4244      20
 4245 0f64 488D7424 		leaq	40(%rsp), %rsi
 4245      28
 4246 0f69 4889D9   		movq	%rbx, %rcx
 4247 0f6c E8000000 		call	_ZN8UnitTest10CheckEqualI12BufferStatusS1_EEvRNS_11TestResultsERKT_RKT0_RKNS_11TestDetailsE
 4247      00
 4248              	.LEHE150:
 4249              	.L293:
 4250 0f71 4883EC08 		subq	$8, %rsp
 4251              		.cfi_def_cfa_offset 632
 4252 0f75 488D3D00 		leaq	.LC23(%rip), %rdi
 4252      000000
 4253 0f7c 4C89EA   		movq	%r13, %rdx
 4254 0f7f 6A00     		pushq	$0
 4255              		.cfi_def_cfa_offset 640
 4256 0f81 4C89E1   		movq	%r12, %rcx
 4257 0f84 31F6     		xorl	%esi, %esi
 4258 0f86 4C8D4C24 		leaq	46(%rsp), %r9
 4258      2E
 4259 0f8b 4C8D4424 		leaq	52(%rsp), %r8
 4259      34
 4260              	.LEHB151:
 4261 0f90 E8000000 		call	bufProcessLine@PLT
 4261      00
 4262              	.LEHE151:
 4263 0f95 89442430 		movl	%eax, 48(%rsp)
 4264 0f99 58       		popq	%rax
 4265              		.cfi_def_cfa_offset 632
 4266 0f9a 5A       		popq	%rdx
 4267              		.cfi_def_cfa_offset 624
 4268              	.LEHB152:
 4269 0f9b E8000000 		call	_ZN8UnitTest11CurrentTest7DetailsEv@PLT
 4269      00
 4270 0fa0 488B30   		movq	(%rax), %rsi
 4271 0fa3 BA3D0000 		movl	$61, %edx
 4271      00
 4272 0fa8 4889DF   		movq	%rbx, %rdi
 4273 0fab E8000000 		call	_ZN8UnitTest11TestDetailsC1ERKS0_i@PLT
 4273      00
 4274 0fb0 C7442428 		movl	$0, 40(%rsp)
 4274      00000000 
 4275 0fb8 E8000000 		call	_ZN8UnitTest11CurrentTest7ResultsEv@PLT
 4275      00
 4276 0fbd 488B38   		movq	(%rax), %rdi
 4277 0fc0 488D5424 		leaq	32(%rsp), %rdx
 4277      20
 4278 0fc5 488D7424 		leaq	40(%rsp), %rsi
 4278      28
 4279 0fca 4889D9   		movq	%rbx, %rcx
 4280 0fcd E8000000 		call	_ZN8UnitTest10CheckEqualI12BufferStatusS1_EEvRNS_11TestResultsERKT_RKT0_RKNS_11TestDetailsE
 4280      00
 4281              	.LEHE152:
 4282              	.L296:
 4283              	.LEHB153:
 4284 0fd2 E8000000 		call	_ZN8UnitTest11CurrentTest7DetailsEv@PLT
 4284      00
 4285 0fd7 488B30   		movq	(%rax), %rsi
 4286 0fda BA3E0000 		movl	$62, %edx
 4286      00
 4287 0fdf 4889DF   		movq	%rbx, %rdi
 4288 0fe2 E8000000 		call	_ZN8UnitTest11TestDetailsC1ERKS0_i@PLT
 4288      00
 4289 0fe7 E8000000 		call	_ZN8UnitTest11CurrentTest7ResultsEv@PLT
 4289      00
 4290              	.LEHE153:
 4291 0fec 807C241E 		cmpb	$1, 30(%rsp)
 4291      01
 4292 0ff1 0F848302 		je	.L298
 4292      0000
 4293 0ff7 488DAC24 		leaq	144(%rsp), %rbp
 4293      90000000 
 4294 0fff 488B00   		movq	(%rax), %rax
 4295 1002 4C8D3500 		leaq	24+_ZTCN8UnitTest15MemoryOutStreamE0_So(%rip), %r14
 4295      000000
 4296 1009 4C8DBD90 		leaq	144(%rbp), %r15
 4296      000000
 4297 1010 48890424 		movq	%rax, (%rsp)
 4298 1014 4C89FF   		movq	%r15, %rdi
 4299 1017 E8000000 		call	_ZNSt8ios_baseC2Ev@PLT
 4299      00
 4300 101c 498D4628 		leaq	40(%r14), %rax
 4301 1020 31F6     		xorl	%esi, %esi
 4302 1022 4C89FF   		movq	%r15, %rdi
 4303 1025 48C78424 		movq	$0, 504(%rsp)
 4303      F8010000 
 4303      00000000 
 4304 1031 C6842400 		movb	$0, 512(%rsp)
 4304      02000000 
 4305 1039 C6842401 		movb	$0, 513(%rsp)
 4305      02000000 
 4306 1041 48C78424 		movq	$0, 520(%rsp)
 4306      08020000 
 4306      00000000 
 4307 104d 48C78424 		movq	$0, 528(%rsp)
 4307      10020000 
 4307      00000000 
 4308 1059 48C78424 		movq	$0, 536(%rsp)
 4308      18020000 
 4308      00000000 
 4309 1065 48C78424 		movq	$0, 544(%rsp)
 4309      20020000 
 4309      00000000 
 4310 1071 4C89B424 		movq	%r14, 144(%rsp)
 4310      90000000 
 4311 1079 48898424 		movq	%rax, 288(%rsp)
 4311      20010000 
 4312              	.LEHB154:
 4313 1081 E8000000 		call	_ZNSt9basic_iosIcSt11char_traitsIcEE4initEPSt15basic_streambufIcS1_E@PLT
 4313      00
 4314              	.LEHE154:
 4315 1086 488D0500 		leaq	24+_ZTCN8UnitTest15MemoryOutStreamE0_NSt7__cxx1119basic_ostringstreamIcSt11char_traitsIcESaIc
 4315      000000
 4316 108d 660FEFC0 		pxor	%xmm0, %xmm0
 4317 1091 488D7D40 		leaq	64(%rbp), %rdi
 4318 1095 48898424 		movq	%rax, 144(%rsp)
 4318      90000000 
 4319 109d 4883C028 		addq	$40, %rax
 4320 10a1 48898424 		movq	%rax, 288(%rsp)
 4320      20010000 
 4321 10a9 488D0500 		leaq	16+_ZTVSt15basic_streambufIcSt11char_traitsIcEE(%rip), %rax
 4321      000000
 4322 10b0 0F298424 		movaps	%xmm0, 160(%rsp)
 4322      A0000000 
 4323 10b8 48898424 		movq	%rax, 152(%rsp)
 4323      98000000 
 4324 10c0 0F298424 		movaps	%xmm0, 176(%rsp)
 4324      B0000000 
 4325 10c8 0F298424 		movaps	%xmm0, 192(%rsp)
 4325      C0000000 
 4326 10d0 E8000000 		call	_ZNSt6localeC1Ev@PLT
 4326      00
 4327 10d5 488D0500 		leaq	16+_ZTVNSt7__cxx1115basic_stringbufIcSt11char_traitsIcESaIcEEE(%rip), %rax
 4327      000000
 4328 10dc 488D7508 		leaq	8(%rbp), %rsi
 4329 10e0 48898424 		movq	%rax, 152(%rsp)
 4329      98000000 
 4330 10e8 488D4560 		leaq	96(%rbp), %rax
 4331 10ec C78424D8 		movl	$16, 216(%rsp)
 4331      00000010 
 4331      000000
 4332 10f7 48C78424 		movq	$0, 232(%rsp)
 4332      E8000000 
 4332      00000000 
 4333 1103 C68424F0 		movb	$0, 240(%rsp)
 4333      00000000 
 4334 110b 48898424 		movq	%rax, 224(%rsp)
 4334      E0000000 
 4335 1113 488B8424 		movq	144(%rsp), %rax
 4335      90000000 
 4336 111b 488B78E8 		movq	-24(%rax), %rdi
 4337 111f 4801EF   		addq	%rbp, %rdi
 4338              	.LEHB155:
 4339 1122 E8000000 		call	_ZNSt9basic_iosIcSt11char_traitsIcEE4initEPSt15basic_streambufIcS1_E@PLT
 4339      00
 4340              	.LEHE155:
 4341 1127 4C8D3D00 		leaq	24+_ZTVN8UnitTest15MemoryOutStreamE(%rip), %r15
 4341      000000
 4342 112e 488D3500 		leaq	.LC0(%rip), %rsi
 4342      000000
 4343 1135 BA090000 		movl	$9, %edx
 4343      00
 4344 113a 4889EF   		movq	%rbp, %rdi
 4345 113d 48C78424 		movq	$0, 264(%rsp)
 4345      08010000 
 4345      00000000 
 4346 1149 C6842410 		movb	$0, 272(%rsp)
 4346      01000000 
 4347 1151 498D4728 		leaq	40(%r15), %rax
 4348 1155 4C89BC24 		movq	%r15, 144(%rsp)
 4348      90000000 
 4349 115d 48898424 		movq	%rax, 288(%rsp)
 4349      20010000 
 4350 1165 488D8580 		leaq	128(%rbp), %rax
 4350      000000
 4351 116c 48898424 		movq	%rax, 256(%rsp)
 4351      00010000 
 4352              	.LEHB156:
 4353 1174 E8000000 		call	_ZSt16__ostream_insertIcSt11char_traitsIcEERSt13basic_ostreamIT_T0_ES6_PKS3_l@PLT
 4353      00
 4354 1179 BE010000 		movl	$1, %esi
 4354      00
 4355 117e 4889EF   		movq	%rbp, %rdi
 4356 1181 E8000000 		call	_ZNSolsEi@PLT
 4356      00
 4357 1186 488D3500 		leaq	.LC1(%rip), %rsi
 4357      000000
 4358 118d BA090000 		movl	$9, %edx
 4358      00
 4359 1192 4889C7   		movq	%rax, %rdi
 4360 1195 48894424 		movq	%rax, 8(%rsp)
 4360      08
 4361 119a E8000000 		call	_ZSt16__ostream_insertIcSt11char_traitsIcEERSt13basic_ostreamIT_T0_ES6_PKS3_l@PLT
 4361      00
 4362 119f 0FB64424 		movzbl	30(%rsp), %eax
 4362      1E
 4363 11a4 488B7C24 		movq	8(%rsp), %rdi
 4363      08
 4364 11a9 488D7424 		leaq	31(%rsp), %rsi
 4364      1F
 4365 11ae BA010000 		movl	$1, %edx
 4365      00
 4366 11b3 8844241F 		movb	%al, 31(%rsp)
 4367 11b7 E8000000 		call	_ZSt16__ostream_insertIcSt11char_traitsIcEERSt13basic_ostreamIT_T0_ES6_PKS3_l@PLT
 4367      00
 4368 11bc 4889EF   		movq	%rbp, %rdi
 4369 11bf E8000000 		call	_ZNK8UnitTest15MemoryOutStream7GetTextEv@PLT
 4369      00
 4370 11c4 488B3C24 		movq	(%rsp), %rdi
 4371 11c8 4889C2   		movq	%rax, %rdx
 4372 11cb 4889DE   		movq	%rbx, %rsi
 4373 11ce E8000000 		call	_ZN8UnitTest11TestResults13OnTestFailureERKNS_11TestDetailsEPKc@PLT
 4373      00
 4374              	.LEHE156:
 4375 11d3 488D0500 		leaq	64+_ZTVN8UnitTest15MemoryOutStreamE(%rip), %rax
 4375      000000
 4376 11da 488BBC24 		movq	256(%rsp), %rdi
 4376      00010000 
 4377 11e2 4C89BC24 		movq	%r15, 144(%rsp)
 4377      90000000 
 4378 11ea 48898424 		movq	%rax, 288(%rsp)
 4378      20010000 
 4379 11f2 488D8580 		leaq	128(%rbp), %rax
 4379      000000
 4380 11f9 4839C7   		cmpq	%rax, %rdi
 4381 11fc 7405     		je	.L286
 4382 11fe E8000000 		call	_ZdlPv@PLT
 4382      00
 4383              	.L286:
 4384 1203 488D0500 		leaq	64+_ZTCN8UnitTest15MemoryOutStreamE0_NSt7__cxx1119basic_ostringstreamIcSt11char_traitsIcESaIc
 4384      000000
 4385 120a 488BBC24 		movq	224(%rsp), %rdi
 4385      E0000000 
 4386 1212 F30F7E05 		movq	.LC2(%rip), %xmm0
 4386      00000000 
 4387 121a 48898424 		movq	%rax, 288(%rsp)
 4387      20010000 
 4388 1222 488D4560 		leaq	96(%rbp), %rax
 4389 1226 0F160500 		movhps	.LC3(%rip), %xmm0
 4389      000000
 4390 122d 4839C7   		cmpq	%rax, %rdi
 4391 1230 0F298424 		movaps	%xmm0, 144(%rsp)
 4391      90000000 
 4392 1238 7405     		je	.L287
 4393 123a E8000000 		call	_ZdlPv@PLT
 4393      00
 4394              	.L287:
 4395 123f 488D0500 		leaq	16+_ZTVSt15basic_streambufIcSt11char_traitsIcEE(%rip), %rax
 4395      000000
 4396 1246 488D7D40 		leaq	64(%rbp), %rdi
 4397 124a 48898424 		movq	%rax, 152(%rsp)
 4397      98000000 
 4398 1252 E8000000 		call	_ZNSt6localeD1Ev@PLT
 4398      00
 4399 1257 488D0500 		leaq	16+_ZTVSt9basic_iosIcSt11char_traitsIcEE(%rip), %rax
 4399      000000
 4400 125e 488DBD90 		leaq	144(%rbp), %rdi
 4400      000000
 4401 1265 4C89B424 		movq	%r14, 144(%rsp)
 4401      90000000 
 4402 126d 48898424 		movq	%rax, 288(%rsp)
 4402      20010000 
 4403              	.LEHB157:
 4404 1275 E8000000 		call	_ZNSt8ios_baseD2Ev@PLT
 4404      00
 4405              	.LEHE157:
 4406              	.L298:
 4407              	.LEHB158:
 4408 127a E8000000 		call	_ZN8UnitTest11CurrentTest7DetailsEv@PLT
 4408      00
 4409 127f 488B30   		movq	(%rax), %rsi
 4410 1282 BA3F0000 		movl	$63, %edx
 4410      00
 4411 1287 4889DF   		movq	%rbx, %rdi
 4412 128a E8000000 		call	_ZN8UnitTest11TestDetailsC1ERKS0_i@PLT
 4412      00
 4413 128f 48C74424 		movq	$0, 40(%rsp)
 4413      28000000 
 4413      00
 4414 1298 E8000000 		call	_ZN8UnitTest11CurrentTest7ResultsEv@PLT
 4414      00
 4415 129d 488B38   		movq	(%rax), %rdi
 4416 12a0 498D5508 		leaq	8(%r13), %rdx
 4417 12a4 488D7424 		leaq	40(%rsp), %rsi
 4417      28
 4418 12a9 4889D9   		movq	%rbx, %rcx
 4419 12ac E8000000 		call	_ZN8UnitTest10CheckEqualImmEEvRNS_11TestResultsERKT_RKT0_RKNS_11TestDetailsE
 4419      00
 4420              	.LEHE158:
 4421              	.L301:
 4422              	.LEHB159:
 4423 12b1 E8000000 		call	_ZN8UnitTest11CurrentTest7DetailsEv@PLT
 4423      00
 4424 12b6 488B30   		movq	(%rax), %rsi
 4425 12b9 BA400000 		movl	$64, %edx
 4425      00
 4426 12be 4889DF   		movq	%rbx, %rdi
 4427 12c1 E8000000 		call	_ZN8UnitTest11TestDetailsC1ERKS0_i@PLT
 4427      00
 4428 12c6 48C74424 		movq	$0, 40(%rsp)
 4428      28000000 
 4428      00
 4429 12cf E8000000 		call	_ZN8UnitTest11CurrentTest7ResultsEv@PLT
 4429      00
 4430 12d4 488B38   		movq	(%rax), %rdi
 4431 12d7 498D5424 		leaq	8(%r12), %rdx
 4431      08
 4432 12dc 488D7424 		leaq	40(%rsp), %rsi
 4432      28
 4433 12e1 4889D9   		movq	%rbx, %rcx
 4434 12e4 E8000000 		call	_ZN8UnitTest10CheckEqualImmEEvRNS_11TestResultsERKT_RKT0_RKNS_11TestDetailsE
 4434      00
 4435              	.LEHE159:
 4436              	.L304:
 4437 12e9 4C89E7   		movq	%r12, %rdi
 4438              	.LEHB160:
 4439 12ec E8000000 		call	bufDestroy@PLT
 4439      00
 4440 12f1 4C89EF   		movq	%r13, %rdi
 4441 12f4 E8000000 		call	bufDestroy@PLT
 4441      00
 4442              	.LEHE160:
 4443 12f9 488B8424 		movq	552(%rsp), %rax
 4443      28020000 
 4444 1301 64483304 		xorq	%fs:40, %rax
 4444      25280000 
 4444      00
 4445 130a 7512     		jne	.L326
 4446 130c 4881C438 		addq	$568, %rsp
 4446      020000
 4447              		.cfi_remember_state
 4448              		.cfi_def_cfa_offset 56
 4449 1313 5B       		popq	%rbx
 4450              		.cfi_def_cfa_offset 48
 4451 1314 5D       		popq	%rbp
 4452              		.cfi_def_cfa_offset 40
 4453 1315 415C     		popq	%r12
 4454              		.cfi_def_cfa_offset 32
 4455 1317 415D     		popq	%r13
 4456              		.cfi_def_cfa_offset 24
 4457 1319 415E     		popq	%r14
 4458              		.cfi_def_cfa_offset 16
 4459 131b 415F     		popq	%r15
 4460              		.cfi_def_cfa_offset 8
 4461 131d C3       		ret
 4462              	.L326:
 4463              		.cfi_restore_state
 4464 131e E8000000 		call	__stack_chk_fail@PLT
 4464      00
 4465              	.L307:
 4466 1323 4889C7   		movq	%rax, %rdi
 4467 1326 E8000000 		call	__cxa_begin_catch@PLT
 4467      00
 4468              	.LEHB161:
 4469 132b E8000000 		call	_ZN8UnitTest11CurrentTest7ResultsEv@PLT
 4469      00
 4470 1330 488B28   		movq	(%rax), %rbp
 4471 1333 E8000000 		call	_ZN8UnitTest11CurrentTest7DetailsEv@PLT
 4471      00
 4472 1338 488D5C24 		leaq	112(%rsp), %rbx
 4472      70
 4473 133d 488B30   		movq	(%rax), %rsi
 4474 1340 BA390000 		movl	$57, %edx
 4474      00
 4475 1345 4889DF   		movq	%rbx, %rdi
 4476 1348 E8000000 		call	_ZN8UnitTest11TestDetailsC1ERKS0_i@PLT
 4476      00
 4477 134d 488D1500 		leaq	.LC5(%rip), %rdx
 4477      000000
 4478 1354 4889DE   		movq	%rbx, %rsi
 4479 1357 4889EF   		movq	%rbp, %rdi
 4480 135a E8000000 		call	_ZN8UnitTest11TestResults13OnTestFailureERKNS_11TestDetailsEPKc@PLT
 4480      00
 4481              	.LEHE161:
 4482              	.LEHB162:
 4483 135f E8000000 		call	__cxa_end_catch@PLT
 4483      00
 4484              	.LEHE162:
 4485 1364 4C8D6424 		leaq	80(%rsp), %r12
 4485      50
 4486 1369 E9B7FBFF 		jmp	.L290
 4486      FF
 4487              	.L319:
 4488 136e 4889EF   		movq	%rbp, %rdi
 4489 1371 4989C6   		movq	%rax, %r14
 4490 1374 E8000000 		call	_ZN8UnitTest15MemoryOutStreamD1Ev
 4490      00
 4491              	.L285:
 4492 1379 4C89F7   		movq	%r14, %rdi
 4493 137c E8000000 		call	__cxa_begin_catch@PLT
 4493      00
 4494              	.LEHB163:
 4495 1381 E8000000 		call	_ZN8UnitTest11CurrentTest7ResultsEv@PLT
 4495      00
 4496 1386 488B28   		movq	(%rax), %rbp
 4497 1389 E8000000 		call	_ZN8UnitTest11CurrentTest7DetailsEv@PLT
 4497      00
 4498 138e 488B30   		movq	(%rax), %rsi
 4499 1391 BA3E0000 		movl	$62, %edx
 4499      00
 4500 1396 4889DF   		movq	%rbx, %rdi
 4501 1399 E8000000 		call	_ZN8UnitTest11TestDetailsC1ERKS0_i@PLT
 4501      00
 4502 139e 488D1500 		leaq	.LC24(%rip), %rdx
 4502      000000
 4503 13a5 4889DE   		movq	%rbx, %rsi
 4504 13a8 4889EF   		movq	%rbp, %rdi
 4505 13ab E8000000 		call	_ZN8UnitTest11TestResults13OnTestFailureERKNS_11TestDetailsEPKc@PLT
 4505      00
 4506              	.LEHE163:
 4507              	.LEHB164:
 4508 13b0 E8000000 		call	__cxa_end_catch@PLT
 4508      00
 4509              	.LEHE164:
 4510 13b5 E9C0FEFF 		jmp	.L298
 4510      FF
 4511              	.L320:
 4512 13ba 4989C6   		movq	%rax, %r14
 4513              	.L283:
 4514 13bd 488D0500 		leaq	16+_ZTVSt9basic_iosIcSt11char_traitsIcEE(%rip), %rax
 4514      000000
 4515 13c4 488DBD90 		leaq	144(%rbp), %rdi
 4515      000000
 4516 13cb 48898424 		movq	%rax, 288(%rsp)
 4516      20010000 
 4517 13d3 E8000000 		call	_ZNSt8ios_baseD2Ev@PLT
 4517      00
 4518 13d8 EB9F     		jmp	.L285
 4519              	.L317:
 4520 13da 4889C7   		movq	%rax, %rdi
 4521 13dd E8000000 		call	__cxa_begin_catch@PLT
 4521      00
 4522              	.LEHB165:
 4523 13e2 E8000000 		call	_ZN8UnitTest11CurrentTest7ResultsEv@PLT
 4523      00
 4524 13e7 488B28   		movq	(%rax), %rbp
 4525 13ea E8000000 		call	_ZN8UnitTest11CurrentTest7DetailsEv@PLT
 4525      00
 4526 13ef 488B30   		movq	(%rax), %rsi
 4527 13f2 BA400000 		movl	$64, %edx
 4527      00
 4528 13f7 4889DF   		movq	%rbx, %rdi
 4529 13fa E8000000 		call	_ZN8UnitTest11TestDetailsC1ERKS0_i@PLT
 4529      00
 4530 13ff 488D1500 		leaq	.LC26(%rip), %rdx
 4530      000000
 4531 1406 4889DE   		movq	%rbx, %rsi
 4532 1409 4889EF   		movq	%rbp, %rdi
 4533 140c E8000000 		call	_ZN8UnitTest11TestResults13OnTestFailureERKNS_11TestDetailsEPKc@PLT
 4533      00
 4534              	.LEHE165:
 4535              	.LEHB166:
 4536 1411 E8000000 		call	__cxa_end_catch@PLT
 4536      00
 4537              	.LEHE166:
 4538 1416 E9CEFEFF 		jmp	.L304
 4538      FF
 4539              	.L315:
 4540 141b 4889C7   		movq	%rax, %rdi
 4541 141e E8000000 		call	__cxa_begin_catch@PLT
 4541      00
 4542              	.LEHB167:
 4543 1423 E8000000 		call	_ZN8UnitTest11CurrentTest7ResultsEv@PLT
 4543      00
 4544 1428 488B28   		movq	(%rax), %rbp
 4545 142b E8000000 		call	_ZN8UnitTest11CurrentTest7DetailsEv@PLT
 4545      00
 4546 1430 488B30   		movq	(%rax), %rsi
 4547 1433 BA3F0000 		movl	$63, %edx
 4547      00
 4548 1438 4889DF   		movq	%rbx, %rdi
 4549 143b E8000000 		call	_ZN8UnitTest11TestDetailsC1ERKS0_i@PLT
 4549      00
 4550 1440 488D1500 		leaq	.LC25(%rip), %rdx
 4550      000000
 4551 1447 4889DE   		movq	%rbx, %rsi
 4552 144a 4889EF   		movq	%rbp, %rdi
 4553 144d E8000000 		call	_ZN8UnitTest11TestResults13OnTestFailureERKNS_11TestDetailsEPKc@PLT
 4553      00
 4554              	.LEHE167:
 4555              	.LEHB168:
 4556 1452 E8000000 		call	__cxa_end_catch@PLT
 4556      00
 4557              	.LEHE168:
 4558 1457 E955FEFF 		jmp	.L301
 4558      FF
 4559              	.L318:
 4560 145c 4889C3   		movq	%rax, %rbx
 4561 145f E8000000 		call	__cxa_end_catch@PLT
 4561      00
 4562 1464 4889DF   		movq	%rbx, %rdi
 4563              	.LEHB169:
 4564 1467 E8000000 		call	_Unwind_Resume@PLT
 4564      00
 4565              	.LEHE169:
 4566              	.L316:
 4567 146c 4889C3   		movq	%rax, %rbx
 4568 146f E8000000 		call	__cxa_end_catch@PLT
 4568      00
 4569 1474 4889DF   		movq	%rbx, %rdi
 4570              	.LEHB170:
 4571 1477 E8000000 		call	_Unwind_Resume@PLT
 4571      00
 4572              	.LEHE170:
 4573              	.L321:
 4574 147c 488D7D08 		leaq	8(%rbp), %rdi
 4575 1480 4989C7   		movq	%rax, %r15
 4576 1483 E8000000 		call	_ZNSt7__cxx1115basic_stringbufIcSt11char_traitsIcESaIcEED1Ev
 4576      00
 4577 1488 4C89B424 		movq	%r14, 144(%rsp)
 4577      90000000 
 4578 1490 4D89FE   		movq	%r15, %r14
 4579 1493 E925FFFF 		jmp	.L283
 4579      FF
 4580              	.L308:
 4581 1498 4889C3   		movq	%rax, %rbx
 4582 149b E8000000 		call	__cxa_end_catch@PLT
 4582      00
 4583 14a0 4889DF   		movq	%rbx, %rdi
 4584              	.LEHB171:
 4585 14a3 E8000000 		call	_Unwind_Resume@PLT
 4585      00
 4586              	.LEHE171:
 4587              	.L311:
 4588 14a8 4889C7   		movq	%rax, %rdi
 4589 14ab E8000000 		call	__cxa_begin_catch@PLT
 4589      00
 4590              	.LEHB172:
 4591 14b0 E8000000 		call	_ZN8UnitTest11CurrentTest7ResultsEv@PLT
 4591      00
 4592 14b5 488B28   		movq	(%rax), %rbp
 4593 14b8 E8000000 		call	_ZN8UnitTest11CurrentTest7DetailsEv@PLT
 4593      00
 4594 14bd 488B30   		movq	(%rax), %rsi
 4595 14c0 BA3D0000 		movl	$61, %edx
 4595      00
 4596 14c5 4889DF   		movq	%rbx, %rdi
 4597 14c8 E8000000 		call	_ZN8UnitTest11TestDetailsC1ERKS0_i@PLT
 4597      00
 4598 14cd 488D1500 		leaq	.LC5(%rip), %rdx
 4598      000000
 4599 14d4 4889DE   		movq	%rbx, %rsi
 4600 14d7 4889EF   		movq	%rbp, %rdi
 4601 14da E8000000 		call	_ZN8UnitTest11TestResults13OnTestFailureERKNS_11TestDetailsEPKc@PLT
 4601      00
 4602              	.LEHE172:
 4603              	.LEHB173:
 4604 14df E8000000 		call	__cxa_end_catch@PLT
 4604      00
 4605              	.LEHE173:
 4606 14e4 E9E9FAFF 		jmp	.L296
 4606      FF
 4607              	.L309:
 4608 14e9 4889C7   		movq	%rax, %rdi
 4609 14ec E8000000 		call	__cxa_begin_catch@PLT
 4609      00
 4610              	.LEHB174:
 4611 14f1 E8000000 		call	_ZN8UnitTest11CurrentTest7ResultsEv@PLT
 4611      00
 4612 14f6 488B28   		movq	(%rax), %rbp
 4613 14f9 E8000000 		call	_ZN8UnitTest11CurrentTest7DetailsEv@PLT
 4613      00
 4614 14fe 488B30   		movq	(%rax), %rsi
 4615 1501 BA3B0000 		movl	$59, %edx
 4615      00
 4616 1506 4889DF   		movq	%rbx, %rdi
 4617 1509 E8000000 		call	_ZN8UnitTest11TestDetailsC1ERKS0_i@PLT
 4617      00
 4618 150e 488D1500 		leaq	.LC5(%rip), %rdx
 4618      000000
 4619 1515 4889DE   		movq	%rbx, %rsi
 4620 1518 4889EF   		movq	%rbp, %rdi
 4621 151b E8000000 		call	_ZN8UnitTest11TestResults13OnTestFailureERKNS_11TestDetailsEPKc@PLT
 4621      00
 4622              	.LEHE174:
 4623              	.LEHB175:
 4624 1520 E8000000 		call	__cxa_end_catch@PLT
 4624      00
 4625              	.LEHE175:
 4626 1525 E947FAFF 		jmp	.L293
 4626      FF
 4627              	.L312:
 4628 152a 4889C3   		movq	%rax, %rbx
 4629 152d E8000000 		call	__cxa_end_catch@PLT
 4629      00
 4630 1532 4889DF   		movq	%rbx, %rdi
 4631              	.LEHB176:
 4632 1535 E8000000 		call	_Unwind_Resume@PLT
 4632      00
 4633              	.LEHE176:
 4634              	.L310:
 4635 153a 4889C3   		movq	%rax, %rbx
 4636 153d E8000000 		call	__cxa_end_catch@PLT
 4636      00
 4637 1542 4889DF   		movq	%rbx, %rdi
 4638              	.LEHB177:
 4639 1545 E8000000 		call	_Unwind_Resume@PLT
 4639      00
 4640              	.LEHE177:
 4641              	.L313:
 4642 154a 4989C6   		movq	%rax, %r14
 4643 154d E927FEFF 		jmp	.L285
 4643      FF
 4644              	.L314:
 4645 1552 4889C3   		movq	%rax, %rbx
 4646 1555 E8000000 		call	__cxa_end_catch@PLT
 4646      00
 4647 155a 4889DF   		movq	%rbx, %rdi
 4648              	.LEHB178:
 4649 155d E8000000 		call	_Unwind_Resume@PLT
 4649      00
 4650              	.LEHE178:
 4651              		.cfi_endproc
 4652              	.LFE1248:
 4653              		.section	.gcc_except_table
 4654 02ae 0000     		.align 4
 4655              	.LLSDA1248:
 4656 02b0 FF       		.byte	0xff
 4657 02b1 9B       		.byte	0x9b
 4658 02b2 BC01     		.uleb128 .LLSDATT1248-.LLSDATTD1248
 4659              	.LLSDATTD1248:
 4660 02b4 01       		.byte	0x1
 4661 02b5 AE01     		.uleb128 .LLSDACSE1248-.LLSDACSB1248
 4662              	.LLSDACSB1248:
 4663 02b7 3D       		.uleb128 .LEHB147-.LFB1248
 4664 02b8 05       		.uleb128 .LEHE147-.LEHB147
 4665 02b9 00       		.uleb128 0
 4666 02ba 00       		.uleb128 0
 4667 02bb 46       		.uleb128 .LEHB148-.LFB1248
 4668 02bc 3F       		.uleb128 .LEHE148-.LEHB148
 4669 02bd 8309     		.uleb128 .L307-.LFB1248
 4670 02bf 01       		.uleb128 0x1
 4671 02c0 9101     		.uleb128 .LEHB149-.LFB1248
 4672 02c2 05       		.uleb128 .LEHE149-.LEHB149
 4673 02c3 00       		.uleb128 0
 4674 02c4 00       		.uleb128 0
 4675 02c5 9A01     		.uleb128 .LEHB150-.LFB1248
 4676 02c7 37       		.uleb128 .LEHE150-.LEHB150
 4677 02c8 C90C     		.uleb128 .L309-.LFB1248
 4678 02ca 01       		.uleb128 0x1
 4679 02cb F001     		.uleb128 .LEHB151-.LFB1248
 4680 02cd 05       		.uleb128 .LEHE151-.LEHB151
 4681 02ce 00       		.uleb128 0
 4682 02cf 00       		.uleb128 0
 4683 02d0 FB01     		.uleb128 .LEHB152-.LFB1248
 4684 02d2 37       		.uleb128 .LEHE152-.LEHB152
 4685 02d3 880C     		.uleb128 .L311-.LFB1248
 4686 02d5 01       		.uleb128 0x1
 4687 02d6 B202     		.uleb128 .LEHB153-.LFB1248
 4688 02d8 1A       		.uleb128 .LEHE153-.LEHB153
 4689 02d9 AA0D     		.uleb128 .L313-.LFB1248
 4690 02db 01       		.uleb128 0x1
 4691 02dc E103     		.uleb128 .LEHB154-.LFB1248
 4692 02de 05       		.uleb128 .LEHE154-.LEHB154
 4693 02df 9A0A     		.uleb128 .L320-.LFB1248
 4694 02e1 03       		.uleb128 0x3
 4695 02e2 8205     		.uleb128 .LEHB155-.LFB1248
 4696 02e4 05       		.uleb128 .LEHE155-.LEHB155
 4697 02e5 DC0B     		.uleb128 .L321-.LFB1248
 4698 02e7 03       		.uleb128 0x3
 4699 02e8 D405     		.uleb128 .LEHB156-.LFB1248
 4700 02ea 5F       		.uleb128 .LEHE156-.LEHB156
 4701 02eb CE09     		.uleb128 .L319-.LFB1248
 4702 02ed 03       		.uleb128 0x3
 4703 02ee D507     		.uleb128 .LEHB157-.LFB1248
 4704 02f0 05       		.uleb128 .LEHE157-.LEHB157
 4705 02f1 AA0D     		.uleb128 .L313-.LFB1248
 4706 02f3 01       		.uleb128 0x1
 4707 02f4 DA07     		.uleb128 .LEHB158-.LFB1248
 4708 02f6 37       		.uleb128 .LEHE158-.LEHB158
 4709 02f7 FB0A     		.uleb128 .L315-.LFB1248
 4710 02f9 01       		.uleb128 0x1
 4711 02fa 9108     		.uleb128 .LEHB159-.LFB1248
 4712 02fc 38       		.uleb128 .LEHE159-.LEHB159
 4713 02fd BA0A     		.uleb128 .L317-.LFB1248
 4714 02ff 01       		.uleb128 0x1
 4715 0300 CC08     		.uleb128 .LEHB160-.LFB1248
 4716 0302 0D       		.uleb128 .LEHE160-.LEHB160
 4717 0303 00       		.uleb128 0
 4718 0304 00       		.uleb128 0
 4719 0305 8B09     		.uleb128 .LEHB161-.LFB1248
 4720 0307 34       		.uleb128 .LEHE161-.LEHB161
 4721 0308 F80B     		.uleb128 .L308-.LFB1248
 4722 030a 00       		.uleb128 0
 4723 030b BF09     		.uleb128 .LEHB162-.LFB1248
 4724 030d 05       		.uleb128 .LEHE162-.LEHB162
 4725 030e 00       		.uleb128 0
 4726 030f 00       		.uleb128 0
 4727 0310 E109     		.uleb128 .LEHB163-.LFB1248
 4728 0312 2F       		.uleb128 .LEHE163-.LEHB163
 4729 0313 B20D     		.uleb128 .L314-.LFB1248
 4730 0315 00       		.uleb128 0
 4731 0316 900A     		.uleb128 .LEHB164-.LFB1248
 4732 0318 05       		.uleb128 .LEHE164-.LEHB164
 4733 0319 00       		.uleb128 0
 4734 031a 00       		.uleb128 0
 4735 031b C20A     		.uleb128 .LEHB165-.LFB1248
 4736 031d 2F       		.uleb128 .LEHE165-.LEHB165
 4737 031e BC0B     		.uleb128 .L318-.LFB1248
 4738 0320 00       		.uleb128 0
 4739 0321 F10A     		.uleb128 .LEHB166-.LFB1248
 4740 0323 05       		.uleb128 .LEHE166-.LEHB166
 4741 0324 00       		.uleb128 0
 4742 0325 00       		.uleb128 0
 4743 0326 830B     		.uleb128 .LEHB167-.LFB1248
 4744 0328 2F       		.uleb128 .LEHE167-.LEHB167
 4745 0329 CC0B     		.uleb128 .L316-.LFB1248
 4746 032b 00       		.uleb128 0
 4747 032c B20B     		.uleb128 .LEHB168-.LFB1248
 4748 032e 05       		.uleb128 .LEHE168-.LEHB168
 4749 032f 00       		.uleb128 0
 4750 0330 00       		.uleb128 0
 4751 0331 C70B     		.uleb128 .LEHB169-.LFB1248
 4752 0333 05       		.uleb128 .LEHE169-.LEHB169
 4753 0334 00       		.uleb128 0
 4754 0335 00       		.uleb128 0
 4755 0336 D70B     		.uleb128 .LEHB170-.LFB1248
 4756 0338 05       		.uleb128 .LEHE170-.LEHB170
 4757 0339 00       		.uleb128 0
 4758 033a 00       		.uleb128 0
 4759 033b 830C     		.uleb128 .LEHB171-.LFB1248
 4760 033d 05       		.uleb128 .LEHE171-.LEHB171
 4761 033e 00       		.uleb128 0
 4762 033f 00       		.uleb128 0
 4763 0340 900C     		.uleb128 .LEHB172-.LFB1248
 4764 0342 2F       		.uleb128 .LEHE172-.LEHB172
 4765 0343 8A0D     		.uleb128 .L312-.LFB1248
 4766 0345 00       		.uleb128 0
 4767 0346 BF0C     		.uleb128 .LEHB173-.LFB1248
 4768 0348 05       		.uleb128 .LEHE173-.LEHB173
 4769 0349 00       		.uleb128 0
 4770 034a 00       		.uleb128 0
 4771 034b D10C     		.uleb128 .LEHB174-.LFB1248
 4772 034d 2F       		.uleb128 .LEHE174-.LEHB174
 4773 034e 9A0D     		.uleb128 .L310-.LFB1248
 4774 0350 00       		.uleb128 0
 4775 0351 800D     		.uleb128 .LEHB175-.LFB1248
 4776 0353 05       		.uleb128 .LEHE175-.LEHB175
 4777 0354 00       		.uleb128 0
 4778 0355 00       		.uleb128 0
 4779 0356 950D     		.uleb128 .LEHB176-.LFB1248
 4780 0358 05       		.uleb128 .LEHE176-.LEHB176
 4781 0359 00       		.uleb128 0
 4782 035a 00       		.uleb128 0
 4783 035b A50D     		.uleb128 .LEHB177-.LFB1248
 4784 035d 05       		.uleb128 .LEHE177-.LEHB177
 4785 035e 00       		.uleb128 0
 4786 035f 00       		.uleb128 0
 4787 0360 BD0D     		.uleb128 .LEHB178-.LFB1248
 4788 0362 05       		.uleb128 .LEHE178-.LEHB178
 4789 0363 00       		.uleb128 0
 4790 0364 00       		.uleb128 0
 4791              	.LLSDACSE1248:
 4792 0365 01       		.byte	0x1
 4793 0366 00       		.byte	0
 4794 0367 00       		.byte	0
 4795 0368 7D       		.byte	0x7d
 4796 0369 000000   		.align 4
 4797 036c 00000000 		.long	0
 4798              	
 4799              	.LLSDATT1248:
 4800              		.text
 4802              		.section	.rodata.str1.1
 4803              	.LC27:
 4804 00cb 3A303430 		.string	":040BE10075820022F7\n"
 4804      42453130 
 4804      30373538 
 4804      32303032 
 4804      3246370A 
 4805              	.LC28:
 4806 00e0 45787065 		.string	"Expected [ "
 4806      63746564 
 4806      205B2000 
 4807              	.LC29:
 4808 00ec 2000     		.string	" "
 4809              	.LC30:
 4810 00ee 5D206275 		.string	"] but was [ "
 4810      74207761 
 4810      73205B20 
 4810      00
 4811              	.LC31:
 4812 00fb 5D00     		.string	"]"
 4813              		.section	.rodata.str1.8
 4814 031d 000000   		.align 8
 4815              	.LC32:
 4816 0320 556E6861 		.string	"Unhandled exception in CHECK_EQUAL(0x00, recordType)"
 4816      6E646C65 
 4816      64206578 
 4816      63657074 
 4816      696F6E20 
 4817 0355 000000   		.align 8
 4818              	.LC33:
 4819 0358 556E6861 		.string	"Unhandled exception in CHECK_EQUAL(0x0BE1+4UL, data.length)"
 4819      6E646C65 
 4819      64206578 
 4819      63657074 
 4819      696F6E20 
 4820 0394 00000000 		.align 8
 4821              	.LC34:
 4822 0398 556E6861 		.string	"Unhandled exception in CHECK_EQUAL(0x0BE1+4UL, mask.length)"
 4822      6E646C65 
 4822      64206578 
 4822      63657074 
 4822      696F6E20 
 4823 03d4 00000000 		.align 8
 4824              	.LC35:
 4825 03d8 556E6861 		.string	"Unhandled exception in CHECK_EQUAL(4096UL, data.capacity)"
 4825      6E646C65 
 4825      64206578 
 4825      63657074 
 4825      696F6E20 
 4826 0412 00000000 		.align 8
 4826      0000
 4827              	.LC36:
 4828 0418 556E6861 		.string	"Unhandled exception in CHECK_EQUAL(4096UL, mask.capacity)"
 4828      6E646C65 
 4828      64206578 
 4828      63657074 
 4828      696F6E20 
 4829 0452 00000000 		.align 8
 4829      0000
 4830              	.LC37:
 4831 0458 556E6861 		.string	"Unhandled exception in CHECK_ARRAY_EQUAL(expected, data.data + 0x0BE1)"
 4831      6E646C65 
 4831      64206578 
 4831      63657074 
 4831      696F6E20 
 4832              		.text
 4833              		.align 2
 4834 1562 0F1F4000 		.p2align 4,,15
 4834      662E0F1F 
 4834      84000000 
 4834      0000
 4835              		.globl	_ZNK27TestHexIO_testValidDataLine7RunImplEv
 4837              	_ZNK27TestHexIO_testValidDataLine7RunImplEv:
 4838              	.LFB1244:
 4839              		.cfi_startproc
 4840              		.cfi_personality 0x9b,DW.ref.__gxx_personality_v0
 4841              		.cfi_lsda 0x1b,.LLSDA1244
 4842 1570 4157     		pushq	%r15
 4843              		.cfi_def_cfa_offset 16
 4844              		.cfi_offset 15, -16
 4845 1572 4156     		pushq	%r14
 4846              		.cfi_def_cfa_offset 24
 4847              		.cfi_offset 14, -24
 4848 1574 31C9     		xorl	%ecx, %ecx
 4849 1576 4155     		pushq	%r13
 4850              		.cfi_def_cfa_offset 32
 4851              		.cfi_offset 13, -32
 4852 1578 4154     		pushq	%r12
 4853              		.cfi_def_cfa_offset 40
 4854              		.cfi_offset 12, -40
 4855 157a 31D2     		xorl	%edx, %edx
 4856 157c 55       		pushq	%rbp
 4857              		.cfi_def_cfa_offset 48
 4858              		.cfi_offset 6, -48
 4859 157d 53       		pushq	%rbx
 4860              		.cfi_def_cfa_offset 56
 4861              		.cfi_offset 3, -56
 4862 157e BE000400 		movl	$1024, %esi
 4862      00
 4863 1583 4881EC58 		subq	$600, %rsp
 4863      020000
 4864              		.cfi_def_cfa_offset 656
 4865 158a 64488B04 		movq	%fs:40, %rax
 4865      25280000 
 4865      00
 4866 1593 48898424 		movq	%rax, 584(%rsp)
 4866      48020000 
 4867 159b 31C0     		xorl	%eax, %eax
 4868 159d 488D4424 		leaq	64(%rsp), %rax
 4868      40
 4869 15a2 C7442434 		movl	$0, 52(%rsp)
 4869      00000000 
 4870 15aa C7842444 		movl	$570458741, 580(%rsp)
 4870      02000075 
 4870      820022
 4871 15b5 4889C7   		movq	%rax, %rdi
 4872 15b8 48890424 		movq	%rax, (%rsp)
 4873              	.LEHB179:
 4874 15bc E8000000 		call	bufInitialise@PLT
 4874      00
 4875              	.LEHE179:
 4876 15c1 89442430 		movl	%eax, 48(%rsp)
 4877              	.LEHB180:
 4878 15c5 E8000000 		call	_ZN8UnitTest11CurrentTest7DetailsEv@PLT
 4878      00
 4879 15ca 488D9C24 		leaq	128(%rsp), %rbx
 4879      80000000 
 4880 15d2 488B30   		movq	(%rax), %rsi
 4881 15d5 BA230000 		movl	$35, %edx
 4881      00
 4882 15da 4889DF   		movq	%rbx, %rdi
 4883 15dd E8000000 		call	_ZN8UnitTest11TestDetailsC1ERKS0_i@PLT
 4883      00
 4884 15e2 C7442460 		movl	$0, 96(%rsp)
 4884      00000000 
 4885 15ea E8000000 		call	_ZN8UnitTest11CurrentTest7ResultsEv@PLT
 4885      00
 4886 15ef 4C8D7424 		leaq	96(%rsp), %r14
 4886      60
 4887 15f4 488B38   		movq	(%rax), %rdi
 4888 15f7 488D5424 		leaq	48(%rsp), %rdx
 4888      30
 4889 15fc 4889D9   		movq	%rbx, %rcx
 4890 15ff 4C89F6   		movq	%r14, %rsi
 4891 1602 E8000000 		call	_ZN8UnitTest10CheckEqualI12BufferStatusS1_EEvRNS_11TestResultsERKT_RKT0_RKNS_11TestDetailsE
 4891      00
 4892              	.LEHE180:
 4893              	.L340:
 4894 1607 31C9     		xorl	%ecx, %ecx
 4895 1609 31D2     		xorl	%edx, %edx
 4896 160b BE000400 		movl	$1024, %esi
 4896      00
 4897 1610 4C89F7   		movq	%r14, %rdi
 4898              	.LEHB181:
 4899 1613 E8000000 		call	bufInitialise@PLT
 4899      00
 4900              	.LEHE181:
 4901 1618 89442430 		movl	%eax, 48(%rsp)
 4902              	.LEHB182:
 4903 161c E8000000 		call	_ZN8UnitTest11CurrentTest7DetailsEv@PLT
 4903      00
 4904 1621 488B30   		movq	(%rax), %rsi
 4905 1624 BA250000 		movl	$37, %edx
 4905      00
 4906 1629 4889DF   		movq	%rbx, %rdi
 4907 162c E8000000 		call	_ZN8UnitTest11TestDetailsC1ERKS0_i@PLT
 4907      00
 4908 1631 C7442438 		movl	$0, 56(%rsp)
 4908      00000000 
 4909 1639 E8000000 		call	_ZN8UnitTest11CurrentTest7ResultsEv@PLT
 4909      00
 4910 163e 488D6C24 		leaq	56(%rsp), %rbp
 4910      38
 4911 1643 488B38   		movq	(%rax), %rdi
 4912 1646 488D5424 		leaq	48(%rsp), %rdx
 4912      30
 4913 164b 4889D9   		movq	%rbx, %rcx
 4914 164e 4889EE   		movq	%rbp, %rsi
 4915 1651 E8000000 		call	_ZN8UnitTest10CheckEqualI12BufferStatusS1_EEvRNS_11TestResultsERKT_RKT0_RKNS_11TestDetailsE
 4915      00
 4916              	.LEHE182:
 4917              	.L343:
 4918 1656 4C8D6424 		leaq	46(%rsp), %r12
 4918      2E
 4919 165b 4883EC08 		subq	$8, %rsp
 4920              		.cfi_def_cfa_offset 664
 4921 165f 488D3D00 		leaq	.LC27(%rip), %rdi
 4921      000000
 4922 1666 6A00     		pushq	$0
 4923              		.cfi_def_cfa_offset 672
 4924 1668 488B5424 		movq	16(%rsp), %rdx
 4924      10
 4925 166d 4C89F1   		movq	%r14, %rcx
 4926 1670 4D89E1   		movq	%r12, %r9
 4927 1673 31F6     		xorl	%esi, %esi
 4928 1675 4C8D4424 		leaq	68(%rsp), %r8
 4928      44
 4929              	.LEHB183:
 4930 167a E8000000 		call	bufProcessLine@PLT
 4930      00
 4931              	.LEHE183:
 4932 167f 89442440 		movl	%eax, 64(%rsp)
 4933 1683 58       		popq	%rax
 4934              		.cfi_def_cfa_offset 664
 4935 1684 5A       		popq	%rdx
 4936              		.cfi_def_cfa_offset 656
 4937              	.LEHB184:
 4938 1685 E8000000 		call	_ZN8UnitTest11CurrentTest7DetailsEv@PLT
 4938      00
 4939 168a 488B30   		movq	(%rax), %rsi
 4940 168d BA270000 		movl	$39, %edx
 4940      00
 4941 1692 4889DF   		movq	%rbx, %rdi
 4942 1695 E8000000 		call	_ZN8UnitTest11TestDetailsC1ERKS0_i@PLT
 4942      00
 4943 169a C7442438 		movl	$0, 56(%rsp)
 4943      00000000 
 4944 16a2 E8000000 		call	_ZN8UnitTest11CurrentTest7ResultsEv@PLT
 4944      00
 4945 16a7 488D6C24 		leaq	56(%rsp), %rbp
 4945      38
 4946 16ac 488B38   		movq	(%rax), %rdi
 4947 16af 488D5424 		leaq	48(%rsp), %rdx
 4947      30
 4948 16b4 4889D9   		movq	%rbx, %rcx
 4949 16b7 4889EE   		movq	%rbp, %rsi
 4950 16ba E8000000 		call	_ZN8UnitTest10CheckEqualI12BufferStatusS1_EEvRNS_11TestResultsERKT_RKT0_RKNS_11TestDetailsE
 4950      00
 4951              	.LEHE184:
 4952              	.L346:
 4953              	.LEHB185:
 4954 16bf E8000000 		call	_ZN8UnitTest11CurrentTest7DetailsEv@PLT
 4954      00
 4955 16c4 488B30   		movq	(%rax), %rsi
 4956 16c7 BA280000 		movl	$40, %edx
 4956      00
 4957 16cc 4889DF   		movq	%rbx, %rdi
 4958 16cf E8000000 		call	_ZN8UnitTest11TestDetailsC1ERKS0_i@PLT
 4958      00
 4959 16d4 C7442438 		movl	$0, 56(%rsp)
 4959      00000000 
 4960 16dc E8000000 		call	_ZN8UnitTest11CurrentTest7ResultsEv@PLT
 4960      00
 4961 16e1 488D6C24 		leaq	56(%rsp), %rbp
 4961      38
 4962 16e6 488B38   		movq	(%rax), %rdi
 4963 16e9 4889D9   		movq	%rbx, %rcx
 4964 16ec 4C89E2   		movq	%r12, %rdx
 4965 16ef 4889EE   		movq	%rbp, %rsi
 4966 16f2 E8000000 		call	_ZN8UnitTest10CheckEqualIihEEvRNS_11TestResultsERKT_RKT0_RKNS_11TestDetailsE
 4966      00
 4967              	.LEHE185:
 4968              	.L349:
 4969              	.LEHB186:
 4970 16f7 E8000000 		call	_ZN8UnitTest11CurrentTest7DetailsEv@PLT
 4970      00
 4971 16fc 488B30   		movq	(%rax), %rsi
 4972 16ff BA290000 		movl	$41, %edx
 4972      00
 4973 1704 4889DF   		movq	%rbx, %rdi
 4974 1707 E8000000 		call	_ZN8UnitTest11TestDetailsC1ERKS0_i@PLT
 4974      00
 4975 170c 48C74424 		movq	$3045, 56(%rsp)
 4975      38E50B00 
 4975      00
 4976 1715 E8000000 		call	_ZN8UnitTest11CurrentTest7ResultsEv@PLT
 4976      00
 4977 171a 488B0C24 		movq	(%rsp), %rcx
 4978 171e 488D6C24 		leaq	56(%rsp), %rbp
 4978      38
 4979 1723 488B38   		movq	(%rax), %rdi
 4980 1726 4889EE   		movq	%rbp, %rsi
 4981 1729 488D5108 		leaq	8(%rcx), %rdx
 4982 172d 4889D9   		movq	%rbx, %rcx
 4983 1730 E8000000 		call	_ZN8UnitTest10CheckEqualImmEEvRNS_11TestResultsERKT_RKT0_RKNS_11TestDetailsE
 4983      00
 4984              	.LEHE186:
 4985              	.L352:
 4986              	.LEHB187:
 4987 1735 E8000000 		call	_ZN8UnitTest11CurrentTest7DetailsEv@PLT
 4987      00
 4988 173a 488B30   		movq	(%rax), %rsi
 4989 173d BA2A0000 		movl	$42, %edx
 4989      00
 4990 1742 4889DF   		movq	%rbx, %rdi
 4991 1745 E8000000 		call	_ZN8UnitTest11TestDetailsC1ERKS0_i@PLT
 4991      00
 4992 174a 48C74424 		movq	$3045, 56(%rsp)
 4992      38E50B00 
 4992      00
 4993 1753 E8000000 		call	_ZN8UnitTest11CurrentTest7ResultsEv@PLT
 4993      00
 4994 1758 488D6C24 		leaq	56(%rsp), %rbp
 4994      38
 4995 175d 488B38   		movq	(%rax), %rdi
 4996 1760 498D5608 		leaq	8(%r14), %rdx
 4997 1764 4889D9   		movq	%rbx, %rcx
 4998 1767 4889EE   		movq	%rbp, %rsi
 4999 176a E8000000 		call	_ZN8UnitTest10CheckEqualImmEEvRNS_11TestResultsERKT_RKT0_RKNS_11TestDetailsE
 4999      00
 5000              	.LEHE187:
 5001              	.L355:
 5002              	.LEHB188:
 5003 176f E8000000 		call	_ZN8UnitTest11CurrentTest7DetailsEv@PLT
 5003      00
 5004 1774 488B30   		movq	(%rax), %rsi
 5005 1777 BA2B0000 		movl	$43, %edx
 5005      00
 5006 177c 4889DF   		movq	%rbx, %rdi
 5007 177f E8000000 		call	_ZN8UnitTest11TestDetailsC1ERKS0_i@PLT
 5007      00
 5008 1784 48C74424 		movq	$4096, 56(%rsp)
 5008      38001000 
 5008      00
 5009 178d E8000000 		call	_ZN8UnitTest11CurrentTest7ResultsEv@PLT
 5009      00
 5010 1792 488B0C24 		movq	(%rsp), %rcx
 5011 1796 488D6C24 		leaq	56(%rsp), %rbp
 5011      38
 5012 179b 488B38   		movq	(%rax), %rdi
 5013 179e 4889EE   		movq	%rbp, %rsi
 5014 17a1 488D5110 		leaq	16(%rcx), %rdx
 5015 17a5 4889D9   		movq	%rbx, %rcx
 5016 17a8 E8000000 		call	_ZN8UnitTest10CheckEqualImmEEvRNS_11TestResultsERKT_RKT0_RKNS_11TestDetailsE
 5016      00
 5017              	.LEHE188:
 5018              	.L358:
 5019              	.LEHB189:
 5020 17ad E8000000 		call	_ZN8UnitTest11CurrentTest7DetailsEv@PLT
 5020      00
 5021 17b2 488B30   		movq	(%rax), %rsi
 5022 17b5 BA2C0000 		movl	$44, %edx
 5022      00
 5023 17ba 4889DF   		movq	%rbx, %rdi
 5024 17bd E8000000 		call	_ZN8UnitTest11TestDetailsC1ERKS0_i@PLT
 5024      00
 5025 17c2 48C74424 		movq	$4096, 56(%rsp)
 5025      38001000 
 5025      00
 5026 17cb E8000000 		call	_ZN8UnitTest11CurrentTest7ResultsEv@PLT
 5026      00
 5027 17d0 488D6C24 		leaq	56(%rsp), %rbp
 5027      38
 5028 17d5 488B38   		movq	(%rax), %rdi
 5029 17d8 498D5610 		leaq	16(%r14), %rdx
 5030 17dc 4889D9   		movq	%rbx, %rcx
 5031 17df 4889EE   		movq	%rbp, %rsi
 5032 17e2 E8000000 		call	_ZN8UnitTest10CheckEqualImmEEvRNS_11TestResultsERKT_RKT0_RKNS_11TestDetailsE
 5032      00
 5033              	.LEHE189:
 5034              	.L361:
 5035              	.LEHB190:
 5036 17e7 E8000000 		call	_ZN8UnitTest11CurrentTest7DetailsEv@PLT
 5036      00
 5037 17ec 488B30   		movq	(%rax), %rsi
 5038 17ef BA2D0000 		movl	$45, %edx
 5038      00
 5039 17f4 4889DF   		movq	%rbx, %rdi
 5040 17f7 E8000000 		call	_ZN8UnitTest11TestDetailsC1ERKS0_i@PLT
 5040      00
 5041 17fc 4C8B7C24 		movq	64(%rsp), %r15
 5041      40
 5042 1801 498D87E1 		leaq	3041(%r15), %rax
 5042      0B0000
 5043 1808 48894424 		movq	%rax, 16(%rsp)
 5043      10
 5044 180d E8000000 		call	_ZN8UnitTest11CurrentTest7ResultsEv@PLT
 5044      00
 5045              	.LEHE190:
 5046 1812 0FB68C24 		movzbl	580(%rsp), %ecx
 5046      44020000 
 5047 181a 41388FE1 		cmpb	%cl, 3041(%r15)
 5047      0B0000
 5048 1821 0FB68C24 		movzbl	581(%rsp), %ecx
 5048      45020000 
 5049 1829 0F94C2   		sete	%dl
 5050 182c 41388FE2 		cmpb	%cl, 3042(%r15)
 5050      0B0000
 5051 1833 0F94C1   		sete	%cl
 5052 1836 21CA     		andl	%ecx, %edx
 5053 1838 410FB68F 		movzbl	3043(%r15), %ecx
 5053      E30B0000 
 5054 1840 388C2446 		cmpb	%cl, 582(%rsp)
 5054      020000
 5055 1847 0F94C1   		sete	%cl
 5056 184a 84CA     		testb	%cl, %dl
 5057 184c 7452     		je	.L388
 5058 184e 410FB68F 		movzbl	3044(%r15), %ecx
 5058      E40B0000 
 5059 1856 388C2447 		cmpb	%cl, 583(%rsp)
 5059      020000
 5060 185d 7541     		jne	.L388
 5061              	.L363:
 5062 185f 4C89F7   		movq	%r14, %rdi
 5063              	.LEHB191:
 5064 1862 E8000000 		call	bufDestroy@PLT
 5064      00
 5065 1867 488B3C24 		movq	(%rsp), %rdi
 5066 186b E8000000 		call	bufDestroy@PLT
 5066      00
 5067              	.LEHE191:
 5068 1870 488B8424 		movq	584(%rsp), %rax
 5068      48020000 
 5069 1878 64483304 		xorq	%fs:40, %rax
 5069      25280000 
 5069      00
 5070 1881 0F854403 		jne	.L398
 5070      0000
 5071 1887 4881C458 		addq	$600, %rsp
 5071      020000
 5072              		.cfi_remember_state
 5073              		.cfi_def_cfa_offset 56
 5074 188e 5B       		popq	%rbx
 5075              		.cfi_def_cfa_offset 48
 5076 188f 5D       		popq	%rbp
 5077              		.cfi_def_cfa_offset 40
 5078 1890 415C     		popq	%r12
 5079              		.cfi_def_cfa_offset 32
 5080 1892 415D     		popq	%r13
 5081              		.cfi_def_cfa_offset 24
 5082 1894 415E     		popq	%r14
 5083              		.cfi_def_cfa_offset 16
 5084 1896 415F     		popq	%r15
 5085              		.cfi_def_cfa_offset 8
 5086 1898 C3       		ret
 5087 1899 0F1F8000 		.p2align 4,,10
 5087      000000
 5088              		.p2align 3
 5089              	.L388:
 5090              		.cfi_restore_state
 5091 18a0 4C8DA424 		leaq	160(%rsp), %r12
 5091      A0000000 
 5092 18a8 488B00   		movq	(%rax), %rax
 5093 18ab 498DAC24 		leaq	144(%r12), %rbp
 5093      90000000 
 5094 18b3 48894424 		movq	%rax, 24(%rsp)
 5094      18
 5095 18b8 4889EF   		movq	%rbp, %rdi
 5096 18bb E8000000 		call	_ZNSt8ios_baseC2Ev@PLT
 5096      00
 5097 18c0 488D0500 		leaq	24+_ZTCN8UnitTest15MemoryOutStreamE0_So(%rip), %rax
 5097      000000
 5098 18c7 31F6     		xorl	%esi, %esi
 5099 18c9 4889EF   		movq	%rbp, %rdi
 5100 18cc 48C78424 		movq	$0, 520(%rsp)
 5100      08020000 
 5100      00000000 
 5101 18d8 C6842410 		movb	$0, 528(%rsp)
 5101      02000000 
 5102 18e0 48898424 		movq	%rax, 160(%rsp)
 5102      A0000000 
 5103 18e8 4883C028 		addq	$40, %rax
 5104 18ec C6842411 		movb	$0, 529(%rsp)
 5104      02000000 
 5105 18f4 48C78424 		movq	$0, 536(%rsp)
 5105      18020000 
 5105      00000000 
 5106 1900 48C78424 		movq	$0, 544(%rsp)
 5106      20020000 
 5106      00000000 
 5107 190c 48C78424 		movq	$0, 552(%rsp)
 5107      28020000 
 5107      00000000 
 5108 1918 48C78424 		movq	$0, 560(%rsp)
 5108      30020000 
 5108      00000000 
 5109 1924 48898424 		movq	%rax, 304(%rsp)
 5109      30010000 
 5110              	.LEHB192:
 5111 192c E8000000 		call	_ZNSt9basic_iosIcSt11char_traitsIcEE4initEPSt15basic_streambufIcS1_E@PLT
 5111      00
 5112              	.LEHE192:
 5113 1931 488D0500 		leaq	24+_ZTCN8UnitTest15MemoryOutStreamE0_NSt7__cxx1119basic_ostringstreamIcSt11char_traitsIcESaIc
 5113      000000
 5114 1938 660FEFC0 		pxor	%xmm0, %xmm0
 5115 193c 498D7C24 		leaq	64(%r12), %rdi
 5115      40
 5116 1941 48898424 		movq	%rax, 160(%rsp)
 5116      A0000000 
 5117 1949 4883C028 		addq	$40, %rax
 5118 194d 48898424 		movq	%rax, 304(%rsp)
 5118      30010000 
 5119 1955 488D0500 		leaq	16+_ZTVSt15basic_streambufIcSt11char_traitsIcEE(%rip), %rax
 5119      000000
 5120 195c 0F298424 		movaps	%xmm0, 176(%rsp)
 5120      B0000000 
 5121 1964 48898424 		movq	%rax, 168(%rsp)
 5121      A8000000 
 5122 196c 0F298424 		movaps	%xmm0, 192(%rsp)
 5122      C0000000 
 5123 1974 0F298424 		movaps	%xmm0, 208(%rsp)
 5123      D0000000 
 5124 197c E8000000 		call	_ZNSt6localeC1Ev@PLT
 5124      00
 5125 1981 488D0500 		leaq	16+_ZTVNSt7__cxx1115basic_stringbufIcSt11char_traitsIcESaIcEEE(%rip), %rax
 5125      000000
 5126 1988 498D7424 		leaq	8(%r12), %rsi
 5126      08
 5127 198d 48898424 		movq	%rax, 168(%rsp)
 5127      A8000000 
 5128 1995 498D4424 		leaq	96(%r12), %rax
 5128      60
 5129 199a C78424E8 		movl	$16, 232(%rsp)
 5129      00000010 
 5129      000000
 5130 19a5 48C78424 		movq	$0, 248(%rsp)
 5130      F8000000 
 5130      00000000 
 5131 19b1 C6842400 		movb	$0, 256(%rsp)
 5131      01000000 
 5132 19b9 48898424 		movq	%rax, 240(%rsp)
 5132      F0000000 
 5133 19c1 488B8424 		movq	160(%rsp), %rax
 5133      A0000000 
 5134 19c9 488B78E8 		movq	-24(%rax), %rdi
 5135 19cd 4C01E7   		addq	%r12, %rdi
 5136              	.LEHB193:
 5137 19d0 E8000000 		call	_ZNSt9basic_iosIcSt11char_traitsIcEE4initEPSt15basic_streambufIcS1_E@PLT
 5137      00
 5138              	.LEHE193:
 5139 19d5 488D0500 		leaq	24+_ZTVN8UnitTest15MemoryOutStreamE(%rip), %rax
 5139      000000
 5140 19dc 488D3500 		leaq	.LC28(%rip), %rsi
 5140      000000
 5141 19e3 BA0B0000 		movl	$11, %edx
 5141      00
 5142 19e8 4C89E7   		movq	%r12, %rdi
 5143 19eb 48C78424 		movq	$0, 280(%rsp)
 5143      18010000 
 5143      00000000 
 5144 19f7 C6842420 		movb	$0, 288(%rsp)
 5144      01000000 
 5145 19ff 48898424 		movq	%rax, 160(%rsp)
 5145      A0000000 
 5146 1a07 4883C028 		addq	$40, %rax
 5147 1a0b 48898424 		movq	%rax, 304(%rsp)
 5147      30010000 
 5148 1a13 498D8424 		leaq	128(%r12), %rax
 5148      80000000 
 5149 1a1b 48898424 		movq	%rax, 272(%rsp)
 5149      10010000 
 5150              	.LEHB194:
 5151 1a23 E8000000 		call	_ZSt16__ostream_insertIcSt11char_traitsIcEERSt13basic_ostreamIT_T0_ES6_PKS3_l@PLT
 5151      00
 5152 1a28 488D4424 		leaq	47(%rsp), %rax
 5152      2F
 5153 1a2d 4C8DAC24 		leaq	580(%rsp), %r13
 5153      44020000 
 5154 1a35 31ED     		xorl	%ebp, %ebp
 5155 1a37 48894424 		movq	%rax, 8(%rsp)
 5155      08
 5156              	.L333:
 5157 1a3c 410FB644 		movzbl	0(%r13,%rbp), %eax
 5157      2D00
 5158 1a42 488B7424 		movq	8(%rsp), %rsi
 5158      08
 5159 1a47 BA010000 		movl	$1, %edx
 5159      00
 5160 1a4c 4C89E7   		movq	%r12, %rdi
 5161 1a4f 8844242F 		movb	%al, 47(%rsp)
 5162 1a53 E8000000 		call	_ZSt16__ostream_insertIcSt11char_traitsIcEERSt13basic_ostreamIT_T0_ES6_PKS3_l@PLT
 5162      00
 5163 1a58 488D3500 		leaq	.LC29(%rip), %rsi
 5163      000000
 5164 1a5f BA010000 		movl	$1, %edx
 5164      00
 5165 1a64 4889C7   		movq	%rax, %rdi
 5166 1a67 E8000000 		call	_ZSt16__ostream_insertIcSt11char_traitsIcEERSt13basic_ostreamIT_T0_ES6_PKS3_l@PLT
 5166      00
 5167 1a6c 4883C501 		addq	$1, %rbp
 5168 1a70 4883FD04 		cmpq	$4, %rbp
 5169 1a74 75C6     		jne	.L333
 5170 1a76 488D3500 		leaq	.LC30(%rip), %rsi
 5170      000000
 5171 1a7d BA0C0000 		movl	$12, %edx
 5171      00
 5172 1a82 4C89E7   		movq	%r12, %rdi
 5173 1a85 E8000000 		call	_ZSt16__ostream_insertIcSt11char_traitsIcEERSt13basic_ostreamIT_T0_ES6_PKS3_l@PLT
 5173      00
 5174 1a8a 498D87E5 		leaq	3045(%r15), %rax
 5174      0B0000
 5175 1a91 4C8B6C24 		movq	16(%rsp), %r13
 5175      10
 5176 1a96 488D6C24 		leaq	56(%rsp), %rbp
 5176      38
 5177 1a9b 4C8D3D00 		leaq	.LC29(%rip), %r15
 5177      000000
 5178 1aa2 48894424 		movq	%rax, 8(%rsp)
 5178      08
 5179 1aa7 660F1F84 		.p2align 4,,10
 5179      00000000 
 5179      00
 5180              		.p2align 3
 5181              	.L335:
 5182 1ab0 410FB645 		movzbl	0(%r13), %eax
 5182      00
 5183 1ab5 BA010000 		movl	$1, %edx
 5183      00
 5184 1aba 4889EE   		movq	%rbp, %rsi
 5185 1abd 4C89E7   		movq	%r12, %rdi
 5186 1ac0 88442438 		movb	%al, 56(%rsp)
 5187 1ac4 E8000000 		call	_ZSt16__ostream_insertIcSt11char_traitsIcEERSt13basic_ostreamIT_T0_ES6_PKS3_l@PLT
 5187      00
 5188 1ac9 BA010000 		movl	$1, %edx
 5188      00
 5189 1ace 4C89FE   		movq	%r15, %rsi
 5190 1ad1 4889C7   		movq	%rax, %rdi
 5191 1ad4 E8000000 		call	_ZSt16__ostream_insertIcSt11char_traitsIcEERSt13basic_ostreamIT_T0_ES6_PKS3_l@PLT
 5191      00
 5192 1ad9 4983C501 		addq	$1, %r13
 5193 1add 4C396C24 		cmpq	%r13, 8(%rsp)
 5193      08
 5194 1ae2 75CC     		jne	.L335
 5195 1ae4 488D3500 		leaq	.LC31(%rip), %rsi
 5195      000000
 5196 1aeb BA010000 		movl	$1, %edx
 5196      00
 5197 1af0 4C89E7   		movq	%r12, %rdi
 5198 1af3 E8000000 		call	_ZSt16__ostream_insertIcSt11char_traitsIcEERSt13basic_ostreamIT_T0_ES6_PKS3_l@PLT
 5198      00
 5199 1af8 4C89E7   		movq	%r12, %rdi
 5200 1afb E8000000 		call	_ZNK8UnitTest15MemoryOutStream7GetTextEv@PLT
 5200      00
 5201 1b00 488B7C24 		movq	24(%rsp), %rdi
 5201      18
 5202 1b05 4889C2   		movq	%rax, %rdx
 5203 1b08 4889DE   		movq	%rbx, %rsi
 5204 1b0b E8000000 		call	_ZN8UnitTest11TestResults13OnTestFailureERKNS_11TestDetailsEPKc@PLT
 5204      00
 5205              	.LEHE194:
 5206 1b10 488D0500 		leaq	24+_ZTVN8UnitTest15MemoryOutStreamE(%rip), %rax
 5206      000000
 5207 1b17 488BBC24 		movq	272(%rsp), %rdi
 5207      10010000 
 5208 1b1f 48898424 		movq	%rax, 160(%rsp)
 5208      A0000000 
 5209 1b27 4883C028 		addq	$40, %rax
 5210 1b2b 48898424 		movq	%rax, 304(%rsp)
 5210      30010000 
 5211 1b33 498D8424 		leaq	128(%r12), %rax
 5211      80000000 
 5212 1b3b 4839C7   		cmpq	%rax, %rdi
 5213 1b3e 7405     		je	.L336
 5214 1b40 E8000000 		call	_ZdlPv@PLT
 5214      00
 5215              	.L336:
 5216 1b45 488D0500 		leaq	64+_ZTCN8UnitTest15MemoryOutStreamE0_NSt7__cxx1119basic_ostringstreamIcSt11char_traitsIcESaIc
 5216      000000
 5217 1b4c 488BBC24 		movq	240(%rsp), %rdi
 5217      F0000000 
 5218 1b54 F30F7E05 		movq	.LC2(%rip), %xmm0
 5218      00000000 
 5219 1b5c 48898424 		movq	%rax, 304(%rsp)
 5219      30010000 
 5220 1b64 498D4424 		leaq	96(%r12), %rax
 5220      60
 5221 1b69 0F160500 		movhps	.LC3(%rip), %xmm0
 5221      000000
 5222 1b70 4839C7   		cmpq	%rax, %rdi
 5223 1b73 0F298424 		movaps	%xmm0, 160(%rsp)
 5223      A0000000 
 5224 1b7b 7405     		je	.L337
 5225 1b7d E8000000 		call	_ZdlPv@PLT
 5225      00
 5226              	.L337:
 5227 1b82 488D0500 		leaq	16+_ZTVSt15basic_streambufIcSt11char_traitsIcEE(%rip), %rax
 5227      000000
 5228 1b89 498D7C24 		leaq	64(%r12), %rdi
 5228      40
 5229 1b8e 48898424 		movq	%rax, 168(%rsp)
 5229      A8000000 
 5230 1b96 E8000000 		call	_ZNSt6localeD1Ev@PLT
 5230      00
 5231 1b9b 488D0500 		leaq	24+_ZTCN8UnitTest15MemoryOutStreamE0_So(%rip), %rax
 5231      000000
 5232 1ba2 498DBC24 		leaq	144(%r12), %rdi
 5232      90000000 
 5233 1baa 48898424 		movq	%rax, 160(%rsp)
 5233      A0000000 
 5234 1bb2 488D0500 		leaq	16+_ZTVSt9basic_iosIcSt11char_traitsIcEE(%rip), %rax
 5234      000000
 5235 1bb9 48898424 		movq	%rax, 304(%rsp)
 5235      30010000 
 5236              	.LEHB195:
 5237 1bc1 E8000000 		call	_ZNSt8ios_baseD2Ev@PLT
 5237      00
 5238              	.LEHE195:
 5239 1bc6 E994FCFF 		jmp	.L363
 5239      FF
 5240              	.L398:
 5241 1bcb E8000000 		call	__stack_chk_fail@PLT
 5241      00
 5242              	.L367:
 5243 1bd0 4889C7   		movq	%rax, %rdi
 5244 1bd3 E8000000 		call	__cxa_begin_catch@PLT
 5244      00
 5245              	.LEHB196:
 5246 1bd8 E8000000 		call	_ZN8UnitTest11CurrentTest7ResultsEv@PLT
 5246      00
 5247 1bdd 488B28   		movq	(%rax), %rbp
 5248 1be0 E8000000 		call	_ZN8UnitTest11CurrentTest7DetailsEv@PLT
 5248      00
 5249 1be5 488D9C24 		leaq	128(%rsp), %rbx
 5249      80000000 
 5250 1bed 488B30   		movq	(%rax), %rsi
 5251 1bf0 BA230000 		movl	$35, %edx
 5251      00
 5252 1bf5 4889DF   		movq	%rbx, %rdi
 5253 1bf8 E8000000 		call	_ZN8UnitTest11TestDetailsC1ERKS0_i@PLT
 5253      00
 5254 1bfd 488D1500 		leaq	.LC5(%rip), %rdx
 5254      000000
 5255 1c04 4889DE   		movq	%rbx, %rsi
 5256 1c07 4889EF   		movq	%rbp, %rdi
 5257 1c0a E8000000 		call	_ZN8UnitTest11TestResults13OnTestFailureERKNS_11TestDetailsEPKc@PLT
 5257      00
 5258              	.LEHE196:
 5259              	.LEHB197:
 5260 1c0f E8000000 		call	__cxa_end_catch@PLT
 5260      00
 5261              	.LEHE197:
 5262 1c14 4C8D7424 		leaq	96(%rsp), %r14
 5262      60
 5263 1c19 E9E9F9FF 		jmp	.L340
 5263      FF
 5264              	.L383:
 5265 1c1e 4889C5   		movq	%rax, %rbp
 5266              	.L334:
 5267 1c21 4889EF   		movq	%rbp, %rdi
 5268 1c24 E8000000 		call	__cxa_begin_catch@PLT
 5268      00
 5269              	.LEHB198:
 5270 1c29 E8000000 		call	_ZN8UnitTest11CurrentTest7ResultsEv@PLT
 5270      00
 5271 1c2e 488B28   		movq	(%rax), %rbp
