   1              		.file	"testBinIO.cpp"
   2              		.section	.text._ZN23TestBinIO_testWriteFileD2Ev,"axG",@progbits,_ZN23TestBinIO_testWriteFileD5Ev,c
   3              		.align 2
   4              		.p2align 4,,15
   5              		.weak	_ZN23TestBinIO_testWriteFileD2Ev
   7              	_ZN23TestBinIO_testWriteFileD2Ev:
   8              	.LFB1379:
   9              		.cfi_startproc
  10 0000 488D0500 		leaq	16+_ZTV23TestBinIO_testWriteFile(%rip), %rax
  10      000000
  11 0007 488907   		movq	%rax, (%rdi)
  12 000a E9000000 		jmp	_ZN8UnitTest4TestD2Ev@PLT
  12      00
  13              		.cfi_endproc
  14              	.LFE1379:
  16              		.weak	_ZN23TestBinIO_testWriteFileD1Ev
  17              		.set	_ZN23TestBinIO_testWriteFileD1Ev,_ZN23TestBinIO_testWriteFileD2Ev
  18              		.section	.text._ZN23TestBinIO_testWriteFileD0Ev,"axG",@progbits,_ZN23TestBinIO_testWriteFileD5Ev,c
  19              		.align 2
  20              		.p2align 4,,15
  21              		.weak	_ZN23TestBinIO_testWriteFileD0Ev
  23              	_ZN23TestBinIO_testWriteFileD0Ev:
  24              	.LFB1381:
  25              		.cfi_startproc
  26              		.cfi_personality 0x9b,DW.ref.__gxx_personality_v0
  27              		.cfi_lsda 0x1b,.LLSDA1381
  28 0000 55       		pushq	%rbp
  29              		.cfi_def_cfa_offset 16
  30              		.cfi_offset 6, -16
  31 0001 488D0500 		leaq	16+_ZTV23TestBinIO_testWriteFile(%rip), %rax
  31      000000
  32 0008 53       		pushq	%rbx
  33              		.cfi_def_cfa_offset 24
  34              		.cfi_offset 3, -24
  35 0009 4889FB   		movq	%rdi, %rbx
  36 000c 4883EC08 		subq	$8, %rsp
  37              		.cfi_def_cfa_offset 32
  38 0010 488907   		movq	%rax, (%rdi)
  39              	.LEHB0:
  40 0013 E8000000 		call	_ZN8UnitTest4TestD2Ev@PLT
  40      00
  41              	.LEHE0:
  42 0018 4883C408 		addq	$8, %rsp
  43              		.cfi_remember_state
  44              		.cfi_def_cfa_offset 24
  45 001c 4889DF   		movq	%rbx, %rdi
  46 001f 5B       		popq	%rbx
  47              		.cfi_def_cfa_offset 16
  48 0020 5D       		popq	%rbp
  49              		.cfi_def_cfa_offset 8
  50 0021 E9000000 		jmp	_ZdlPv@PLT
  50      00
  51              	.L5:
  52              		.cfi_restore_state
  53 0026 4889C5   		movq	%rax, %rbp
  54 0029 4889DF   		movq	%rbx, %rdi
  55 002c E8000000 		call	_ZdlPv@PLT
  55      00
  56 0031 4889EF   		movq	%rbp, %rdi
  57              	.LEHB1:
  58 0034 E8000000 		call	_Unwind_Resume@PLT
  58      00
  59              	.LEHE1:
  60              		.cfi_endproc
  61              	.LFE1381:
  62              		.globl	__gxx_personality_v0
  63              		.section	.gcc_except_table._ZN23TestBinIO_testWriteFileD0Ev,"aG",@progbits,_ZN23TestBinIO_testWrit
  64              	.LLSDA1381:
  65 0000 FF       		.byte	0xff
  66 0001 FF       		.byte	0xff
  67 0002 01       		.byte	0x1
  68 0003 08       		.uleb128 .LLSDACSE1381-.LLSDACSB1381
  69              	.LLSDACSB1381:
  70 0004 13       		.uleb128 .LEHB0-.LFB1381
  71 0005 05       		.uleb128 .LEHE0-.LEHB0
  72 0006 26       		.uleb128 .L5-.LFB1381
  73 0007 00       		.uleb128 0
  74 0008 34       		.uleb128 .LEHB1-.LFB1381
  75 0009 05       		.uleb128 .LEHE1-.LEHB1
  76 000a 00       		.uleb128 0
  77 000b 00       		.uleb128 0
  78              	.LLSDACSE1381:
  79              		.section	.text._ZN23TestBinIO_testWriteFileD0Ev,"axG",@progbits,_ZN23TestBinIO_testWriteFileD5Ev,c
  81              		.section	.text._ZN30TestBinIO_testReadExistingFileD2Ev,"axG",@progbits,_ZN30TestBinIO_testReadExis
  82              		.align 2
  83              		.p2align 4,,15
  84              		.weak	_ZN30TestBinIO_testReadExistingFileD2Ev
  86              	_ZN30TestBinIO_testReadExistingFileD2Ev:
  87              	.LFB1383:
  88              		.cfi_startproc
  89 0000 488D0500 		leaq	16+_ZTV30TestBinIO_testReadExistingFile(%rip), %rax
  89      000000
  90 0007 488907   		movq	%rax, (%rdi)
  91 000a E9000000 		jmp	_ZN8UnitTest4TestD2Ev@PLT
  91      00
  92              		.cfi_endproc
  93              	.LFE1383:
  95              		.weak	_ZN30TestBinIO_testReadExistingFileD1Ev
  96              		.set	_ZN30TestBinIO_testReadExistingFileD1Ev,_ZN30TestBinIO_testReadExistingFileD2Ev
  97              		.section	.text._ZN30TestBinIO_testReadExistingFileD0Ev,"axG",@progbits,_ZN30TestBinIO_testReadExis
  98              		.align 2
  99              		.p2align 4,,15
 100              		.weak	_ZN30TestBinIO_testReadExistingFileD0Ev
 102              	_ZN30TestBinIO_testReadExistingFileD0Ev:
 103              	.LFB1385:
 104              		.cfi_startproc
 105              		.cfi_personality 0x9b,DW.ref.__gxx_personality_v0
 106              		.cfi_lsda 0x1b,.LLSDA1385
 107 0000 55       		pushq	%rbp
 108              		.cfi_def_cfa_offset 16
 109              		.cfi_offset 6, -16
 110 0001 488D0500 		leaq	16+_ZTV30TestBinIO_testReadExistingFile(%rip), %rax
 110      000000
 111 0008 53       		pushq	%rbx
 112              		.cfi_def_cfa_offset 24
 113              		.cfi_offset 3, -24
 114 0009 4889FB   		movq	%rdi, %rbx
 115 000c 4883EC08 		subq	$8, %rsp
 116              		.cfi_def_cfa_offset 32
 117 0010 488907   		movq	%rax, (%rdi)
 118              	.LEHB2:
 119 0013 E8000000 		call	_ZN8UnitTest4TestD2Ev@PLT
 119      00
 120              	.LEHE2:
 121 0018 4883C408 		addq	$8, %rsp
 122              		.cfi_remember_state
 123              		.cfi_def_cfa_offset 24
 124 001c 4889DF   		movq	%rbx, %rdi
 125 001f 5B       		popq	%rbx
 126              		.cfi_def_cfa_offset 16
 127 0020 5D       		popq	%rbp
 128              		.cfi_def_cfa_offset 8
 129 0021 E9000000 		jmp	_ZdlPv@PLT
 129      00
 130              	.L10:
 131              		.cfi_restore_state
 132 0026 4889C5   		movq	%rax, %rbp
 133 0029 4889DF   		movq	%rbx, %rdi
 134 002c E8000000 		call	_ZdlPv@PLT
 134      00
 135 0031 4889EF   		movq	%rbp, %rdi
 136              	.LEHB3:
 137 0034 E8000000 		call	_Unwind_Resume@PLT
 137      00
 138              	.LEHE3:
 139              		.cfi_endproc
 140              	.LFE1385:
 141              		.section	.gcc_except_table._ZN30TestBinIO_testReadExistingFileD0Ev,"aG",@progbits,_ZN30TestBinIO_t
 142              	.LLSDA1385:
 143 0000 FF       		.byte	0xff
 144 0001 FF       		.byte	0xff
 145 0002 01       		.byte	0x1
 146 0003 08       		.uleb128 .LLSDACSE1385-.LLSDACSB1385
 147              	.LLSDACSB1385:
 148 0004 13       		.uleb128 .LEHB2-.LFB1385
 149 0005 05       		.uleb128 .LEHE2-.LEHB2
 150 0006 26       		.uleb128 .L10-.LFB1385
 151 0007 00       		.uleb128 0
 152 0008 34       		.uleb128 .LEHB3-.LFB1385
 153 0009 05       		.uleb128 .LEHE3-.LEHB3
 154 000a 00       		.uleb128 0
 155 000b 00       		.uleb128 0
 156              	.LLSDACSE1385:
 157              		.section	.text._ZN30TestBinIO_testReadExistingFileD0Ev,"axG",@progbits,_ZN30TestBinIO_testReadExis
 159              		.section	.text._ZN33TestBinIO_testReadNonExistentFileD2Ev,"axG",@progbits,_ZN33TestBinIO_testReadN
 160              		.align 2
 161              		.p2align 4,,15
 162              		.weak	_ZN33TestBinIO_testReadNonExistentFileD2Ev
 164              	_ZN33TestBinIO_testReadNonExistentFileD2Ev:
 165              	.LFB1387:
 166              		.cfi_startproc
 167 0000 488D0500 		leaq	16+_ZTV33TestBinIO_testReadNonExistentFile(%rip), %rax
 167      000000
 168 0007 488907   		movq	%rax, (%rdi)
 169 000a E9000000 		jmp	_ZN8UnitTest4TestD2Ev@PLT
 169      00
 170              		.cfi_endproc
 171              	.LFE1387:
 173              		.weak	_ZN33TestBinIO_testReadNonExistentFileD1Ev
 174              		.set	_ZN33TestBinIO_testReadNonExistentFileD1Ev,_ZN33TestBinIO_testReadNonExistentFileD2Ev
 175              		.section	.text._ZN33TestBinIO_testReadNonExistentFileD0Ev,"axG",@progbits,_ZN33TestBinIO_testReadN
 176              		.align 2
 177              		.p2align 4,,15
 178              		.weak	_ZN33TestBinIO_testReadNonExistentFileD0Ev
 180              	_ZN33TestBinIO_testReadNonExistentFileD0Ev:
 181              	.LFB1389:
 182              		.cfi_startproc
 183              		.cfi_personality 0x9b,DW.ref.__gxx_personality_v0
 184              		.cfi_lsda 0x1b,.LLSDA1389
 185 0000 55       		pushq	%rbp
 186              		.cfi_def_cfa_offset 16
 187              		.cfi_offset 6, -16
 188 0001 488D0500 		leaq	16+_ZTV33TestBinIO_testReadNonExistentFile(%rip), %rax
 188      000000
 189 0008 53       		pushq	%rbx
 190              		.cfi_def_cfa_offset 24
 191              		.cfi_offset 3, -24
 192 0009 4889FB   		movq	%rdi, %rbx
 193 000c 4883EC08 		subq	$8, %rsp
 194              		.cfi_def_cfa_offset 32
 195 0010 488907   		movq	%rax, (%rdi)
 196              	.LEHB4:
 197 0013 E8000000 		call	_ZN8UnitTest4TestD2Ev@PLT
 197      00
 198              	.LEHE4:
 199 0018 4883C408 		addq	$8, %rsp
 200              		.cfi_remember_state
 201              		.cfi_def_cfa_offset 24
 202 001c 4889DF   		movq	%rbx, %rdi
 203 001f 5B       		popq	%rbx
 204              		.cfi_def_cfa_offset 16
 205 0020 5D       		popq	%rbp
 206              		.cfi_def_cfa_offset 8
 207 0021 E9000000 		jmp	_ZdlPv@PLT
 207      00
 208              	.L15:
 209              		.cfi_restore_state
 210 0026 4889C5   		movq	%rax, %rbp
 211 0029 4889DF   		movq	%rbx, %rdi
 212 002c E8000000 		call	_ZdlPv@PLT
 212      00
 213 0031 4889EF   		movq	%rbp, %rdi
 214              	.LEHB5:
 215 0034 E8000000 		call	_Unwind_Resume@PLT
 215      00
 216              	.LEHE5:
 217              		.cfi_endproc
 218              	.LFE1389:
 219              		.section	.gcc_except_table._ZN33TestBinIO_testReadNonExistentFileD0Ev,"aG",@progbits,_ZN33TestBinI
 220              	.LLSDA1389:
 221 0000 FF       		.byte	0xff
 222 0001 FF       		.byte	0xff
 223 0002 01       		.byte	0x1
 224 0003 08       		.uleb128 .LLSDACSE1389-.LLSDACSB1389
 225              	.LLSDACSB1389:
 226 0004 13       		.uleb128 .LEHB4-.LFB1389
 227 0005 05       		.uleb128 .LEHE4-.LEHB4
 228 0006 26       		.uleb128 .L15-.LFB1389
 229 0007 00       		.uleb128 0
 230 0008 34       		.uleb128 .LEHB5-.LFB1389
 231 0009 05       		.uleb128 .LEHE5-.LEHB5
 232 000a 00       		.uleb128 0
 233 000b 00       		.uleb128 0
 234              	.LLSDACSE1389:
 235              		.section	.text._ZN33TestBinIO_testReadNonExistentFileD0Ev,"axG",@progbits,_ZN33TestBinIO_testReadN
 237              		.section	.text._ZN8UnitTest15MemoryOutStreamD1Ev,"axG",@progbits,_ZN8UnitTest15MemoryOutStreamD1Ev
 238              		.align 2
 239              		.p2align 4,,15
 240              		.weak	_ZN8UnitTest15MemoryOutStreamD1Ev
 242              	_ZN8UnitTest15MemoryOutStreamD1Ev:
 243              	.LFB1283:
 244              		.cfi_startproc
 245 0000 55       		pushq	%rbp
 246              		.cfi_def_cfa_offset 16
 247              		.cfi_offset 6, -16
 248 0001 488D0500 		leaq	24+_ZTVN8UnitTest15MemoryOutStreamE(%rip), %rax
 248      000000
 249 0008 53       		pushq	%rbx
 250              		.cfi_def_cfa_offset 24
 251              		.cfi_offset 3, -24
 252 0009 4889FB   		movq	%rdi, %rbx
 253 000c 4883EC08 		subq	$8, %rsp
 254              		.cfi_def_cfa_offset 32
 255 0010 488907   		movq	%rax, (%rdi)
 256 0013 4883C028 		addq	$40, %rax
 257 0017 48898790 		movq	%rax, 144(%rdi)
 257      000000
 258 001e 488B7F70 		movq	112(%rdi), %rdi
 259 0022 488D8380 		leaq	128(%rbx), %rax
 259      000000
 260 0029 4839C7   		cmpq	%rax, %rdi
 261 002c 7405     		je	.L18
 262 002e E8000000 		call	_ZdlPv@PLT
 262      00
 263              	.L18:
 264 0033 488D0500 		leaq	24+_ZTCN8UnitTest15MemoryOutStreamE0_NSt7__cxx1119basic_ostringstreamIcSt11char_traitsIcESaIc
 264      000000
 265 003a 488B7B50 		movq	80(%rbx), %rdi
 266 003e 488DAB90 		leaq	144(%rbx), %rbp
 266      000000
 267 0045 488903   		movq	%rax, (%rbx)
 268 0048 4883C028 		addq	$40, %rax
 269 004c 48898390 		movq	%rax, 144(%rbx)
 269      000000
 270 0053 488D0500 		leaq	16+_ZTVNSt7__cxx1115basic_stringbufIcSt11char_traitsIcESaIcEEE(%rip), %rax
 270      000000
 271 005a 48894308 		movq	%rax, 8(%rbx)
 272 005e 488D4360 		leaq	96(%rbx), %rax
 273 0062 4839C7   		cmpq	%rax, %rdi
 274 0065 7405     		je	.L19
 275 0067 E8000000 		call	_ZdlPv@PLT
 275      00
 276              	.L19:
 277 006c 488D0500 		leaq	16+_ZTVSt15basic_streambufIcSt11char_traitsIcEE(%rip), %rax
 277      000000
 278 0073 488D7B40 		leaq	64(%rbx), %rdi
 279 0077 48894308 		movq	%rax, 8(%rbx)
 280 007b E8000000 		call	_ZNSt6localeD1Ev@PLT
 280      00
 281 0080 488D0500 		leaq	24+_ZTCN8UnitTest15MemoryOutStreamE0_So(%rip), %rax
 281      000000
 282 0087 4889EF   		movq	%rbp, %rdi
 283 008a 488903   		movq	%rax, (%rbx)
 284 008d 488D0500 		leaq	16+_ZTVSt9basic_iosIcSt11char_traitsIcEE(%rip), %rax
 284      000000
 285 0094 48898390 		movq	%rax, 144(%rbx)
 285      000000
 286 009b 4883C408 		addq	$8, %rsp
 287              		.cfi_def_cfa_offset 24
 288 009f 5B       		popq	%rbx
 289              		.cfi_def_cfa_offset 16
 290 00a0 5D       		popq	%rbp
 291              		.cfi_def_cfa_offset 8
 292 00a1 E9000000 		jmp	_ZNSt8ios_baseD2Ev@PLT
 292      00
 293              		.cfi_endproc
 294              	.LFE1283:
 296              		.section	.text._ZN8UnitTest15MemoryOutStreamD0Ev,"axG",@progbits,_ZN8UnitTest15MemoryOutStreamD0Ev
 297              		.p2align 4,,15
 298              		.weak	_ZTv0_n24_N8UnitTest15MemoryOutStreamD0Ev
 300              	_ZTv0_n24_N8UnitTest15MemoryOutStreamD0Ev:
 301              	.LFB1409:
 302              		.cfi_startproc
 303              		.cfi_personality 0x9b,DW.ref.__gxx_personality_v0
 304              		.cfi_lsda 0x1b,.LLSDA1409
 305 0000 55       		pushq	%rbp
 306              		.cfi_def_cfa_offset 16
 307              		.cfi_offset 6, -16
 308 0001 53       		pushq	%rbx
 309              		.cfi_def_cfa_offset 24
 310              		.cfi_offset 3, -24
 311 0002 4883EC08 		subq	$8, %rsp
 312              		.cfi_def_cfa_offset 32
 313 0006 488B07   		movq	(%rdi), %rax
 314 0009 480378E8 		addq	-24(%rax), %rdi
 315 000d 488D0500 		leaq	24+_ZTVN8UnitTest15MemoryOutStreamE(%rip), %rax
 315      000000
 316 0014 488907   		movq	%rax, (%rdi)
 317 0017 4883C028 		addq	$40, %rax
 318 001b 4889FB   		movq	%rdi, %rbx
 319 001e 48898790 		movq	%rax, 144(%rdi)
 319      000000
 320 0025 488B7F70 		movq	112(%rdi), %rdi
 321 0029 488D8380 		leaq	128(%rbx), %rax
 321      000000
 322 0030 4839C7   		cmpq	%rax, %rdi
 323 0033 7405     		je	.L22
 324 0035 E8000000 		call	_ZdlPv@PLT
 324      00
 325              	.L22:
 326 003a 488D0500 		leaq	24+_ZTCN8UnitTest15MemoryOutStreamE0_NSt7__cxx1119basic_ostringstreamIcSt11char_traitsIcESaIc
 326      000000
 327 0041 488B7B50 		movq	80(%rbx), %rdi
 328 0045 488DAB90 		leaq	144(%rbx), %rbp
 328      000000
 329 004c 488903   		movq	%rax, (%rbx)
 330 004f 4883C028 		addq	$40, %rax
 331 0053 48898390 		movq	%rax, 144(%rbx)
 331      000000
 332 005a 488D0500 		leaq	16+_ZTVNSt7__cxx1115basic_stringbufIcSt11char_traitsIcESaIcEEE(%rip), %rax
 332      000000
 333 0061 48894308 		movq	%rax, 8(%rbx)
 334 0065 488D4360 		leaq	96(%rbx), %rax
 335 0069 4839C7   		cmpq	%rax, %rdi
 336 006c 7405     		je	.L23
 337 006e E8000000 		call	_ZdlPv@PLT
 337      00
 338              	.L23:
 339 0073 488D0500 		leaq	16+_ZTVSt15basic_streambufIcSt11char_traitsIcEE(%rip), %rax
 339      000000
 340 007a 488D7B40 		leaq	64(%rbx), %rdi
 341 007e 48894308 		movq	%rax, 8(%rbx)
 342 0082 E8000000 		call	_ZNSt6localeD1Ev@PLT
 342      00
 343 0087 488D0500 		leaq	24+_ZTCN8UnitTest15MemoryOutStreamE0_So(%rip), %rax
 343      000000
 344 008e 4889EF   		movq	%rbp, %rdi
 345 0091 488903   		movq	%rax, (%rbx)
 346 0094 488D0500 		leaq	16+_ZTVSt9basic_iosIcSt11char_traitsIcEE(%rip), %rax
 346      000000
 347 009b 48898390 		movq	%rax, 144(%rbx)
 347      000000
 348              	.LEHB6:
 349 00a2 E8000000 		call	_ZNSt8ios_baseD2Ev@PLT
 349      00
 350              	.LEHE6:
 351 00a7 4883C408 		addq	$8, %rsp
 352              		.cfi_remember_state
 353              		.cfi_def_cfa_offset 24
 354 00ab 4889DF   		movq	%rbx, %rdi
 355 00ae 5B       		popq	%rbx
 356              		.cfi_def_cfa_offset 16
 357 00af 5D       		popq	%rbp
 358              		.cfi_def_cfa_offset 8
 359 00b0 E9000000 		jmp	_ZdlPv@PLT
 359      00
 360              	.L25:
 361              		.cfi_restore_state
 362 00b5 4889C5   		movq	%rax, %rbp
 363 00b8 4889DF   		movq	%rbx, %rdi
 364 00bb E8000000 		call	_ZdlPv@PLT
 364      00
 365 00c0 4889EF   		movq	%rbp, %rdi
 366              	.LEHB7:
 367 00c3 E8000000 		call	_Unwind_Resume@PLT
 367      00
 368              	.LEHE7:
 369              		.cfi_endproc
 370              	.LFE1409:
 371              		.section	.gcc_except_table._ZTv0_n24_N8UnitTest15MemoryOutStreamD0Ev,"aG",@progbits,_ZN8UnitTest15
 372              	.LLSDA1409:
 373 0000 FF       		.byte	0xff
 374 0001 FF       		.byte	0xff
 375 0002 01       		.byte	0x1
 376 0003 0B       		.uleb128 .LLSDACSE1409-.LLSDACSB1409
 377              	.LLSDACSB1409:
 378 0004 A201     		.uleb128 .LEHB6-.LFB1409
 379 0006 05       		.uleb128 .LEHE6-.LEHB6
 380 0007 B501     		.uleb128 .L25-.LFB1409
 381 0009 00       		.uleb128 0
 382 000a C301     		.uleb128 .LEHB7-.LFB1409
 383 000c 05       		.uleb128 .LEHE7-.LEHB7
 384 000d 00       		.uleb128 0
 385 000e 00       		.uleb128 0
 386              	.LLSDACSE1409:
 387              		.section	.text._ZN8UnitTest15MemoryOutStreamD0Ev,"axG",@progbits,_ZN8UnitTest15MemoryOutStreamD0Ev
 389              		.section	.text._ZN8UnitTest15MemoryOutStreamD1Ev,"axG",@progbits,_ZN8UnitTest15MemoryOutStreamD1Ev
 390 00a6 662E0F1F 		.p2align 4,,15
 390      84000000 
 390      0000
 391              		.weak	_ZTv0_n24_N8UnitTest15MemoryOutStreamD1Ev
 393              	_ZTv0_n24_N8UnitTest15MemoryOutStreamD1Ev:
 394              	.LFB1410:
 395              		.cfi_startproc
 396 00b0 55       		pushq	%rbp
 397              		.cfi_def_cfa_offset 16
 398              		.cfi_offset 6, -16
 399 00b1 53       		pushq	%rbx
 400              		.cfi_def_cfa_offset 24
 401              		.cfi_offset 3, -24
 402 00b2 4883EC08 		subq	$8, %rsp
 403              		.cfi_def_cfa_offset 32
 404 00b6 488B07   		movq	(%rdi), %rax
 405 00b9 480378E8 		addq	-24(%rax), %rdi
 406 00bd 488D0500 		leaq	24+_ZTVN8UnitTest15MemoryOutStreamE(%rip), %rax
 406      000000
 407 00c4 488907   		movq	%rax, (%rdi)
 408 00c7 4883C028 		addq	$40, %rax
 409 00cb 4889FB   		movq	%rdi, %rbx
 410 00ce 48898790 		movq	%rax, 144(%rdi)
 410      000000
 411 00d5 488B7F70 		movq	112(%rdi), %rdi
 412 00d9 488D8380 		leaq	128(%rbx), %rax
 412      000000
 413 00e0 4839C7   		cmpq	%rax, %rdi
 414 00e3 7405     		je	.L28
 415 00e5 E8000000 		call	_ZdlPv@PLT
 415      00
 416              	.L28:
 417 00ea 488D0500 		leaq	24+_ZTCN8UnitTest15MemoryOutStreamE0_NSt7__cxx1119basic_ostringstreamIcSt11char_traitsIcESaIc
 417      000000
 418 00f1 488B7B50 		movq	80(%rbx), %rdi
 419 00f5 488DAB90 		leaq	144(%rbx), %rbp
 419      000000
 420 00fc 488903   		movq	%rax, (%rbx)
 421 00ff 4883C028 		addq	$40, %rax
 422 0103 48898390 		movq	%rax, 144(%rbx)
 422      000000
 423 010a 488D0500 		leaq	16+_ZTVNSt7__cxx1115basic_stringbufIcSt11char_traitsIcESaIcEEE(%rip), %rax
 423      000000
 424 0111 48894308 		movq	%rax, 8(%rbx)
 425 0115 488D4360 		leaq	96(%rbx), %rax
 426 0119 4839C7   		cmpq	%rax, %rdi
 427 011c 7405     		je	.L29
 428 011e E8000000 		call	_ZdlPv@PLT
 428      00
 429              	.L29:
 430 0123 488D0500 		leaq	16+_ZTVSt15basic_streambufIcSt11char_traitsIcEE(%rip), %rax
 430      000000
 431 012a 488D7B40 		leaq	64(%rbx), %rdi
 432 012e 48894308 		movq	%rax, 8(%rbx)
 433 0132 E8000000 		call	_ZNSt6localeD1Ev@PLT
 433      00
 434 0137 488D0500 		leaq	24+_ZTCN8UnitTest15MemoryOutStreamE0_So(%rip), %rax
 434      000000
 435 013e 4889EF   		movq	%rbp, %rdi
 436 0141 488903   		movq	%rax, (%rbx)
 437 0144 488D0500 		leaq	16+_ZTVSt9basic_iosIcSt11char_traitsIcEE(%rip), %rax
 437      000000
 438 014b 48898390 		movq	%rax, 144(%rbx)
 438      000000
 439 0152 4883C408 		addq	$8, %rsp
 440              		.cfi_def_cfa_offset 24
 441 0156 5B       		popq	%rbx
 442              		.cfi_def_cfa_offset 16
 443 0157 5D       		popq	%rbp
 444              		.cfi_def_cfa_offset 8
 445 0158 E9000000 		jmp	_ZNSt8ios_baseD2Ev@PLT
 445      00
 446              		.cfi_endproc
 447              	.LFE1410:
 449              		.section	.text._ZN8UnitTest15MemoryOutStreamD0Ev,"axG",@progbits,_ZN8UnitTest15MemoryOutStreamD0Ev
 450              		.align 2
 451 00c8 0F1F8400 		.p2align 4,,15
 451      00000000 
 452              		.weak	_ZN8UnitTest15MemoryOutStreamD0Ev
 454              	_ZN8UnitTest15MemoryOutStreamD0Ev:
 455              	.LFB1284:
 456              		.cfi_startproc
 457              		.cfi_personality 0x9b,DW.ref.__gxx_personality_v0
 458              		.cfi_lsda 0x1b,.LLSDA1284
 459 00d0 55       		pushq	%rbp
 460              		.cfi_def_cfa_offset 16
 461              		.cfi_offset 6, -16
 462 00d1 488D0500 		leaq	24+_ZTVN8UnitTest15MemoryOutStreamE(%rip), %rax
 462      000000
 463 00d8 53       		pushq	%rbx
 464              		.cfi_def_cfa_offset 24
 465              		.cfi_offset 3, -24
 466 00d9 4889FB   		movq	%rdi, %rbx
 467 00dc 4883EC08 		subq	$8, %rsp
 468              		.cfi_def_cfa_offset 32
 469 00e0 488907   		movq	%rax, (%rdi)
 470 00e3 4883C028 		addq	$40, %rax
 471 00e7 48898790 		movq	%rax, 144(%rdi)
 471      000000
 472 00ee 488B7F70 		movq	112(%rdi), %rdi
 473 00f2 488D8380 		leaq	128(%rbx), %rax
 473      000000
 474 00f9 4839C7   		cmpq	%rax, %rdi
 475 00fc 7405     		je	.L32
 476 00fe E8000000 		call	_ZdlPv@PLT
 476      00
 477              	.L32:
 478 0103 488D0500 		leaq	24+_ZTCN8UnitTest15MemoryOutStreamE0_NSt7__cxx1119basic_ostringstreamIcSt11char_traitsIcESaIc
 478      000000
 479 010a 488B7B50 		movq	80(%rbx), %rdi
 480 010e 488DAB90 		leaq	144(%rbx), %rbp
 480      000000
 481 0115 488903   		movq	%rax, (%rbx)
 482 0118 4883C028 		addq	$40, %rax
 483 011c 48898390 		movq	%rax, 144(%rbx)
 483      000000
 484 0123 488D0500 		leaq	16+_ZTVNSt7__cxx1115basic_stringbufIcSt11char_traitsIcESaIcEEE(%rip), %rax
 484      000000
 485 012a 48894308 		movq	%rax, 8(%rbx)
 486 012e 488D4360 		leaq	96(%rbx), %rax
 487 0132 4839C7   		cmpq	%rax, %rdi
 488 0135 7405     		je	.L33
 489 0137 E8000000 		call	_ZdlPv@PLT
 489      00
 490              	.L33:
 491 013c 488D0500 		leaq	16+_ZTVSt15basic_streambufIcSt11char_traitsIcEE(%rip), %rax
 491      000000
 492 0143 488D7B40 		leaq	64(%rbx), %rdi
 493 0147 48894308 		movq	%rax, 8(%rbx)
 494 014b E8000000 		call	_ZNSt6localeD1Ev@PLT
 494      00
 495 0150 488D0500 		leaq	24+_ZTCN8UnitTest15MemoryOutStreamE0_So(%rip), %rax
 495      000000
 496 0157 4889EF   		movq	%rbp, %rdi
 497 015a 488903   		movq	%rax, (%rbx)
 498 015d 488D0500 		leaq	16+_ZTVSt9basic_iosIcSt11char_traitsIcEE(%rip), %rax
 498      000000
 499 0164 48898390 		movq	%rax, 144(%rbx)
 499      000000
 500              	.LEHB8:
 501 016b E8000000 		call	_ZNSt8ios_baseD2Ev@PLT
 501      00
 502              	.LEHE8:
 503 0170 4883C408 		addq	$8, %rsp
 504              		.cfi_remember_state
 505              		.cfi_def_cfa_offset 24
 506 0174 4889DF   		movq	%rbx, %rdi
 507 0177 5B       		popq	%rbx
 508              		.cfi_def_cfa_offset 16
 509 0178 5D       		popq	%rbp
 510              		.cfi_def_cfa_offset 8
 511 0179 E9000000 		jmp	_ZdlPv@PLT
 511      00
 512              	.L35:
 513              		.cfi_restore_state
 514 017e 4889C5   		movq	%rax, %rbp
 515 0181 4889DF   		movq	%rbx, %rdi
 516 0184 E8000000 		call	_ZdlPv@PLT
 516      00
 517 0189 4889EF   		movq	%rbp, %rdi
 518              	.LEHB9:
 519 018c E8000000 		call	_Unwind_Resume@PLT
 519      00
 520              	.LEHE9:
 521              		.cfi_endproc
 522              	.LFE1284:
 523              		.section	.gcc_except_table._ZN8UnitTest15MemoryOutStreamD0Ev,"aG",@progbits,_ZN8UnitTest15MemoryOu
 524              	.LLSDA1284:
 525 0000 FF       		.byte	0xff
 526 0001 FF       		.byte	0xff
 527 0002 01       		.byte	0x1
 528 0003 0B       		.uleb128 .LLSDACSE1284-.LLSDACSB1284
 529              	.LLSDACSB1284:
 530 0004 9B01     		.uleb128 .LEHB8-.LFB1284
 531 0006 05       		.uleb128 .LEHE8-.LEHB8
 532 0007 AE01     		.uleb128 .L35-.LFB1284
 533 0009 00       		.uleb128 0
 534 000a BC01     		.uleb128 .LEHB9-.LFB1284
 535 000c 05       		.uleb128 .LEHE9-.LEHB9
 536 000d 00       		.uleb128 0
 537 000e 00       		.uleb128 0
 538              	.LLSDACSE1284:
 539              		.section	.text._ZN8UnitTest15MemoryOutStreamD0Ev,"axG",@progbits,_ZN8UnitTest15MemoryOutStreamD0Ev
 541              		.section	.text._ZNSt7__cxx1115basic_stringbufIcSt11char_traitsIcESaIcEED2Ev,"axG",@progbits,_ZNSt7
 542              		.align 2
 543              		.p2align 4,,15
 544              		.weak	_ZNSt7__cxx1115basic_stringbufIcSt11char_traitsIcESaIcEED2Ev
 546              	_ZNSt7__cxx1115basic_stringbufIcSt11char_traitsIcESaIcEED2Ev:
 547              	.LFB1262:
 548              		.cfi_startproc
 549 0000 488D0500 		leaq	16+_ZTVNSt7__cxx1115basic_stringbufIcSt11char_traitsIcESaIcEEE(%rip), %rax
 549      000000
 550 0007 53       		pushq	%rbx
 551              		.cfi_def_cfa_offset 16
 552              		.cfi_offset 3, -16
 553 0008 4889FB   		movq	%rdi, %rbx
 554 000b 488907   		movq	%rax, (%rdi)
 555 000e 488B7F48 		movq	72(%rdi), %rdi
 556 0012 488D4358 		leaq	88(%rbx), %rax
 557 0016 4839C7   		cmpq	%rax, %rdi
 558 0019 7405     		je	.L38
 559 001b E8000000 		call	_ZdlPv@PLT
 559      00
 560              	.L38:
 561 0020 488D0500 		leaq	16+_ZTVSt15basic_streambufIcSt11char_traitsIcEE(%rip), %rax
 561      000000
 562 0027 488D7B38 		leaq	56(%rbx), %rdi
 563 002b 488903   		movq	%rax, (%rbx)
 564 002e 5B       		popq	%rbx
 565              		.cfi_def_cfa_offset 8
 566 002f E9000000 		jmp	_ZNSt6localeD1Ev@PLT
 566      00
 567              		.cfi_endproc
 568              	.LFE1262:
 570              		.weak	_ZNSt7__cxx1115basic_stringbufIcSt11char_traitsIcESaIcEED1Ev
 571              		.set	_ZNSt7__cxx1115basic_stringbufIcSt11char_traitsIcESaIcEED1Ev,_ZNSt7__cxx1115basic_stringbufIc
 572              		.section	.text._ZNSt7__cxx1115basic_stringbufIcSt11char_traitsIcESaIcEED0Ev,"axG",@progbits,_ZNSt7
 573              		.align 2
 574              		.p2align 4,,15
 575              		.weak	_ZNSt7__cxx1115basic_stringbufIcSt11char_traitsIcESaIcEED0Ev
 577              	_ZNSt7__cxx1115basic_stringbufIcSt11char_traitsIcESaIcEED0Ev:
 578              	.LFB1264:
 579              		.cfi_startproc
 580 0000 488D0500 		leaq	16+_ZTVNSt7__cxx1115basic_stringbufIcSt11char_traitsIcESaIcEEE(%rip), %rax
 580      000000
 581 0007 53       		pushq	%rbx
 582              		.cfi_def_cfa_offset 16
 583              		.cfi_offset 3, -16
 584 0008 4889FB   		movq	%rdi, %rbx
 585 000b 488907   		movq	%rax, (%rdi)
 586 000e 488B7F48 		movq	72(%rdi), %rdi
 587 0012 488D4358 		leaq	88(%rbx), %rax
 588 0016 4839C7   		cmpq	%rax, %rdi
 589 0019 7405     		je	.L41
 590 001b E8000000 		call	_ZdlPv@PLT
 590      00
 591              	.L41:
 592 0020 488D0500 		leaq	16+_ZTVSt15basic_streambufIcSt11char_traitsIcEE(%rip), %rax
 592      000000
 593 0027 488D7B38 		leaq	56(%rbx), %rdi
 594 002b 488903   		movq	%rax, (%rbx)
 595 002e E8000000 		call	_ZNSt6localeD1Ev@PLT
 595      00
 596 0033 4889DF   		movq	%rbx, %rdi
 597 0036 5B       		popq	%rbx
 598              		.cfi_def_cfa_offset 8
 599 0037 E9000000 		jmp	_ZdlPv@PLT
 599      00
 600              		.cfi_endproc
 601              	.LFE1264:
 603              		.section	.rodata._ZN8UnitTest10CheckEqualI12BufferStatusS1_EEvRNS_11TestResultsERKT_RKT0_RKNS_11Te
 604              	.LC0:
 605 0000 45787065 		.string	"Expected "
 605      63746564 
 605      2000
 606              	.LC1:
 607 000a 20627574 		.string	" but was "
 607      20776173 
 607      2000
 608              		.section	.text._ZN8UnitTest10CheckEqualI12BufferStatusS1_EEvRNS_11TestResultsERKT_RKT0_RKNS_11Test
 609              		.p2align 4,,15
 610              		.weak	_ZN8UnitTest10CheckEqualI12BufferStatusS1_EEvRNS_11TestResultsERKT_RKT0_RKNS_11TestDetailsE
 612              	_ZN8UnitTest10CheckEqualI12BufferStatusS1_EEvRNS_11TestResultsERKT_RKT0_RKNS_11TestDetailsE:
 613              	.LFB1280:
 614              		.cfi_startproc
 615              		.cfi_personality 0x9b,DW.ref.__gxx_personality_v0
 616              		.cfi_lsda 0x1b,.LLSDA1280
 617 0000 4157     		pushq	%r15
 618              		.cfi_def_cfa_offset 16
 619              		.cfi_offset 15, -16
 620 0002 4156     		pushq	%r14
 621              		.cfi_def_cfa_offset 24
 622              		.cfi_offset 14, -24
 623 0004 4155     		pushq	%r13
 624              		.cfi_def_cfa_offset 32
 625              		.cfi_offset 13, -32
 626 0006 4154     		pushq	%r12
 627              		.cfi_def_cfa_offset 40
 628              		.cfi_offset 12, -40
 629 0008 55       		pushq	%rbp
 630              		.cfi_def_cfa_offset 48
 631              		.cfi_offset 6, -48
 632 0009 53       		pushq	%rbx
 633              		.cfi_def_cfa_offset 56
 634              		.cfi_offset 3, -56
 635 000a 4881ECB8 		subq	$440, %rsp
 635      010000
 636              		.cfi_def_cfa_offset 496
 637 0011 64488B04 		movq	%fs:40, %rax
 637      25280000 
 637      00
 638 001a 48898424 		movq	%rax, 424(%rsp)
 638      A8010000 
 639 0022 31C0     		xorl	%eax, %eax
 640 0024 8B02     		movl	(%rdx), %eax
 641 0026 3906     		cmpl	%eax, (%rsi)
 642 0028 48893C24 		movq	%rdi, (%rsp)
 643 002c 48894C24 		movq	%rcx, 8(%rsp)
 643      08
 644 0031 0F842F02 		je	.L43
 644      0000
 645 0037 488D5C24 		leaq	16(%rsp), %rbx
 645      10
 646 003c 4C8D2D00 		leaq	24+_ZTCN8UnitTest15MemoryOutStreamE0_So(%rip), %r13
 646      000000
 647 0043 4989F4   		movq	%rsi, %r12
 648 0046 4889D5   		movq	%rdx, %rbp
 649 0049 4C8DB390 		leaq	144(%rbx), %r14
 649      000000
 650 0050 4C89F7   		movq	%r14, %rdi
 651 0053 E8000000 		call	_ZNSt8ios_baseC2Ev@PLT
 651      00
 652 0058 498D4528 		leaq	40(%r13), %rax
 653 005c 31F6     		xorl	%esi, %esi
 654 005e 4C89F7   		movq	%r14, %rdi
 655 0061 48C78424 		movq	$0, 376(%rsp)
 655      78010000 
 655      00000000 
 656 006d C6842480 		movb	$0, 384(%rsp)
 656      01000000 
 657 0075 C6842481 		movb	$0, 385(%rsp)
 657      01000000 
 658 007d 48C78424 		movq	$0, 392(%rsp)
 658      88010000 
 658      00000000 
 659 0089 48C78424 		movq	$0, 400(%rsp)
 659      90010000 
 659      00000000 
 660 0095 48C78424 		movq	$0, 408(%rsp)
 660      98010000 
 660      00000000 
 661 00a1 48C78424 		movq	$0, 416(%rsp)
 661      A0010000 
 661      00000000 
 662 00ad 4C896C24 		movq	%r13, 16(%rsp)
 662      10
 663 00b2 48898424 		movq	%rax, 160(%rsp)
 663      A0000000 
 664              	.LEHB10:
 665 00ba E8000000 		call	_ZNSt9basic_iosIcSt11char_traitsIcEE4initEPSt15basic_streambufIcS1_E@PLT
 665      00
 666              	.LEHE10:
 667 00bf 488D0500 		leaq	24+_ZTCN8UnitTest15MemoryOutStreamE0_NSt7__cxx1119basic_ostringstreamIcSt11char_traitsIcESaIc
 667      000000
 668 00c6 660FEFC0 		pxor	%xmm0, %xmm0
 669 00ca 488D7B40 		leaq	64(%rbx), %rdi
 670 00ce 48894424 		movq	%rax, 16(%rsp)
 670      10
 671 00d3 4883C028 		addq	$40, %rax
 672 00d7 48898424 		movq	%rax, 160(%rsp)
 672      A0000000 
 673 00df 488D0500 		leaq	16+_ZTVSt15basic_streambufIcSt11char_traitsIcEE(%rip), %rax
 673      000000
 674 00e6 0F294424 		movaps	%xmm0, 32(%rsp)
 674      20
 675 00eb 48894424 		movq	%rax, 24(%rsp)
 675      18
 676 00f0 0F294424 		movaps	%xmm0, 48(%rsp)
 676      30
 677 00f5 0F294424 		movaps	%xmm0, 64(%rsp)
 677      40
 678 00fa E8000000 		call	_ZNSt6localeC1Ev@PLT
 678      00
 679 00ff 488D0500 		leaq	16+_ZTVNSt7__cxx1115basic_stringbufIcSt11char_traitsIcESaIcEEE(%rip), %rax
 679      000000
 680 0106 488D7308 		leaq	8(%rbx), %rsi
 681 010a 48894424 		movq	%rax, 24(%rsp)
 681      18
 682 010f 488D4360 		leaq	96(%rbx), %rax
 683 0113 C7442458 		movl	$16, 88(%rsp)
 683      10000000 
 684 011b 48C74424 		movq	$0, 104(%rsp)
 684      68000000 
 684      00
 685 0124 C6442470 		movb	$0, 112(%rsp)
 685      00
 686 0129 48894424 		movq	%rax, 96(%rsp)
 686      60
 687 012e 488B4424 		movq	16(%rsp), %rax
 687      10
 688 0133 488B78E8 		movq	-24(%rax), %rdi
 689 0137 4801DF   		addq	%rbx, %rdi
 690              	.LEHB11:
 691 013a E8000000 		call	_ZNSt9basic_iosIcSt11char_traitsIcEE4initEPSt15basic_streambufIcS1_E@PLT
 691      00
 692              	.LEHE11:
 693 013f 4C8D3D00 		leaq	24+_ZTVN8UnitTest15MemoryOutStreamE(%rip), %r15
 693      000000
 694 0146 488D8380 		leaq	128(%rbx), %rax
 694      000000
 695 014d 488D3500 		leaq	.LC0(%rip), %rsi
 695      000000
 696 0154 BA090000 		movl	$9, %edx
 696      00
 697 0159 4889DF   		movq	%rbx, %rdi
 698 015c 48C78424 		movq	$0, 136(%rsp)
 698      88000000 
 698      00000000 
 699 0168 4D8D7728 		leaq	40(%r15), %r14
 700 016c 4C897C24 		movq	%r15, 16(%rsp)
 700      10
 701 0171 48898424 		movq	%rax, 128(%rsp)
 701      80000000 
 702 0179 C6842490 		movb	$0, 144(%rsp)
 702      00000000 
 703 0181 4C89B424 		movq	%r14, 160(%rsp)
 703      A0000000 
 704              	.LEHB12:
 705 0189 E8000000 		call	_ZSt16__ostream_insertIcSt11char_traitsIcEERSt13basic_ostreamIT_T0_ES6_PKS3_l@PLT
 705      00
 706 018e 418B3424 		movl	(%r12), %esi
 707 0192 4889DF   		movq	%rbx, %rdi
 708 0195 E8000000 		call	_ZNSolsEi@PLT
 708      00
 709 019a 488D3500 		leaq	.LC1(%rip), %rsi
 709      000000
 710 01a1 BA090000 		movl	$9, %edx
 710      00
 711 01a6 4889C7   		movq	%rax, %rdi
 712 01a9 4989C4   		movq	%rax, %r12
 713 01ac E8000000 		call	_ZSt16__ostream_insertIcSt11char_traitsIcEERSt13basic_ostreamIT_T0_ES6_PKS3_l@PLT
 713      00
 714 01b1 8B7500   		movl	0(%rbp), %esi
 715 01b4 4C89E7   		movq	%r12, %rdi
 716 01b7 E8000000 		call	_ZNSolsEi@PLT
 716      00
 717 01bc 4889DF   		movq	%rbx, %rdi
 718 01bf E8000000 		call	_ZNK8UnitTest15MemoryOutStream7GetTextEv@PLT
 718      00
 719 01c4 488B7424 		movq	8(%rsp), %rsi
 719      08
 720 01c9 488B3C24 		movq	(%rsp), %rdi
 721 01cd 4889C2   		movq	%rax, %rdx
 722 01d0 E8000000 		call	_ZN8UnitTest11TestResults13OnTestFailureERKNS_11TestDetailsEPKc@PLT
 722      00
 723              	.LEHE12:
 724 01d5 488BBC24 		movq	128(%rsp), %rdi
 724      80000000 
 725 01dd 488D8380 		leaq	128(%rbx), %rax
 725      000000
 726 01e4 4C897C24 		movq	%r15, 16(%rsp)
 726      10
 727 01e9 4C89B424 		movq	%r14, 160(%rsp)
 727      A0000000 
 728 01f1 4839C7   		cmpq	%rax, %rdi
 729 01f4 7405     		je	.L49
 730 01f6 E8000000 		call	_ZdlPv@PLT
 730      00
 731              	.L49:
 732 01fb 488D0500 		leaq	64+_ZTCN8UnitTest15MemoryOutStreamE0_NSt7__cxx1119basic_ostringstreamIcSt11char_traitsIcESaIc
 732      000000
 733 0202 488B7C24 		movq	96(%rsp), %rdi
 733      60
 734 0207 F30F7E05 		movq	.LC2(%rip), %xmm0
 734      00000000 
 735 020f 48898424 		movq	%rax, 160(%rsp)
 735      A0000000 
 736 0217 488D4360 		leaq	96(%rbx), %rax
 737 021b 0F160500 		movhps	.LC3(%rip), %xmm0
 737      000000
 738 0222 4839C7   		cmpq	%rax, %rdi
 739 0225 0F294424 		movaps	%xmm0, 16(%rsp)
 739      10
 740 022a 7405     		je	.L50
 741 022c E8000000 		call	_ZdlPv@PLT
 741      00
 742              	.L50:
 743 0231 488D0500 		leaq	16+_ZTVSt15basic_streambufIcSt11char_traitsIcEE(%rip), %rax
 743      000000
 744 0238 488D7B40 		leaq	64(%rbx), %rdi
 745 023c 48894424 		movq	%rax, 24(%rsp)
 745      18
 746 0241 E8000000 		call	_ZNSt6localeD1Ev@PLT
 746      00
 747 0246 488D0500 		leaq	16+_ZTVSt9basic_iosIcSt11char_traitsIcEE(%rip), %rax
 747      000000
 748 024d 488DBB90 		leaq	144(%rbx), %rdi
 748      000000
 749 0254 4C896C24 		movq	%r13, 16(%rsp)
 749      10
 750 0259 48898424 		movq	%rax, 160(%rsp)
 750      A0000000 
 751              	.LEHB13:
 752 0261 E8000000 		call	_ZNSt8ios_baseD2Ev@PLT
 752      00
 753              	.LEHE13:
 754              	.L43:
 755 0266 488B8424 		movq	424(%rsp), %rax
 755      A8010000 
 756 026e 64483304 		xorq	%fs:40, %rax
 756      25280000 
 756      00
 757 0277 7512     		jne	.L59
 758 0279 4881C4B8 		addq	$440, %rsp
 758      010000
 759              		.cfi_remember_state
 760              		.cfi_def_cfa_offset 56
 761 0280 5B       		popq	%rbx
 762              		.cfi_def_cfa_offset 48
 763 0281 5D       		popq	%rbp
 764              		.cfi_def_cfa_offset 40
 765 0282 415C     		popq	%r12
 766              		.cfi_def_cfa_offset 32
 767 0284 415D     		popq	%r13
 768              		.cfi_def_cfa_offset 24
 769 0286 415E     		popq	%r14
 770              		.cfi_def_cfa_offset 16
 771 0288 415F     		popq	%r15
 772              		.cfi_def_cfa_offset 8
 773 028a C3       		ret
 774              	.L59:
 775              		.cfi_restore_state
 776 028b E8000000 		call	__stack_chk_fail@PLT
 776      00
 777              	.L54:
 778 0290 4889C5   		movq	%rax, %rbp
 779              	.L47:
 780 0293 488D0500 		leaq	16+_ZTVSt9basic_iosIcSt11char_traitsIcEE(%rip), %rax
 780      000000
 781 029a 488DBB90 		leaq	144(%rbx), %rdi
 781      000000
 782 02a1 48898424 		movq	%rax, 160(%rsp)
 782      A0000000 
 783 02a9 E8000000 		call	_ZNSt8ios_baseD2Ev@PLT
 783      00
 784 02ae 4889EF   		movq	%rbp, %rdi
 785              	.LEHB14:
 786 02b1 E8000000 		call	_Unwind_Resume@PLT
 786      00
 787              	.LEHE14:
 788              	.L53:
 789 02b6 4889C5   		movq	%rax, %rbp
 790 02b9 4889DF   		movq	%rbx, %rdi
 791 02bc E8000000 		call	_ZN8UnitTest15MemoryOutStreamD1Ev
 791      00
 792 02c1 4889EF   		movq	%rbp, %rdi
 793              	.LEHB15:
 794 02c4 E8000000 		call	_Unwind_Resume@PLT
 794      00
 795              	.LEHE15:
 796              	.L55:
 797 02c9 488D7B08 		leaq	8(%rbx), %rdi
 798 02cd 4889C5   		movq	%rax, %rbp
 799 02d0 E8000000 		call	_ZNSt7__cxx1115basic_stringbufIcSt11char_traitsIcESaIcEED1Ev
 799      00
 800 02d5 4C896C24 		movq	%r13, 16(%rsp)
 800      10
 801 02da EBB7     		jmp	.L47
 802              		.cfi_endproc
 803              	.LFE1280:
 804              		.section	.gcc_except_table._ZN8UnitTest10CheckEqualI12BufferStatusS1_EEvRNS_11TestResultsERKT_RKT0
 805              	.LLSDA1280:
 806 0000 FF       		.byte	0xff
 807 0001 FF       		.byte	0xff
 808 0002 01       		.byte	0x1
 809 0003 21       		.uleb128 .LLSDACSE1280-.LLSDACSB1280
 810              	.LLSDACSB1280:
 811 0004 BA01     		.uleb128 .LEHB10-.LFB1280
 812 0006 05       		.uleb128 .LEHE10-.LEHB10
 813 0007 9005     		.uleb128 .L54-.LFB1280
 814 0009 00       		.uleb128 0
 815 000a BA02     		.uleb128 .LEHB11-.LFB1280
 816 000c 05       		.uleb128 .LEHE11-.LEHB11
 817 000d C905     		.uleb128 .L55-.LFB1280
 818 000f 00       		.uleb128 0
 819 0010 8903     		.uleb128 .LEHB12-.LFB1280
 820 0012 4C       		.uleb128 .LEHE12-.LEHB12
 821 0013 B605     		.uleb128 .L53-.LFB1280
 822 0015 00       		.uleb128 0
 823 0016 E104     		.uleb128 .LEHB13-.LFB1280
 824 0018 05       		.uleb128 .LEHE13-.LEHB13
 825 0019 00       		.uleb128 0
 826 001a 00       		.uleb128 0
 827 001b B105     		.uleb128 .LEHB14-.LFB1280
 828 001d 05       		.uleb128 .LEHE14-.LEHB14
 829 001e 00       		.uleb128 0
 830 001f 00       		.uleb128 0
 831 0020 C405     		.uleb128 .LEHB15-.LFB1280
 832 0022 05       		.uleb128 .LEHE15-.LEHB15
 833 0023 00       		.uleb128 0
 834 0024 00       		.uleb128 0
 835              	.LLSDACSE1280:
 836              		.section	.text._ZN8UnitTest10CheckEqualI12BufferStatusS1_EEvRNS_11TestResultsERKT_RKT0_RKNS_11Test
 838              		.section	.rodata.str1.1,"aMS",@progbits,1
 839              	.LC4:
 840 0000 6E6F6E45 		.string	"nonExistentFile.bin"
 840      78697374 
 840      656E7446 
 840      696C652E 
 840      62696E00 
 841              		.section	.rodata.str1.8,"aMS",@progbits,1
 842              		.align 8
 843              	.LC5:
 844 0000 556E6861 		.string	"Unhandled exception in CHECK_EQUAL(BUF_SUCCESS, status)"
 844      6E646C65 
 844      64206578 
 844      63657074 
 844      696F6E20 
 845              		.align 8
 846              	.LC6:
 847 0038 556E6861 		.string	"Unhandled exception in CHECK_EQUAL(BUF_FOPEN, status)"
 847      6E646C65 
 847      64206578 
 847      63657074 
 847      696F6E20 
 848              		.text
 849              		.align 2
 850              		.p2align 4,,15
 851              		.globl	_ZNK33TestBinIO_testReadNonExistentFile7RunImplEv
 853              	_ZNK33TestBinIO_testReadNonExistentFile7RunImplEv:
 854              	.LFB1244:
 855              		.cfi_startproc
 856              		.cfi_personality 0x9b,DW.ref.__gxx_personality_v0
 857              		.cfi_lsda 0x1b,.LLSDA1244
 858 0000 4157     		pushq	%r15
 859              		.cfi_def_cfa_offset 16
 860              		.cfi_offset 15, -16
 861 0002 4156     		pushq	%r14
 862              		.cfi_def_cfa_offset 24
 863              		.cfi_offset 14, -24
 864 0004 31C9     		xorl	%ecx, %ecx
 865 0006 4155     		pushq	%r13
 866              		.cfi_def_cfa_offset 32
 867              		.cfi_offset 13, -32
 868 0008 4154     		pushq	%r12
 869              		.cfi_def_cfa_offset 40
 870              		.cfi_offset 12, -40
 871 000a 31D2     		xorl	%edx, %edx
 872 000c 55       		pushq	%rbp
 873              		.cfi_def_cfa_offset 48
 874              		.cfi_offset 6, -48
 875 000d 53       		pushq	%rbx
 876              		.cfi_def_cfa_offset 56
 877              		.cfi_offset 3, -56
 878 000e BE080000 		movl	$8, %esi
 878      00
 879 0013 4881EC08 		subq	$520, %rsp
 879      020000
 880              		.cfi_def_cfa_offset 576
 881 001a 4C8D6424 		leaq	32(%rsp), %r12
 881      20
 882 001f 64488B04 		movq	%fs:40, %rax
 882      25280000 
 882      00
 883 0028 48898424 		movq	%rax, 504(%rsp)
 883      F8010000 
 884 0030 31C0     		xorl	%eax, %eax
 885 0032 4C89E7   		movq	%r12, %rdi
 886              	.LEHB16:
 887 0035 E8000000 		call	bufInitialise@PLT
 887      00
 888              	.LEHE16:
 889 003a 89442418 		movl	%eax, 24(%rsp)
 890              	.LEHB17:
 891 003e E8000000 		call	_ZN8UnitTest11CurrentTest7DetailsEv@PLT
 891      00
 892 0043 488D6C24 		leaq	64(%rsp), %rbp
 892      40
 893 0048 488B30   		movq	(%rax), %rsi
 894 004b BA1B0000 		movl	$27, %edx
 894      00
 895 0050 4889EF   		movq	%rbp, %rdi
 896 0053 E8000000 		call	_ZN8UnitTest11TestDetailsC1ERKS0_i@PLT
 896      00
 897 0058 E8000000 		call	_ZN8UnitTest11CurrentTest7ResultsEv@PLT
 897      00
 898              	.LEHE17:
 899 005d 8B542418 		movl	24(%rsp), %edx
 900 0061 85D2     		testl	%edx, %edx
 901 0063 0F844602 		je	.L70
 901      0000
 902 0069 488D5C24 		leaq	96(%rsp), %rbx
 902      60
 903 006e 488B00   		movq	(%rax), %rax
 904 0071 4C8D2D00 		leaq	24+_ZTCN8UnitTest15MemoryOutStreamE0_So(%rip), %r13
 904      000000
 905 0078 4C8DB390 		leaq	144(%rbx), %r14
 905      000000
 906 007f 48890424 		movq	%rax, (%rsp)
 907 0083 4C89F7   		movq	%r14, %rdi
 908 0086 E8000000 		call	_ZNSt8ios_baseC2Ev@PLT
 908      00
 909 008b 498D4528 		leaq	40(%r13), %rax
 910 008f 31F6     		xorl	%esi, %esi
 911 0091 4C89F7   		movq	%r14, %rdi
 912 0094 48C78424 		movq	$0, 456(%rsp)
 912      C8010000 
 912      00000000 
 913 00a0 C68424D0 		movb	$0, 464(%rsp)
 913      01000000 
 914 00a8 C68424D1 		movb	$0, 465(%rsp)
 914      01000000 
 915 00b0 48C78424 		movq	$0, 472(%rsp)
 915      D8010000 
 915      00000000 
 916 00bc 48C78424 		movq	$0, 480(%rsp)
 916      E0010000 
 916      00000000 
 917 00c8 48C78424 		movq	$0, 488(%rsp)
 917      E8010000 
 917      00000000 
 918 00d4 48C78424 		movq	$0, 496(%rsp)
 918      F0010000 
 918      00000000 
 919 00e0 4C896C24 		movq	%r13, 96(%rsp)
 919      60
 920 00e5 48898424 		movq	%rax, 240(%rsp)
 920      F0000000 
 921              	.LEHB18:
 922 00ed E8000000 		call	_ZNSt9basic_iosIcSt11char_traitsIcEE4initEPSt15basic_streambufIcS1_E@PLT
 922      00
 923              	.LEHE18:
 924 00f2 488D0500 		leaq	24+_ZTCN8UnitTest15MemoryOutStreamE0_NSt7__cxx1119basic_ostringstreamIcSt11char_traitsIcESaIc
 924      000000
 925 00f9 660FEFC0 		pxor	%xmm0, %xmm0
 926 00fd 488D7B40 		leaq	64(%rbx), %rdi
 927 0101 48894424 		movq	%rax, 96(%rsp)
 927      60
 928 0106 4883C028 		addq	$40, %rax
 929 010a 48898424 		movq	%rax, 240(%rsp)
 929      F0000000 
 930 0112 488D0500 		leaq	16+_ZTVSt15basic_streambufIcSt11char_traitsIcEE(%rip), %rax
 930      000000
 931 0119 0F294424 		movaps	%xmm0, 112(%rsp)
 931      70
 932 011e 48894424 		movq	%rax, 104(%rsp)
 932      68
 933 0123 0F298424 		movaps	%xmm0, 128(%rsp)
 933      80000000 
 934 012b 0F298424 		movaps	%xmm0, 144(%rsp)
 934      90000000 
 935 0133 E8000000 		call	_ZNSt6localeC1Ev@PLT
 935      00
 936 0138 488D0500 		leaq	16+_ZTVNSt7__cxx1115basic_stringbufIcSt11char_traitsIcESaIcEEE(%rip), %rax
 936      000000
 937 013f 488D7308 		leaq	8(%rbx), %rsi
 938 0143 48894424 		movq	%rax, 104(%rsp)
 938      68
 939 0148 488D4360 		leaq	96(%rbx), %rax
 940 014c C78424A8 		movl	$16, 168(%rsp)
 940      00000010 
 940      000000
 941 0157 48C78424 		movq	$0, 184(%rsp)
 941      B8000000 
 941      00000000 
 942 0163 C68424C0 		movb	$0, 192(%rsp)
 942      00000000 
 943 016b 48898424 		movq	%rax, 176(%rsp)
 943      B0000000 
 944 0173 488B4424 		movq	96(%rsp), %rax
 944      60
 945 0178 488B78E8 		movq	-24(%rax), %rdi
 946 017c 4801DF   		addq	%rbx, %rdi
 947              	.LEHB19:
 948 017f E8000000 		call	_ZNSt9basic_iosIcSt11char_traitsIcEE4initEPSt15basic_streambufIcS1_E@PLT
 948      00
 949              	.LEHE19:
 950 0184 4C8D3D00 		leaq	24+_ZTVN8UnitTest15MemoryOutStreamE(%rip), %r15
 950      000000
 951 018b 488D8380 		leaq	128(%rbx), %rax
 951      000000
 952 0192 488D3500 		leaq	.LC0(%rip), %rsi
 952      000000
 953 0199 BA090000 		movl	$9, %edx
 953      00
 954 019e 4889DF   		movq	%rbx, %rdi
 955 01a1 48C78424 		movq	$0, 216(%rsp)
 955      D8000000 
 955      00000000 
 956 01ad 4D8D7728 		leaq	40(%r15), %r14
 957 01b1 4C897C24 		movq	%r15, 96(%rsp)
 957      60
 958 01b6 48898424 		movq	%rax, 208(%rsp)
 958      D0000000 
 959 01be C68424E0 		movb	$0, 224(%rsp)
 959      00000000 
 960 01c6 4C89B424 		movq	%r14, 240(%rsp)
 960      F0000000 
 961              	.LEHB20:
 962 01ce E8000000 		call	_ZSt16__ostream_insertIcSt11char_traitsIcEERSt13basic_ostreamIT_T0_ES6_PKS3_l@PLT
 962      00
 963 01d3 31F6     		xorl	%esi, %esi
 964 01d5 4889DF   		movq	%rbx, %rdi
 965 01d8 E8000000 		call	_ZNSolsEi@PLT
 965      00
 966 01dd 488D3500 		leaq	.LC1(%rip), %rsi
 966      000000
 967 01e4 BA090000 		movl	$9, %edx
 967      00
 968 01e9 4889C7   		movq	%rax, %rdi
 969 01ec 48894424 		movq	%rax, 8(%rsp)
 969      08
 970 01f1 E8000000 		call	_ZSt16__ostream_insertIcSt11char_traitsIcEERSt13basic_ostreamIT_T0_ES6_PKS3_l@PLT
 970      00
 971 01f6 8B742418 		movl	24(%rsp), %esi
 972 01fa 488B7C24 		movq	8(%rsp), %rdi
 972      08
 973 01ff E8000000 		call	_ZNSolsEi@PLT
 973      00
 974 0204 4889DF   		movq	%rbx, %rdi
 975 0207 E8000000 		call	_ZNK8UnitTest15MemoryOutStream7GetTextEv@PLT
 975      00
 976 020c 488B3C24 		movq	(%rsp), %rdi
 977 0210 4889C2   		movq	%rax, %rdx
 978 0213 4889EE   		movq	%rbp, %rsi
 979 0216 E8000000 		call	_ZN8UnitTest11TestResults13OnTestFailureERKNS_11TestDetailsEPKc@PLT
 979      00
 980              	.LEHE20:
 981 021b 488BBC24 		movq	208(%rsp), %rdi
 981      D0000000 
 982 0223 488D8380 		leaq	128(%rbx), %rax
 982      000000
 983 022a 4C897C24 		movq	%r15, 96(%rsp)
 983      60
 984 022f 4C89B424 		movq	%r14, 240(%rsp)
 984      F0000000 
 985 0237 4839C7   		cmpq	%rax, %rdi
 986 023a 7405     		je	.L67
 987 023c E8000000 		call	_ZdlPv@PLT
 987      00
 988              	.L67:
 989 0241 488D0500 		leaq	64+_ZTCN8UnitTest15MemoryOutStreamE0_NSt7__cxx1119basic_ostringstreamIcSt11char_traitsIcESaIc
 989      000000
 990 0248 488BBC24 		movq	176(%rsp), %rdi
 990      B0000000 
 991 0250 F30F7E05 		movq	.LC2(%rip), %xmm0
 991      00000000 
 992 0258 48898424 		movq	%rax, 240(%rsp)
 992      F0000000 
 993 0260 488D4360 		leaq	96(%rbx), %rax
 994 0264 0F160500 		movhps	.LC3(%rip), %xmm0
 994      000000
 995 026b 4839C7   		cmpq	%rax, %rdi
 996 026e 0F294424 		movaps	%xmm0, 96(%rsp)
 996      60
 997 0273 7405     		je	.L68
 998 0275 E8000000 		call	_ZdlPv@PLT
 998      00
 999              	.L68:
 1000 027a 488D0500 		leaq	16+_ZTVSt15basic_streambufIcSt11char_traitsIcEE(%rip), %rax
 1000      000000
 1001 0281 488D7B40 		leaq	64(%rbx), %rdi
 1002 0285 48894424 		movq	%rax, 104(%rsp)
 1002      68
 1003 028a E8000000 		call	_ZNSt6localeD1Ev@PLT
 1003      00
 1004 028f 488D0500 		leaq	16+_ZTVSt9basic_iosIcSt11char_traitsIcEE(%rip), %rax
 1004      000000
 1005 0296 488DBB90 		leaq	144(%rbx), %rdi
 1005      000000
 1006 029d 4C896C24 		movq	%r13, 96(%rsp)
 1006      60
 1007 02a2 48898424 		movq	%rax, 240(%rsp)
 1007      F0000000 
 1008              	.LEHB21:
 1009 02aa E8000000 		call	_ZNSt8ios_baseD2Ev@PLT
 1009      00
 1010              	.LEHE21:
 1011              	.L70:
 1012 02af 488D3500 		leaq	.LC4(%rip), %rsi
 1012      000000
 1013 02b6 31D2     		xorl	%edx, %edx
 1014 02b8 4C89E7   		movq	%r12, %rdi
 1015              	.LEHB22:
 1016 02bb E8000000 		call	bufAppendFromBinaryFile@PLT
 1016      00
 1017              	.LEHE22:
 1018 02c0 89442418 		movl	%eax, 24(%rsp)
 1019              	.LEHB23:
 1020 02c4 E8000000 		call	_ZN8UnitTest11CurrentTest7DetailsEv@PLT
 1020      00
 1021 02c9 488B30   		movq	(%rax), %rsi
 1022 02cc BA1D0000 		movl	$29, %edx
 1022      00
 1023 02d1 4889EF   		movq	%rbp, %rdi
 1024 02d4 E8000000 		call	_ZN8UnitTest11TestDetailsC1ERKS0_i@PLT
 1024      00
 1025 02d9 C744241C 		movl	$2, 28(%rsp)
 1025      02000000 
 1026 02e1 E8000000 		call	_ZN8UnitTest11CurrentTest7ResultsEv@PLT
 1026      00
 1027 02e6 488B38   		movq	(%rax), %rdi
 1028 02e9 488D5424 		leaq	24(%rsp), %rdx
 1028      18
 1029 02ee 488D7424 		leaq	28(%rsp), %rsi
 1029      1C
 1030 02f3 4889E9   		movq	%rbp, %rcx
 1031 02f6 E8000000 		call	_ZN8UnitTest10CheckEqualI12BufferStatusS1_EEvRNS_11TestResultsERKT_RKT0_RKNS_11TestDetailsE
 1031      00
 1032              	.LEHE23:
 1033              	.L73:
 1034 02fb 4C89E7   		movq	%r12, %rdi
 1035              	.LEHB24:
 1036 02fe E8000000 		call	bufDestroy@PLT
 1036      00
 1037              	.LEHE24:
 1038 0303 488B8424 		movq	504(%rsp), %rax
 1038      F8010000 
 1039 030b 64483304 		xorq	%fs:40, %rax
 1039      25280000 
 1039      00
 1040 0314 7512     		jne	.L87
 1041 0316 4881C408 		addq	$520, %rsp
 1041      020000
 1042              		.cfi_remember_state
 1043              		.cfi_def_cfa_offset 56
 1044 031d 5B       		popq	%rbx
 1045              		.cfi_def_cfa_offset 48
 1046 031e 5D       		popq	%rbp
 1047              		.cfi_def_cfa_offset 40
 1048 031f 415C     		popq	%r12
 1049              		.cfi_def_cfa_offset 32
 1050 0321 415D     		popq	%r13
 1051              		.cfi_def_cfa_offset 24
 1052 0323 415E     		popq	%r14
 1053              		.cfi_def_cfa_offset 16
 1054 0325 415F     		popq	%r15
 1055              		.cfi_def_cfa_offset 8
 1056 0327 C3       		ret
 1057              	.L87:
 1058              		.cfi_restore_state
 1059 0328 E8000000 		call	__stack_chk_fail@PLT
 1059      00
 1060              	.L78:
 1061 032d 4889C7   		movq	%rax, %rdi
 1062 0330 E8000000 		call	__cxa_begin_catch@PLT
 1062      00
 1063              	.LEHB25:
 1064 0335 E8000000 		call	_ZN8UnitTest11CurrentTest7ResultsEv@PLT
 1064      00
 1065 033a 488B18   		movq	(%rax), %rbx
 1066 033d E8000000 		call	_ZN8UnitTest11CurrentTest7DetailsEv@PLT
 1066      00
 1067 0342 488B30   		movq	(%rax), %rsi
 1068 0345 BA1D0000 		movl	$29, %edx
 1068      00
 1069 034a 4889EF   		movq	%rbp, %rdi
 1070 034d E8000000 		call	_ZN8UnitTest11TestDetailsC1ERKS0_i@PLT
 1070      00
 1071 0352 488D1500 		leaq	.LC6(%rip), %rdx
 1071      000000
 1072 0359 4889EE   		movq	%rbp, %rsi
 1073 035c 4889DF   		movq	%rbx, %rdi
 1074 035f E8000000 		call	_ZN8UnitTest11TestResults13OnTestFailureERKNS_11TestDetailsEPKc@PLT
 1074      00
 1075              	.LEHE25:
 1076              	.LEHB26:
 1077 0364 E8000000 		call	__cxa_end_catch@PLT
 1077      00
 1078              	.LEHE26:
 1079 0369 EB90     		jmp	.L73
 1080              	.L80:
 1081 036b 4889DF   		movq	%rbx, %rdi
 1082 036e 4889C5   		movq	%rax, %rbp
 1083 0371 E8000000 		call	_ZN8UnitTest15MemoryOutStreamD1Ev
 1083      00
 1084              	.L66:
 1085 0376 4889EF   		movq	%rbp, %rdi
 1086 0379 E8000000 		call	__cxa_begin_catch@PLT
 1086      00
 1087              	.LEHB27:
 1088 037e E8000000 		call	_ZN8UnitTest11CurrentTest7ResultsEv@PLT
 1088      00
 1089 0383 488B18   		movq	(%rax), %rbx
 1090 0386 E8000000 		call	_ZN8UnitTest11CurrentTest7DetailsEv@PLT
 1090      00
 1091 038b 488D6C24 		leaq	64(%rsp), %rbp
 1091      40
 1092 0390 488B30   		movq	(%rax), %rsi
 1093 0393 BA1B0000 		movl	$27, %edx
 1093      00
 1094 0398 4889EF   		movq	%rbp, %rdi
 1095 039b E8000000 		call	_ZN8UnitTest11TestDetailsC1ERKS0_i@PLT
 1095      00
 1096 03a0 488D1500 		leaq	.LC5(%rip), %rdx
 1096      000000
 1097 03a7 4889EE   		movq	%rbp, %rsi
 1098 03aa 4889DF   		movq	%rbx, %rdi
 1099 03ad E8000000 		call	_ZN8UnitTest11TestResults13OnTestFailureERKNS_11TestDetailsEPKc@PLT
 1099      00
 1100              	.LEHE27:
 1101              	.LEHB28:
 1102 03b2 E8000000 		call	__cxa_end_catch@PLT
 1102      00
 1103              	.LEHE28:
 1104 03b7 E9F3FEFF 		jmp	.L70
 1104      FF
 1105              	.L81:
 1106 03bc 4889C5   		movq	%rax, %rbp
 1107              	.L64:
 1108 03bf 488D0500 		leaq	16+_ZTVSt9basic_iosIcSt11char_traitsIcEE(%rip), %rax
 1108      000000
 1109 03c6 488DBB90 		leaq	144(%rbx), %rdi
 1109      000000
 1110 03cd 48898424 		movq	%rax, 240(%rsp)
 1110      F0000000 
 1111 03d5 E8000000 		call	_ZNSt8ios_baseD2Ev@PLT
 1111      00
 1112 03da EB9A     		jmp	.L66
 1113              	.L82:
 1114 03dc 488D7B08 		leaq	8(%rbx), %rdi
 1115 03e0 4889C5   		movq	%rax, %rbp
 1116 03e3 E8000000 		call	_ZNSt7__cxx1115basic_stringbufIcSt11char_traitsIcESaIcEED1Ev
 1116      00
 1117 03e8 4C896C24 		movq	%r13, 96(%rsp)
 1117      60
 1118 03ed EBD0     		jmp	.L64
 1119              	.L79:
 1120 03ef 4889C3   		movq	%rax, %rbx
 1121 03f2 E8000000 		call	__cxa_end_catch@PLT
 1121      00
 1122 03f7 4889DF   		movq	%rbx, %rdi
 1123              	.LEHB29:
 1124 03fa E8000000 		call	_Unwind_Resume@PLT
 1124      00
 1125              	.LEHE29:
 1126              	.L76:
 1127 03ff 4889C5   		movq	%rax, %rbp
 1128 0402 E96FFFFF 		jmp	.L66
 1128      FF
 1129              	.L77:
 1130 0407 4889C3   		movq	%rax, %rbx
 1131 040a E8000000 		call	__cxa_end_catch@PLT
 1131      00
 1132 040f 4889DF   		movq	%rbx, %rdi
 1133              	.LEHB30:
 1134 0412 E8000000 		call	_Unwind_Resume@PLT
 1134      00
 1135              	.LEHE30:
 1136              		.cfi_endproc
 1137              	.LFE1244:
 1138              		.section	.gcc_except_table,"a",@progbits
 1139              		.align 4
 1140              	.LLSDA1244:
 1141 0000 FF       		.byte	0xff
 1142 0001 9B       		.byte	0x9b
 1143 0002 5D       		.uleb128 .LLSDATT1244-.LLSDATTD1244
 1144              	.LLSDATTD1244:
 1145 0003 01       		.byte	0x1
 1146 0004 51       		.uleb128 .LLSDACSE1244-.LLSDACSB1244
 1147              	.LLSDACSB1244:
 1148 0005 35       		.uleb128 .LEHB16-.LFB1244
 1149 0006 05       		.uleb128 .LEHE16-.LEHB16
 1150 0007 00       		.uleb128 0
 1151 0008 00       		.uleb128 0
 1152 0009 3E       		.uleb128 .LEHB17-.LFB1244
 1153 000a 1F       		.uleb128 .LEHE17-.LEHB17
 1154 000b FF07     		.uleb128 .L76-.LFB1244
 1155 000d 01       		.uleb128 0x1
 1156 000e ED01     		.uleb128 .LEHB18-.LFB1244
 1157 0010 05       		.uleb128 .LEHE18-.LEHB18
 1158 0011 BC07     		.uleb128 .L81-.LFB1244
 1159 0013 03       		.uleb128 0x3
 1160 0014 FF02     		.uleb128 .LEHB19-.LFB1244
 1161 0016 05       		.uleb128 .LEHE19-.LEHB19
 1162 0017 DC07     		.uleb128 .L82-.LFB1244
 1163 0019 03       		.uleb128 0x3
 1164 001a CE03     		.uleb128 .LEHB20-.LFB1244
 1165 001c 4D       		.uleb128 .LEHE20-.LEHB20
 1166 001d EB06     		.uleb128 .L80-.LFB1244
 1167 001f 03       		.uleb128 0x3
 1168 0020 AA05     		.uleb128 .LEHB21-.LFB1244
 1169 0022 05       		.uleb128 .LEHE21-.LEHB21
 1170 0023 FF07     		.uleb128 .L76-.LFB1244
 1171 0025 01       		.uleb128 0x1
 1172 0026 BB05     		.uleb128 .LEHB22-.LFB1244
 1173 0028 05       		.uleb128 .LEHE22-.LEHB22
 1174 0029 00       		.uleb128 0
 1175 002a 00       		.uleb128 0
 1176 002b C405     		.uleb128 .LEHB23-.LFB1244
 1177 002d 37       		.uleb128 .LEHE23-.LEHB23
 1178 002e AD06     		.uleb128 .L78-.LFB1244
 1179 0030 01       		.uleb128 0x1
 1180 0031 FE05     		.uleb128 .LEHB24-.LFB1244
 1181 0033 05       		.uleb128 .LEHE24-.LEHB24
 1182 0034 00       		.uleb128 0
 1183 0035 00       		.uleb128 0
 1184 0036 B506     		.uleb128 .LEHB25-.LFB1244
 1185 0038 2F       		.uleb128 .LEHE25-.LEHB25
 1186 0039 EF07     		.uleb128 .L79-.LFB1244
 1187 003b 00       		.uleb128 0
 1188 003c E406     		.uleb128 .LEHB26-.LFB1244
 1189 003e 05       		.uleb128 .LEHE26-.LEHB26
 1190 003f 00       		.uleb128 0
 1191 0040 00       		.uleb128 0
 1192 0041 FE06     		.uleb128 .LEHB27-.LFB1244
 1193 0043 34       		.uleb128 .LEHE27-.LEHB27
 1194 0044 8708     		.uleb128 .L77-.LFB1244
 1195 0046 00       		.uleb128 0
 1196 0047 B207     		.uleb128 .LEHB28-.LFB1244
 1197 0049 05       		.uleb128 .LEHE28-.LEHB28
 1198 004a 00       		.uleb128 0
 1199 004b 00       		.uleb128 0
 1200 004c FA07     		.uleb128 .LEHB29-.LFB1244
 1201 004e 05       		.uleb128 .LEHE29-.LEHB29
 1202 004f 00       		.uleb128 0
 1203 0050 00       		.uleb128 0
 1204 0051 9208     		.uleb128 .LEHB30-.LFB1244
 1205 0053 05       		.uleb128 .LEHE30-.LEHB30
 1206 0054 00       		.uleb128 0
 1207 0055 00       		.uleb128 0
 1208              	.LLSDACSE1244:
 1209 0056 01       		.byte	0x1
 1210 0057 00       		.byte	0
 1211 0058 00       		.byte	0
 1212 0059 7D       		.byte	0x7d
 1213 005a 0000     		.align 4
 1214 005c 00000000 		.long	0
 1215              	
 1216              	.LLSDATT1244:
 1217              		.text
 1219              		.section	.text._ZN8UnitTest10CheckEqualImmEEvRNS_11TestResultsERKT_RKT0_RKNS_11TestDetailsE,"axG",
 1220              		.p2align 4,,15
 1221              		.weak	_ZN8UnitTest10CheckEqualImmEEvRNS_11TestResultsERKT_RKT0_RKNS_11TestDetailsE
 1223              	_ZN8UnitTest10CheckEqualImmEEvRNS_11TestResultsERKT_RKT0_RKNS_11TestDetailsE:
 1224              	.LFB1295:
 1225              		.cfi_startproc
 1226              		.cfi_personality 0x9b,DW.ref.__gxx_personality_v0
 1227              		.cfi_lsda 0x1b,.LLSDA1295
 1228 0000 4157     		pushq	%r15
 1229              		.cfi_def_cfa_offset 16
 1230              		.cfi_offset 15, -16
 1231 0002 4156     		pushq	%r14
 1232              		.cfi_def_cfa_offset 24
 1233              		.cfi_offset 14, -24
 1234 0004 4155     		pushq	%r13
 1235              		.cfi_def_cfa_offset 32
 1236              		.cfi_offset 13, -32
 1237 0006 4154     		pushq	%r12
 1238              		.cfi_def_cfa_offset 40
 1239              		.cfi_offset 12, -40
 1240 0008 55       		pushq	%rbp
 1241              		.cfi_def_cfa_offset 48
 1242              		.cfi_offset 6, -48
 1243 0009 53       		pushq	%rbx
 1244              		.cfi_def_cfa_offset 56
 1245              		.cfi_offset 3, -56
 1246 000a 4881ECB8 		subq	$440, %rsp
 1246      010000
 1247              		.cfi_def_cfa_offset 496
 1248 0011 64488B04 		movq	%fs:40, %rax
 1248      25280000 
 1248      00
 1249 001a 48898424 		movq	%rax, 424(%rsp)
 1249      A8010000 
 1250 0022 31C0     		xorl	%eax, %eax
 1251 0024 488B02   		movq	(%rdx), %rax
 1252 0027 483906   		cmpq	%rax, (%rsi)
 1253 002a 48893C24 		movq	%rdi, (%rsp)
 1254 002e 48894C24 		movq	%rcx, 8(%rsp)
 1254      08
 1255 0033 0F843002 		je	.L88
 1255      0000
 1256 0039 488D5C24 		leaq	16(%rsp), %rbx
 1256      10
 1257 003e 4C8D2D00 		leaq	24+_ZTCN8UnitTest15MemoryOutStreamE0_So(%rip), %r13
 1257      000000
 1258 0045 4989F4   		movq	%rsi, %r12
 1259 0048 4889D5   		movq	%rdx, %rbp
 1260 004b 4C8DB390 		leaq	144(%rbx), %r14
 1260      000000
 1261 0052 4C89F7   		movq	%r14, %rdi
 1262 0055 E8000000 		call	_ZNSt8ios_baseC2Ev@PLT
 1262      00
 1263 005a 498D4528 		leaq	40(%r13), %rax
 1264 005e 31F6     		xorl	%esi, %esi
 1265 0060 4C89F7   		movq	%r14, %rdi
 1266 0063 48C78424 		movq	$0, 376(%rsp)
 1266      78010000 
 1266      00000000 
 1267 006f C6842480 		movb	$0, 384(%rsp)
 1267      01000000 
 1268 0077 C6842481 		movb	$0, 385(%rsp)
 1268      01000000 
 1269 007f 48C78424 		movq	$0, 392(%rsp)
 1269      88010000 
 1269      00000000 
 1270 008b 48C78424 		movq	$0, 400(%rsp)
 1270      90010000 
 1270      00000000 
 1271 0097 48C78424 		movq	$0, 408(%rsp)
 1271      98010000 
 1271      00000000 
 1272 00a3 48C78424 		movq	$0, 416(%rsp)
 1272      A0010000 
 1272      00000000 
 1273 00af 4C896C24 		movq	%r13, 16(%rsp)
 1273      10
 1274 00b4 48898424 		movq	%rax, 160(%rsp)
 1274      A0000000 
 1275              	.LEHB31:
 1276 00bc E8000000 		call	_ZNSt9basic_iosIcSt11char_traitsIcEE4initEPSt15basic_streambufIcS1_E@PLT
 1276      00
 1277              	.LEHE31:
 1278 00c1 488D0500 		leaq	24+_ZTCN8UnitTest15MemoryOutStreamE0_NSt7__cxx1119basic_ostringstreamIcSt11char_traitsIcESaIc
 1278      000000
 1279 00c8 660FEFC0 		pxor	%xmm0, %xmm0
 1280 00cc 488D7B40 		leaq	64(%rbx), %rdi
 1281 00d0 48894424 		movq	%rax, 16(%rsp)
 1281      10
 1282 00d5 4883C028 		addq	$40, %rax
 1283 00d9 48898424 		movq	%rax, 160(%rsp)
 1283      A0000000 
 1284 00e1 488D0500 		leaq	16+_ZTVSt15basic_streambufIcSt11char_traitsIcEE(%rip), %rax
 1284      000000
 1285 00e8 0F294424 		movaps	%xmm0, 32(%rsp)
 1285      20
 1286 00ed 48894424 		movq	%rax, 24(%rsp)
 1286      18
 1287 00f2 0F294424 		movaps	%xmm0, 48(%rsp)
 1287      30
 1288 00f7 0F294424 		movaps	%xmm0, 64(%rsp)
 1288      40
 1289 00fc E8000000 		call	_ZNSt6localeC1Ev@PLT
 1289      00
 1290 0101 488D0500 		leaq	16+_ZTVNSt7__cxx1115basic_stringbufIcSt11char_traitsIcESaIcEEE(%rip), %rax
 1290      000000
 1291 0108 488D7308 		leaq	8(%rbx), %rsi
 1292 010c 48894424 		movq	%rax, 24(%rsp)
 1292      18
 1293 0111 488D4360 		leaq	96(%rbx), %rax
 1294 0115 C7442458 		movl	$16, 88(%rsp)
 1294      10000000 
 1295 011d 48C74424 		movq	$0, 104(%rsp)
 1295      68000000 
 1295      00
 1296 0126 C6442470 		movb	$0, 112(%rsp)
 1296      00
 1297 012b 48894424 		movq	%rax, 96(%rsp)
 1297      60
 1298 0130 488B4424 		movq	16(%rsp), %rax
 1298      10
 1299 0135 488B78E8 		movq	-24(%rax), %rdi
 1300 0139 4801DF   		addq	%rbx, %rdi
 1301              	.LEHB32:
 1302 013c E8000000 		call	_ZNSt9basic_iosIcSt11char_traitsIcEE4initEPSt15basic_streambufIcS1_E@PLT
 1302      00
 1303              	.LEHE32:
 1304 0141 4C8D3D00 		leaq	24+_ZTVN8UnitTest15MemoryOutStreamE(%rip), %r15
 1304      000000
 1305 0148 488D8380 		leaq	128(%rbx), %rax
 1305      000000
 1306 014f 488D3500 		leaq	.LC0(%rip), %rsi
 1306      000000
 1307 0156 BA090000 		movl	$9, %edx
 1307      00
 1308 015b 4889DF   		movq	%rbx, %rdi
 1309 015e 48C78424 		movq	$0, 136(%rsp)
 1309      88000000 
 1309      00000000 
 1310 016a 4D8D7728 		leaq	40(%r15), %r14
 1311 016e 4C897C24 		movq	%r15, 16(%rsp)
 1311      10
 1312 0173 48898424 		movq	%rax, 128(%rsp)
 1312      80000000 
 1313 017b C6842490 		movb	$0, 144(%rsp)
 1313      00000000 
 1314 0183 4C89B424 		movq	%r14, 160(%rsp)
 1314      A0000000 
 1315              	.LEHB33:
 1316 018b E8000000 		call	_ZSt16__ostream_insertIcSt11char_traitsIcEERSt13basic_ostreamIT_T0_ES6_PKS3_l@PLT
 1316      00
 1317 0190 498B3424 		movq	(%r12), %rsi
 1318 0194 4889DF   		movq	%rbx, %rdi
 1319 0197 E8000000 		call	_ZNSo9_M_insertImEERSoT_@PLT
 1319      00
 1320 019c 488D3500 		leaq	.LC1(%rip), %rsi
 1320      000000
 1321 01a3 BA090000 		movl	$9, %edx
 1321      00
 1322 01a8 4889C7   		movq	%rax, %rdi
 1323 01ab 4989C4   		movq	%rax, %r12
 1324 01ae E8000000 		call	_ZSt16__ostream_insertIcSt11char_traitsIcEERSt13basic_ostreamIT_T0_ES6_PKS3_l@PLT
 1324      00
 1325 01b3 488B7500 		movq	0(%rbp), %rsi
 1326 01b7 4C89E7   		movq	%r12, %rdi
 1327 01ba E8000000 		call	_ZNSo9_M_insertImEERSoT_@PLT
 1327      00
 1328 01bf 4889DF   		movq	%rbx, %rdi
 1329 01c2 E8000000 		call	_ZNK8UnitTest15MemoryOutStream7GetTextEv@PLT
 1329      00
 1330 01c7 488B7424 		movq	8(%rsp), %rsi
 1330      08
 1331 01cc 488B3C24 		movq	(%rsp), %rdi
 1332 01d0 4889C2   		movq	%rax, %rdx
 1333 01d3 E8000000 		call	_ZN8UnitTest11TestResults13OnTestFailureERKNS_11TestDetailsEPKc@PLT
 1333      00
 1334              	.LEHE33:
 1335 01d8 488BBC24 		movq	128(%rsp), %rdi
 1335      80000000 
 1336 01e0 488D8380 		leaq	128(%rbx), %rax
 1336      000000
 1337 01e7 4C897C24 		movq	%r15, 16(%rsp)
 1337      10
 1338 01ec 4C89B424 		movq	%r14, 160(%rsp)
 1338      A0000000 
 1339 01f4 4839C7   		cmpq	%rax, %rdi
 1340 01f7 7405     		je	.L94
 1341 01f9 E8000000 		call	_ZdlPv@PLT
 1341      00
 1342              	.L94:
 1343 01fe 488D0500 		leaq	64+_ZTCN8UnitTest15MemoryOutStreamE0_NSt7__cxx1119basic_ostringstreamIcSt11char_traitsIcESaIc
 1343      000000
 1344 0205 488B7C24 		movq	96(%rsp), %rdi
 1344      60
 1345 020a F30F7E05 		movq	.LC2(%rip), %xmm0
 1345      00000000 
 1346 0212 48898424 		movq	%rax, 160(%rsp)
 1346      A0000000 
 1347 021a 488D4360 		leaq	96(%rbx), %rax
 1348 021e 0F160500 		movhps	.LC3(%rip), %xmm0
 1348      000000
 1349 0225 4839C7   		cmpq	%rax, %rdi
 1350 0228 0F294424 		movaps	%xmm0, 16(%rsp)
 1350      10
 1351 022d 7405     		je	.L95
 1352 022f E8000000 		call	_ZdlPv@PLT
 1352      00
 1353              	.L95:
 1354 0234 488D0500 		leaq	16+_ZTVSt15basic_streambufIcSt11char_traitsIcEE(%rip), %rax
 1354      000000
 1355 023b 488D7B40 		leaq	64(%rbx), %rdi
 1356 023f 48894424 		movq	%rax, 24(%rsp)
 1356      18
 1357 0244 E8000000 		call	_ZNSt6localeD1Ev@PLT
 1357      00
 1358 0249 488D0500 		leaq	16+_ZTVSt9basic_iosIcSt11char_traitsIcEE(%rip), %rax
 1358      000000
 1359 0250 488DBB90 		leaq	144(%rbx), %rdi
 1359      000000
 1360 0257 4C896C24 		movq	%r13, 16(%rsp)
 1360      10
 1361 025c 48898424 		movq	%rax, 160(%rsp)
 1361      A0000000 
 1362              	.LEHB34:
 1363 0264 E8000000 		call	_ZNSt8ios_baseD2Ev@PLT
 1363      00
 1364              	.LEHE34:
 1365              	.L88:
 1366 0269 488B8424 		movq	424(%rsp), %rax
 1366      A8010000 
 1367 0271 64483304 		xorq	%fs:40, %rax
 1367      25280000 
 1367      00
 1368 027a 7512     		jne	.L104
 1369 027c 4881C4B8 		addq	$440, %rsp
 1369      010000
 1370              		.cfi_remember_state
 1371              		.cfi_def_cfa_offset 56
 1372 0283 5B       		popq	%rbx
 1373              		.cfi_def_cfa_offset 48
 1374 0284 5D       		popq	%rbp
 1375              		.cfi_def_cfa_offset 40
 1376 0285 415C     		popq	%r12
 1377              		.cfi_def_cfa_offset 32
 1378 0287 415D     		popq	%r13
 1379              		.cfi_def_cfa_offset 24
 1380 0289 415E     		popq	%r14
 1381              		.cfi_def_cfa_offset 16
 1382 028b 415F     		popq	%r15
 1383              		.cfi_def_cfa_offset 8
 1384 028d C3       		ret
 1385              	.L104:
 1386              		.cfi_restore_state
 1387 028e E8000000 		call	__stack_chk_fail@PLT
 1387      00
 1388              	.L99:
 1389 0293 4889C5   		movq	%rax, %rbp
 1390              	.L92:
 1391 0296 488D0500 		leaq	16+_ZTVSt9basic_iosIcSt11char_traitsIcEE(%rip), %rax
 1391      000000
 1392 029d 488DBB90 		leaq	144(%rbx), %rdi
 1392      000000
 1393 02a4 48898424 		movq	%rax, 160(%rsp)
 1393      A0000000 
 1394 02ac E8000000 		call	_ZNSt8ios_baseD2Ev@PLT
 1394      00
 1395 02b1 4889EF   		movq	%rbp, %rdi
 1396              	.LEHB35:
 1397 02b4 E8000000 		call	_Unwind_Resume@PLT
 1397      00
 1398              	.LEHE35:
 1399              	.L98:
 1400 02b9 4889C5   		movq	%rax, %rbp
 1401 02bc 4889DF   		movq	%rbx, %rdi
 1402 02bf E8000000 		call	_ZN8UnitTest15MemoryOutStreamD1Ev
 1402      00
 1403 02c4 4889EF   		movq	%rbp, %rdi
 1404              	.LEHB36:
 1405 02c7 E8000000 		call	_Unwind_Resume@PLT
 1405      00
 1406              	.LEHE36:
 1407              	.L100:
 1408 02cc 488D7B08 		leaq	8(%rbx), %rdi
 1409 02d0 4889C5   		movq	%rax, %rbp
 1410 02d3 E8000000 		call	_ZNSt7__cxx1115basic_stringbufIcSt11char_traitsIcESaIcEED1Ev
 1410      00
 1411 02d8 4C896C24 		movq	%r13, 16(%rsp)
 1411      10
 1412 02dd EBB7     		jmp	.L92
 1413              		.cfi_endproc
 1414              	.LFE1295:
 1415              		.section	.gcc_except_table
 1416              	.LLSDA1295:
 1417 0060 FF       		.byte	0xff
 1418 0061 FF       		.byte	0xff
 1419 0062 01       		.byte	0x1
 1420 0063 21       		.uleb128 .LLSDACSE1295-.LLSDACSB1295
 1421              	.LLSDACSB1295:
 1422 0064 BC01     		.uleb128 .LEHB31-.LFB1295
 1423 0066 05       		.uleb128 .LEHE31-.LEHB31
 1424 0067 9305     		.uleb128 .L99-.LFB1295
 1425 0069 00       		.uleb128 0
 1426 006a BC02     		.uleb128 .LEHB32-.LFB1295
 1427 006c 05       		.uleb128 .LEHE32-.LEHB32
 1428 006d CC05     		.uleb128 .L100-.LFB1295
 1429 006f 00       		.uleb128 0
 1430 0070 8B03     		.uleb128 .LEHB33-.LFB1295
 1431 0072 4D       		.uleb128 .LEHE33-.LEHB33
 1432 0073 B905     		.uleb128 .L98-.LFB1295
 1433 0075 00       		.uleb128 0
 1434 0076 E404     		.uleb128 .LEHB34-.LFB1295
 1435 0078 05       		.uleb128 .LEHE34-.LEHB34
 1436 0079 00       		.uleb128 0
 1437 007a 00       		.uleb128 0
 1438 007b B405     		.uleb128 .LEHB35-.LFB1295
 1439 007d 05       		.uleb128 .LEHE35-.LEHB35
 1440 007e 00       		.uleb128 0
 1441 007f 00       		.uleb128 0
 1442 0080 C705     		.uleb128 .LEHB36-.LFB1295
 1443 0082 05       		.uleb128 .LEHE36-.LEHB36
 1444 0083 00       		.uleb128 0
 1445 0084 00       		.uleb128 0
 1446              	.LLSDACSE1295:
 1447              		.section	.text._ZN8UnitTest10CheckEqualImmEEvRNS_11TestResultsERKT_RKT0_RKNS_11TestDetailsE,"axG",
 1449              		.section	.rodata._ZN8UnitTest15CheckArrayEqualIPKcPhEEvRNS_11TestResultsERKT_RKT0_iRKNS_11TestDeta
 1450              	.LC7:
 1451 0000 45787065 		.string	"Expected [ "
 1451      63746564 
 1451      205B2000 
 1452              	.LC8:
 1453 000c 2000     		.string	" "
 1454              	.LC9:
 1455 000e 5D206275 		.string	"] but was [ "
 1455      74207761 
 1455      73205B20 
 1455      00
 1456              	.LC10:
 1457 001b 5D00     		.string	"]"
 1458              		.section	.text._ZN8UnitTest15CheckArrayEqualIPKcPhEEvRNS_11TestResultsERKT_RKT0_iRKNS_11TestDetail
 1459              		.p2align 4,,15
 1460              		.weak	_ZN8UnitTest15CheckArrayEqualIPKcPhEEvRNS_11TestResultsERKT_RKT0_iRKNS_11TestDetailsE
 1462              	_ZN8UnitTest15CheckArrayEqualIPKcPhEEvRNS_11TestResultsERKT_RKT0_iRKNS_11TestDetailsE:
 1463              	.LFB1296:
 1464              		.cfi_startproc
 1465              		.cfi_personality 0x9b,DW.ref.__gxx_personality_v0
 1466              		.cfi_lsda 0x1b,.LLSDA1296
 1467 0000 4157     		pushq	%r15
 1468              		.cfi_def_cfa_offset 16
 1469              		.cfi_offset 15, -16
 1470 0002 4156     		pushq	%r14
 1471              		.cfi_def_cfa_offset 24
 1472              		.cfi_offset 14, -24
 1473 0004 4155     		pushq	%r13
 1474              		.cfi_def_cfa_offset 32
 1475              		.cfi_offset 13, -32
 1476 0006 4154     		pushq	%r12
 1477              		.cfi_def_cfa_offset 40
 1478              		.cfi_offset 12, -40
 1479 0008 55       		pushq	%rbp
 1480              		.cfi_def_cfa_offset 48
 1481              		.cfi_offset 6, -48
 1482 0009 53       		pushq	%rbx
 1483              		.cfi_def_cfa_offset 56
 1484              		.cfi_offset 3, -56
 1485 000a 4881ECD8 		subq	$472, %rsp
 1485      010000
 1486              		.cfi_def_cfa_offset 528
 1487 0011 64488B04 		movq	%fs:40, %rax
 1487      25280000 
 1487      00
 1488 001a 48898424 		movq	%rax, 456(%rsp)
 1488      C8010000 
 1489 0022 31C0     		xorl	%eax, %eax
 1490 0024 85C9     		testl	%ecx, %ecx
 1491 0026 48897C24 		movq	%rdi, 16(%rsp)
 1491      10
 1492 002b 4C894424 		movq	%r8, 24(%rsp)
 1492      18
 1493 0030 7E3B     		jle	.L105
 1494 0032 4989F6   		movq	%rsi, %r14
 1495 0035 4C8B06   		movq	(%rsi), %r8
 1496 0038 488B3A   		movq	(%rdx), %rdi
 1497 003b 8D71FF   		leal	-1(%rcx), %esi
 1498 003e 4989D5   		movq	%rdx, %r13
 1499 0041 31DB     		xorl	%ebx, %ebx
 1500 0043 B8010000 		movl	$1, %eax
 1500      00
 1501 0048 4883C601 		addq	$1, %rsi
 1502 004c 0F1F4000 		.p2align 4,,10
 1503              		.p2align 3
 1504              	.L107:
 1505 0050 0FB6141F 		movzbl	(%rdi,%rbx), %edx
 1506 0054 410FBE0C 		movsbl	(%r8,%rbx), %ecx
 1506      18
 1507 0059 39D1     		cmpl	%edx, %ecx
 1508 005b 0F94C2   		sete	%dl
 1509 005e 4883C301 		addq	$1, %rbx
 1510 0062 21D0     		andl	%edx, %eax
 1511 0064 4839DE   		cmpq	%rbx, %rsi
 1512 0067 75E7     		jne	.L107
 1513 0069 84C0     		testb	%al, %al
 1514 006b 7433     		je	.L127
 1515              	.L105:
 1516 006d 488B8424 		movq	456(%rsp), %rax
 1516      C8010000 
 1517 0075 64483304 		xorq	%fs:40, %rax
 1517      25280000 
 1517      00
 1518 007e 0F85FE02 		jne	.L128
 1518      0000
 1519 0084 4881C4D8 		addq	$472, %rsp
 1519      010000
 1520              		.cfi_remember_state
 1521              		.cfi_def_cfa_offset 56
 1522 008b 5B       		popq	%rbx
 1523              		.cfi_def_cfa_offset 48
 1524 008c 5D       		popq	%rbp
 1525              		.cfi_def_cfa_offset 40
 1526 008d 415C     		popq	%r12
 1527              		.cfi_def_cfa_offset 32
 1528 008f 415D     		popq	%r13
 1529              		.cfi_def_cfa_offset 24
 1530 0091 415E     		popq	%r14
 1531              		.cfi_def_cfa_offset 16
 1532 0093 415F     		popq	%r15
 1533              		.cfi_def_cfa_offset 8
 1534 0095 C3       		ret
 1535 0096 662E0F1F 		.p2align 4,,10
 1535      84000000 
 1535      0000
 1536              		.p2align 3
 1537              	.L127:
 1538              		.cfi_restore_state
 1539 00a0 4C8D6424 		leaq	48(%rsp), %r12
 1539      30
 1540 00a5 498DAC24 		leaq	144(%r12), %rbp
 1540      90000000 
 1541 00ad 4889EF   		movq	%rbp, %rdi
 1542 00b0 E8000000 		call	_ZNSt8ios_baseC2Ev@PLT
 1542      00
 1543 00b5 488D0500 		leaq	24+_ZTCN8UnitTest15MemoryOutStreamE0_So(%rip), %rax
 1543      000000
 1544 00bc 31F6     		xorl	%esi, %esi
 1545 00be 4889EF   		movq	%rbp, %rdi
 1546 00c1 48C78424 		movq	$0, 408(%rsp)
 1546      98010000 
 1546      00000000 
 1547 00cd C68424A0 		movb	$0, 416(%rsp)
 1547      01000000 
 1548 00d5 48894424 		movq	%rax, 48(%rsp)
 1548      30
 1549 00da 4883C028 		addq	$40, %rax
 1550 00de C68424A1 		movb	$0, 417(%rsp)
 1550      01000000 
 1551 00e6 48C78424 		movq	$0, 424(%rsp)
 1551      A8010000 
 1551      00000000 
 1552 00f2 48C78424 		movq	$0, 432(%rsp)
 1552      B0010000 
 1552      00000000 
 1553 00fe 48C78424 		movq	$0, 440(%rsp)
 1553      B8010000 
 1553      00000000 
 1554 010a 48C78424 		movq	$0, 448(%rsp)
 1554      C0010000 
 1554      00000000 
 1555 0116 48898424 		movq	%rax, 192(%rsp)
 1555      C0000000 
 1556              	.LEHB37:
 1557 011e E8000000 		call	_ZNSt9basic_iosIcSt11char_traitsIcEE4initEPSt15basic_streambufIcS1_E@PLT
 1557      00
 1558              	.LEHE37:
 1559 0123 488D0500 		leaq	24+_ZTCN8UnitTest15MemoryOutStreamE0_NSt7__cxx1119basic_ostringstreamIcSt11char_traitsIcESaIc
 1559      000000
 1560 012a 660FEFC0 		pxor	%xmm0, %xmm0
 1561 012e 498D7C24 		leaq	64(%r12), %rdi
 1561      40
 1562 0133 48894424 		movq	%rax, 48(%rsp)
 1562      30
 1563 0138 4883C028 		addq	$40, %rax
 1564 013c 48898424 		movq	%rax, 192(%rsp)
 1564      C0000000 
 1565 0144 488D0500 		leaq	16+_ZTVSt15basic_streambufIcSt11char_traitsIcEE(%rip), %rax
 1565      000000
 1566 014b 0F294424 		movaps	%xmm0, 64(%rsp)
 1566      40
 1567 0150 48894424 		movq	%rax, 56(%rsp)
 1567      38
 1568 0155 0F294424 		movaps	%xmm0, 80(%rsp)
 1568      50
 1569 015a 0F294424 		movaps	%xmm0, 96(%rsp)
 1569      60
 1570 015f E8000000 		call	_ZNSt6localeC1Ev@PLT
 1570      00
 1571 0164 488D0500 		leaq	16+_ZTVNSt7__cxx1115basic_stringbufIcSt11char_traitsIcESaIcEEE(%rip), %rax
 1571      000000
 1572 016b 498D7424 		leaq	8(%r12), %rsi
 1572      08
 1573 0170 48894424 		movq	%rax, 56(%rsp)
 1573      38
 1574 0175 498D4424 		leaq	96(%r12), %rax
 1574      60
 1575 017a C7442478 		movl	$16, 120(%rsp)
 1575      10000000 
 1576 0182 48C78424 		movq	$0, 136(%rsp)
 1576      88000000 
 1576      00000000 
 1577 018e C6842490 		movb	$0, 144(%rsp)
 1577      00000000 
 1578 0196 48898424 		movq	%rax, 128(%rsp)
 1578      80000000 
 1579 019e 488B4424 		movq	48(%rsp), %rax
 1579      30
 1580 01a3 488B78E8 		movq	-24(%rax), %rdi
 1581 01a7 4C01E7   		addq	%r12, %rdi
 1582              	.LEHB38:
 1583 01aa E8000000 		call	_ZNSt9basic_iosIcSt11char_traitsIcEE4initEPSt15basic_streambufIcS1_E@PLT
 1583      00
 1584              	.LEHE38:
 1585 01af 488D0500 		leaq	24+_ZTVN8UnitTest15MemoryOutStreamE(%rip), %rax
 1585      000000
 1586 01b6 488D3500 		leaq	.LC7(%rip), %rsi
 1586      000000
 1587 01bd BA0B0000 		movl	$11, %edx
 1587      00
 1588 01c2 4C89E7   		movq	%r12, %rdi
 1589 01c5 48C78424 		movq	$0, 168(%rsp)
 1589      A8000000 
 1589      00000000 
 1590 01d1 C68424B0 		movb	$0, 176(%rsp)
 1590      00000000 
 1591 01d9 48894424 		movq	%rax, 48(%rsp)
 1591      30
 1592 01de 4883C028 		addq	$40, %rax
 1593 01e2 48898424 		movq	%rax, 192(%rsp)
 1593      C0000000 
 1594 01ea 498D8424 		leaq	128(%r12), %rax
 1594      80000000 
 1595 01f2 48898424 		movq	%rax, 160(%rsp)
 1595      A0000000 
 1596              	.LEHB39:
 1597 01fa E8000000 		call	_ZSt16__ostream_insertIcSt11char_traitsIcEERSt13basic_ostreamIT_T0_ES6_PKS3_l@PLT
 1597      00
 1598 01ff 488D4424 		leaq	46(%rsp), %rax
 1598      2E
 1599 0204 4C8D3D00 		leaq	.LC8(%rip), %r15
 1599      000000
 1600 020b 31ED     		xorl	%ebp, %ebp
 1601 020d 48894424 		movq	%rax, 8(%rsp)
 1601      08
 1602              		.p2align 4,,10
 1603 0212 660F1F44 		.p2align 3
 1603      0000
 1604              	.L111:
 1605 0218 498B06   		movq	(%r14), %rax
 1606 021b 488B7424 		movq	8(%rsp), %rsi
 1606      08
 1607 0220 BA010000 		movl	$1, %edx
 1607      00
 1608 0225 4C89E7   		movq	%r12, %rdi
 1609 0228 0FB60428 		movzbl	(%rax,%rbp), %eax
 1610 022c 8844242E 		movb	%al, 46(%rsp)
 1611 0230 E8000000 		call	_ZSt16__ostream_insertIcSt11char_traitsIcEERSt13basic_ostreamIT_T0_ES6_PKS3_l@PLT
 1611      00
 1612 0235 BA010000 		movl	$1, %edx
 1612      00
 1613 023a 4C89FE   		movq	%r15, %rsi
 1614 023d 4889C7   		movq	%rax, %rdi
 1615 0240 E8000000 		call	_ZSt16__ostream_insertIcSt11char_traitsIcEERSt13basic_ostreamIT_T0_ES6_PKS3_l@PLT
 1615      00
 1616 0245 4883C501 		addq	$1, %rbp
 1617 0249 4839EB   		cmpq	%rbp, %rbx
 1618 024c 75CA     		jne	.L111
 1619 024e 488D3500 		leaq	.LC9(%rip), %rsi
 1619      000000
 1620 0255 BA0C0000 		movl	$12, %edx
 1620      00
 1621 025a 4C89E7   		movq	%r12, %rdi
 1622 025d E8000000 		call	_ZSt16__ostream_insertIcSt11char_traitsIcEERSt13basic_ostreamIT_T0_ES6_PKS3_l@PLT
 1622      00
 1623 0262 4C8D7424 		leaq	47(%rsp), %r14
 1623      2F
 1624 0267 4C8D3D00 		leaq	.LC8(%rip), %r15
 1624      000000
 1625 026e 31DB     		xorl	%ebx, %ebx
 1626              		.p2align 4,,10
 1627              		.p2align 3
 1628              	.L112:
 1629 0270 498B4500 		movq	0(%r13), %rax
 1630 0274 BA010000 		movl	$1, %edx
 1630      00
 1631 0279 4C89F6   		movq	%r14, %rsi
 1632 027c 4C89E7   		movq	%r12, %rdi
 1633 027f 0FB60418 		movzbl	(%rax,%rbx), %eax
 1634 0283 8844242F 		movb	%al, 47(%rsp)
 1635 0287 E8000000 		call	_ZSt16__ostream_insertIcSt11char_traitsIcEERSt13basic_ostreamIT_T0_ES6_PKS3_l@PLT
 1635      00
 1636 028c BA010000 		movl	$1, %edx
 1636      00
 1637 0291 4C89FE   		movq	%r15, %rsi
 1638 0294 4889C7   		movq	%rax, %rdi
 1639 0297 E8000000 		call	_ZSt16__ostream_insertIcSt11char_traitsIcEERSt13basic_ostreamIT_T0_ES6_PKS3_l@PLT
 1639      00
 1640 029c 4883C301 		addq	$1, %rbx
 1641 02a0 4839DD   		cmpq	%rbx, %rbp
 1642 02a3 75CB     		jne	.L112
 1643 02a5 488D3500 		leaq	.LC10(%rip), %rsi
 1643      000000
 1644 02ac BA010000 		movl	$1, %edx
 1644      00
 1645 02b1 4C89E7   		movq	%r12, %rdi
 1646 02b4 E8000000 		call	_ZSt16__ostream_insertIcSt11char_traitsIcEERSt13basic_ostreamIT_T0_ES6_PKS3_l@PLT
 1646      00
 1647 02b9 4C89E7   		movq	%r12, %rdi
 1648 02bc E8000000 		call	_ZNK8UnitTest15MemoryOutStream7GetTextEv@PLT
 1648      00
 1649 02c1 488B7424 		movq	24(%rsp), %rsi
 1649      18
 1650 02c6 488B7C24 		movq	16(%rsp), %rdi
 1650      10
 1651 02cb 4889C2   		movq	%rax, %rdx
 1652 02ce E8000000 		call	_ZN8UnitTest11TestResults13OnTestFailureERKNS_11TestDetailsEPKc@PLT
 1652      00
 1653              	.LEHE39:
 1654 02d3 488D0500 		leaq	24+_ZTVN8UnitTest15MemoryOutStreamE(%rip), %rax
 1654      000000
 1655 02da 488BBC24 		movq	160(%rsp), %rdi
 1655      A0000000 
 1656 02e2 48894424 		movq	%rax, 48(%rsp)
 1656      30
 1657 02e7 4883C028 		addq	$40, %rax
 1658 02eb 48898424 		movq	%rax, 192(%rsp)
 1658      C0000000 
 1659 02f3 498D8424 		leaq	128(%r12), %rax
 1659      80000000 
 1660 02fb 4839C7   		cmpq	%rax, %rdi
 1661 02fe 7405     		je	.L113
 1662 0300 E8000000 		call	_ZdlPv@PLT
 1662      00
 1663              	.L113:
 1664 0305 488D0500 		leaq	64+_ZTCN8UnitTest15MemoryOutStreamE0_NSt7__cxx1119basic_ostringstreamIcSt11char_traitsIcESaIc
 1664      000000
 1665 030c 488BBC24 		movq	128(%rsp), %rdi
 1665      80000000 
 1666 0314 F30F7E05 		movq	.LC2(%rip), %xmm0
 1666      00000000 
 1667 031c 48898424 		movq	%rax, 192(%rsp)
 1667      C0000000 
 1668 0324 498D4424 		leaq	96(%r12), %rax
 1668      60
 1669 0329 0F160500 		movhps	.LC3(%rip), %xmm0
 1669      000000
 1670 0330 4839C7   		cmpq	%rax, %rdi
 1671 0333 0F294424 		movaps	%xmm0, 48(%rsp)
 1671      30
 1672 0338 7405     		je	.L114
 1673 033a E8000000 		call	_ZdlPv@PLT
 1673      00
 1674              	.L114:
 1675 033f 488D0500 		leaq	16+_ZTVSt15basic_streambufIcSt11char_traitsIcEE(%rip), %rax
 1675      000000
 1676 0346 498D7C24 		leaq	64(%r12), %rdi
 1676      40
 1677 034b 48894424 		movq	%rax, 56(%rsp)
 1677      38
 1678 0350 E8000000 		call	_ZNSt6localeD1Ev@PLT
 1678      00
 1679 0355 488D0500 		leaq	24+_ZTCN8UnitTest15MemoryOutStreamE0_So(%rip), %rax
 1679      000000
 1680 035c 498DBC24 		leaq	144(%r12), %rdi
 1680      90000000 
 1681 0364 48894424 		movq	%rax, 48(%rsp)
 1681      30
 1682 0369 488D0500 		leaq	16+_ZTVSt9basic_iosIcSt11char_traitsIcEE(%rip), %rax
 1682      000000
 1683 0370 48898424 		movq	%rax, 192(%rsp)
 1683      C0000000 
 1684              	.LEHB40:
 1685 0378 E8000000 		call	_ZNSt8ios_baseD2Ev@PLT
 1685      00
 1686              	.LEHE40:
 1687 037d E9EBFCFF 		jmp	.L105
 1687      FF
 1688              	.L128:
 1689 0382 E8000000 		call	__stack_chk_fail@PLT
 1689      00
 1690              	.L119:
 1691 0387 4889C3   		movq	%rax, %rbx
 1692              	.L110:
 1693 038a 488D0500 		leaq	16+_ZTVSt9basic_iosIcSt11char_traitsIcEE(%rip), %rax
 1693      000000
 1694 0391 498DBC24 		leaq	144(%r12), %rdi
 1694      90000000 
 1695 0399 48898424 		movq	%rax, 192(%rsp)
 1695      C0000000 
 1696 03a1 E8000000 		call	_ZNSt8ios_baseD2Ev@PLT
 1696      00
 1697 03a6 4889DF   		movq	%rbx, %rdi
 1698              	.LEHB41:
 1699 03a9 E8000000 		call	_Unwind_Resume@PLT
 1699      00
 1700              	.LEHE41:
 1701              	.L120:
 1702 03ae 498D7C24 		leaq	8(%r12), %rdi
 1702      08
 1703 03b3 4889C3   		movq	%rax, %rbx
 1704 03b6 E8000000 		call	_ZNSt7__cxx1115basic_stringbufIcSt11char_traitsIcESaIcEED1Ev
 1704      00
 1705 03bb 488D0500 		leaq	24+_ZTCN8UnitTest15MemoryOutStreamE0_So(%rip), %rax
 1705      000000
 1706 03c2 48894424 		movq	%rax, 48(%rsp)
 1706      30
 1707 03c7 EBC1     		jmp	.L110
 1708              	.L118:
 1709 03c9 4889C3   		movq	%rax, %rbx
 1710 03cc 4C89E7   		movq	%r12, %rdi
 1711 03cf E8000000 		call	_ZN8UnitTest15MemoryOutStreamD1Ev
 1711      00
 1712 03d4 4889DF   		movq	%rbx, %rdi
 1713              	.LEHB42:
 1714 03d7 E8000000 		call	_Unwind_Resume@PLT
 1714      00
 1715              	.LEHE42:
 1716              		.cfi_endproc
 1717              	.LFE1296:
 1718              		.section	.gcc_except_table
 1719              	.LLSDA1296:
 1720 0085 FF       		.byte	0xff
 1721 0086 FF       		.byte	0xff
 1722 0087 01       		.byte	0x1
 1723 0088 22       		.uleb128 .LLSDACSE1296-.LLSDACSB1296
 1724              	.LLSDACSB1296:
 1725 0089 9E02     		.uleb128 .LEHB37-.LFB1296
 1726 008b 05       		.uleb128 .LEHE37-.LEHB37
 1727 008c 8707     		.uleb128 .L119-.LFB1296
 1728 008e 00       		.uleb128 0
 1729 008f AA03     		.uleb128 .LEHB38-.LFB1296
 1730 0091 05       		.uleb128 .LEHE38-.LEHB38
 1731 0092 AE07     		.uleb128 .L120-.LFB1296
 1732 0094 00       		.uleb128 0
 1733 0095 FA03     		.uleb128 .LEHB39-.LFB1296
 1734 0097 D901     		.uleb128 .LEHE39-.LEHB39
 1735 0099 C907     		.uleb128 .L118-.LFB1296
 1736 009b 00       		.uleb128 0
 1737 009c F806     		.uleb128 .LEHB40-.LFB1296
 1738 009e 05       		.uleb128 .LEHE40-.LEHB40
 1739 009f 00       		.uleb128 0
 1740 00a0 00       		.uleb128 0
 1741 00a1 A907     		.uleb128 .LEHB41-.LFB1296
 1742 00a3 05       		.uleb128 .LEHE41-.LEHB41
 1743 00a4 00       		.uleb128 0
 1744 00a5 00       		.uleb128 0
 1745 00a6 D707     		.uleb128 .LEHB42-.LFB1296
 1746 00a8 05       		.uleb128 .LEHE42-.LEHB42
 1747 00a9 00       		.uleb128 0
 1748 00aa 00       		.uleb128 0
 1749              	.LLSDACSE1296:
 1750              		.section	.text._ZN8UnitTest15CheckArrayEqualIPKcPhEEvRNS_11TestResultsERKT_RKT0_iRKNS_11TestDetail
 1752              		.section	.rodata.str1.1
 1753              	.LC11:
 1754 0014 4A757374 		.string	"Just some test data"
 1754      20736F6D 
 1754      65207465 
 1754      73742064 
 1754      61746100 
 1755              	.LC12:
 1756 0028 746D7046 		.string	"tmpFile.bin"
 1756      696C652E 
 1756      62696E00 
 1757              		.section	.rodata.str1.8
 1758 006e 0000     		.align 8
 1759              	.LC13:
 1760 0070 556E6861 		.string	"Unhandled exception in CHECK_EQUAL(strlen(DATA), buf.length)"
 1760      6E646C65 
 1760      64206578 
 1760      63657074 
 1760      696F6E20 
 1761 00ad 000000   		.align 8
 1762              	.LC14:
 1763 00b0 556E6861 		.string	"Unhandled exception in CHECK_ARRAY_EQUAL(DATA, buf.data)"
 1763      6E646C65 
 1763      64206578 
 1763      63657074 
 1763      696F6E20 
 1764 00e9 00000000 		.align 8
 1764      000000
 1765              	.LC15:
 1766 00f0 556E6861 		.string	"Unhandled exception in CHECK_EQUAL(2 * strlen(DATA), buf.length)"
 1766      6E646C65 
 1766      64206578 
 1766      63657074 
 1766      696F6E20 
 1767 0131 00000000 		.align 8
 1767      000000
 1768              	.LC16:
 1769 0138 556E6861 		.string	"Unhandled exception in CHECK_ARRAY_EQUAL(DATA, buf.data + strlen(DATA))"
 1769      6E646C65 
 1769      64206578 
 1769      63657074 
 1769      696F6E20 
 1770              		.text
 1771 0417 90       		.align 2
 1772 0418 0F1F8400 		.p2align 4,,15
 1772      00000000 
 1773              		.globl	_ZNK30TestBinIO_testReadExistingFile7RunImplEv
 1775              	_ZNK30TestBinIO_testReadExistingFile7RunImplEv:
 1776              	.LFB1248:
 1777              		.cfi_startproc
 1778              		.cfi_personality 0x9b,DW.ref.__gxx_personality_v0
 1779              		.cfi_lsda 0x1b,.LLSDA1248
 1780 0420 4157     		pushq	%r15
 1781              		.cfi_def_cfa_offset 16
 1782              		.cfi_offset 15, -16
 1783 0422 4156     		pushq	%r14
 1784              		.cfi_def_cfa_offset 24
 1785              		.cfi_offset 14, -24
 1786 0424 4155     		pushq	%r13
 1787              		.cfi_def_cfa_offset 32
 1788              		.cfi_offset 13, -32
 1789 0426 4154     		pushq	%r12
 1790              		.cfi_def_cfa_offset 40
 1791              		.cfi_offset 12, -40
 1792 0428 55       		pushq	%rbp
 1793              		.cfi_def_cfa_offset 48
 1794              		.cfi_offset 6, -48
 1795 0429 53       		pushq	%rbx
 1796              		.cfi_def_cfa_offset 56
 1797              		.cfi_offset 3, -56
 1798 042a 4881EC38 		subq	$1080, %rsp
 1798      040000
 1799              		.cfi_def_cfa_offset 1136
 1800 0431 488D9C24 		leaq	544(%rsp), %rbx
 1800      20020000 
 1801 0439 64488B04 		movq	%fs:40, %rax
 1801      25280000 
 1801      00
 1802 0442 48898424 		movq	%rax, 1064(%rsp)
 1802      28040000 
 1803 044a 31C0     		xorl	%eax, %eax
 1804 044c 488DBBF8 		leaq	248(%rbx), %rdi
 1804      000000
 1805 0453 488D0500 		leaq	.LC11(%rip), %rax
 1805      000000
 1806 045a 48894424 		movq	%rax, 48(%rsp)
 1806      30
 1807 045f E8000000 		call	_ZNSt8ios_baseC2Ev@PLT
 1807      00
 1808 0464 488D0500 		leaq	16+_ZTVSt9basic_iosIcSt11char_traitsIcEE(%rip), %rax
 1808      000000
 1809 046b 660FEFC0 		pxor	%xmm0, %xmm0
 1810 046f C68424F8 		movb	$0, 1016(%rsp)
 1810      03000000 
 1811 0477 48C78424 		movq	$0, 1008(%rsp)
 1811      F0030000 
 1811      00000000 
 1812 0483 31F6     		xorl	%esi, %esi
 1813 0485 48898424 		movq	%rax, 792(%rsp)
 1813      18030000 
 1814 048d 488B0500 		movq	8+_ZTTSt14basic_ofstreamIcSt11char_traitsIcEE(%rip), %rax
 1814      000000
 1815 0494 0F298424 		movaps	%xmm0, 1024(%rsp)
 1815      00040000 
 1816 049c C68424F9 		movb	$0, 1017(%rsp)
 1816      03000000 
 1817 04a4 0F298424 		movaps	%xmm0, 1040(%rsp)
 1817      10040000 
 1818 04ac 488B78E8 		movq	-24(%rax), %rdi
 1819 04b0 48898424 		movq	%rax, 544(%rsp)
 1819      20020000 
 1820 04b8 488B0500 		movq	16+_ZTTSt14basic_ofstreamIcSt11char_traitsIcEE(%rip), %rax
 1820      000000
 1821 04bf 4801DF   		addq	%rbx, %rdi
 1822 04c2 488907   		movq	%rax, (%rdi)
 1823              	.LEHB43:
 1824 04c5 E8000000 		call	_ZNSt9basic_iosIcSt11char_traitsIcEE4initEPSt15basic_streambufIcS1_E@PLT
 1824      00
 1825              	.LEHE43:
 1826 04ca 488D0500 		leaq	24+_ZTVSt14basic_ofstreamIcSt11char_traitsIcEE(%rip), %rax
 1826      000000
 1827 04d1 488D7B08 		leaq	8(%rbx), %rdi
 1828 04d5 48898424 		movq	%rax, 544(%rsp)
 1828      20020000 
 1829 04dd 4883C028 		addq	$40, %rax
 1830 04e1 48898424 		movq	%rax, 792(%rsp)
 1830      18030000 
 1831              	.LEHB44:
 1832 04e9 E8000000 		call	_ZNSt13basic_filebufIcSt11char_traitsIcEEC1Ev@PLT
 1832      00
 1833              	.LEHE44:
 1834 04ee 488D7308 		leaq	8(%rbx), %rsi
 1835 04f2 488DBBF8 		leaq	248(%rbx), %rdi
 1835      000000
 1836              	.LEHB45:
 1837 04f9 E8000000 		call	_ZNSt9basic_iosIcSt11char_traitsIcEE4initEPSt15basic_streambufIcS1_E@PLT
 1837      00
 1838              	.LEHE45:
 1839 04fe 488D4424 		leaq	64(%rsp), %rax
 1839      40
 1840 0503 31C9     		xorl	%ecx, %ecx
 1841 0505 31D2     		xorl	%edx, %edx
 1842 0507 BE080000 		movl	$8, %esi
 1842      00
 1843 050c 4889C7   		movq	%rax, %rdi
 1844 050f 48890424 		movq	%rax, (%rsp)
 1845              	.LEHB46:
 1846 0513 E8000000 		call	bufInitialise@PLT
 1846      00
 1847              	.LEHE46:
 1848 0518 8944242C 		movl	%eax, 44(%rsp)
 1849              	.LEHB47:
 1850 051c E8000000 		call	_ZN8UnitTest11CurrentTest7DetailsEv@PLT
 1850      00
 1851 0521 488D6C24 		leaq	96(%rsp), %rbp
 1851      60
 1852 0526 488B30   		movq	(%rax), %rsi
 1853 0529 BA270000 		movl	$39, %edx
 1853      00
 1854 052e 4889EF   		movq	%rbp, %rdi
 1855 0531 E8000000 		call	_ZN8UnitTest11TestDetailsC1ERKS0_i@PLT
 1855      00
 1856 0536 C7442438 		movl	$0, 56(%rsp)
 1856      00000000 
 1857 053e E8000000 		call	_ZN8UnitTest11CurrentTest7ResultsEv@PLT
 1857      00
 1858 0543 4C8D6C24 		leaq	56(%rsp), %r13
 1858      38
 1859 0548 488B38   		movq	(%rax), %rdi
 1860 054b 488D5424 		leaq	44(%rsp), %rdx
 1860      2C
 1861 0550 4889E9   		movq	%rbp, %rcx
 1862 0553 4C89EE   		movq	%r13, %rsi
 1863 0556 E8000000 		call	_ZN8UnitTest10CheckEqualI12BufferStatusS1_EEvRNS_11TestResultsERKT_RKT0_RKNS_11TestDetailsE
 1863      00
 1864              	.LEHE47:
 1865              	.L154:
 1866 055b 488D7B08 		leaq	8(%rbx), %rdi
 1867 055f 488D3500 		leaq	.LC12(%rip), %rsi
 1867      000000
 1868 0566 BA140000 		movl	$20, %edx
 1868      00
 1869              	.LEHB48:
 1870 056b E8000000 		call	_ZNSt13basic_filebufIcSt11char_traitsIcEE4openEPKcSt13_Ios_Openmode@PLT
 1870      00
 1871 0570 488B9424 		movq	544(%rsp), %rdx
 1871      20020000 
 1872 0578 488B7AE8 		movq	-24(%rdx), %rdi
 1873 057c 4801DF   		addq	%rbx, %rdi
 1874 057f 4885C0   		testq	%rax, %rax
 1875 0582 0F84D805 		je	.L209
 1875      0000
 1876 0588 31F6     		xorl	%esi, %esi
 1877 058a E8000000 		call	_ZNSt9basic_iosIcSt11char_traitsIcEE5clearESt12_Ios_Iostate@PLT
 1877      00
 1878              	.L136:
 1879 058f 488D3500 		leaq	.LC11(%rip), %rsi
 1879      000000
 1880 0596 BA130000 		movl	$19, %edx
 1880      00
 1881 059b 4889DF   		movq	%rbx, %rdi
 1882 059e E8000000 		call	_ZSt16__ostream_insertIcSt11char_traitsIcEERSt13basic_ostreamIT_T0_ES6_PKS3_l@PLT
 1882      00
 1883 05a3 488D7B08 		leaq	8(%rbx), %rdi
 1884 05a7 E8000000 		call	_ZNSt13basic_filebufIcSt11char_traitsIcEE5closeEv@PLT
 1884      00
 1885 05ac 4885C0   		testq	%rax, %rax
 1886 05af 0F84BB05 		je	.L137
 1886      0000
 1887              	.L139:
 1888 05b5 488B3C24 		movq	(%rsp), %rdi
 1889 05b9 488D3500 		leaq	.LC12(%rip), %rsi
 1889      000000
 1890 05c0 31D2     		xorl	%edx, %edx
 1891 05c2 E8000000 		call	bufAppendFromBinaryFile@PLT
 1891      00
 1892              	.LEHE48:
 1893 05c7 8944242C 		movl	%eax, 44(%rsp)
 1894              	.LEHB49:
 1895 05cb E8000000 		call	_ZN8UnitTest11CurrentTest7DetailsEv@PLT
 1895      00
 1896 05d0 488B30   		movq	(%rax), %rsi
 1897 05d3 BA2C0000 		movl	$44, %edx
 1897      00
 1898 05d8 4889EF   		movq	%rbp, %rdi
 1899 05db E8000000 		call	_ZN8UnitTest11TestDetailsC1ERKS0_i@PLT
 1899      00
 1900 05e0 C7442438 		movl	$0, 56(%rsp)
 1900      00000000 
 1901 05e8 E8000000 		call	_ZN8UnitTest11CurrentTest7ResultsEv@PLT
 1901      00
 1902 05ed 4C8D6C24 		leaq	56(%rsp), %r13
 1902      38
 1903 05f2 488B38   		movq	(%rax), %rdi
 1904 05f5 488D5424 		leaq	44(%rsp), %rdx
 1904      2C
 1905 05fa 4889E9   		movq	%rbp, %rcx
 1906 05fd 4C89EE   		movq	%r13, %rsi
 1907 0600 E8000000 		call	_ZN8UnitTest10CheckEqualI12BufferStatusS1_EEvRNS_11TestResultsERKT_RKT0_RKNS_11TestDetailsE
 1907      00
 1908              	.LEHE49:
 1909              	.L158:
 1910              	.LEHB50:
 1911 0605 E8000000 		call	_ZN8UnitTest11CurrentTest7DetailsEv@PLT
 1911      00
 1912 060a 488B30   		movq	(%rax), %rsi
 1913 060d BA2D0000 		movl	$45, %edx
 1913      00
 1914 0612 4889EF   		movq	%rbp, %rdi
 1915 0615 E8000000 		call	_ZN8UnitTest11TestDetailsC1ERKS0_i@PLT
 1915      00
 1916 061a 48C74424 		movq	$19, 56(%rsp)
 1916      38130000 
 1916      00
 1917 0623 E8000000 		call	_ZN8UnitTest11CurrentTest7ResultsEv@PLT
 1917      00
 1918 0628 488B0C24 		movq	(%rsp), %rcx
 1919 062c 4C8D6C24 		leaq	56(%rsp), %r13
 1919      38
 1920 0631 488B38   		movq	(%rax), %rdi
 1921 0634 4C89EE   		movq	%r13, %rsi
 1922 0637 488D5108 		leaq	8(%rcx), %rdx
 1923 063b 4889E9   		movq	%rbp, %rcx
 1924 063e E8000000 		call	_ZN8UnitTest10CheckEqualImmEEvRNS_11TestResultsERKT_RKT0_RKNS_11TestDetailsE
 1924      00
 1925              	.LEHE50:
 1926              	.L161:
 1927              	.LEHB51:
 1928 0643 E8000000 		call	_ZN8UnitTest11CurrentTest7DetailsEv@PLT
 1928      00
 1929 0648 488B30   		movq	(%rax), %rsi
 1930 064b BA2E0000 		movl	$46, %edx
 1930      00
 1931 0650 4889EF   		movq	%rbp, %rdi
 1932 0653 E8000000 		call	_ZN8UnitTest11TestDetailsC1ERKS0_i@PLT
 1932      00
 1933 0658 4C8B6424 		movq	72(%rsp), %r12
 1933      48
 1934 065d E8000000 		call	_ZN8UnitTest11CurrentTest7ResultsEv@PLT
 1934      00
 1935 0662 488B1424 		movq	(%rsp), %rdx
 1936 0666 488B38   		movq	(%rax), %rdi
 1937 0669 488D7424 		leaq	48(%rsp), %rsi
 1937      30
 1938 066e 4989E8   		movq	%rbp, %r8
 1939 0671 4489E1   		movl	%r12d, %ecx
 1940 0674 E8000000 		call	_ZN8UnitTest15CheckArrayEqualIPKcPhEEvRNS_11TestResultsERKT_RKT0_iRKNS_11TestDetailsE
 1940      00
 1941              	.LEHE51:
 1942              	.L164:
 1943 0679 488B3C24 		movq	(%rsp), %rdi
 1944 067d 488D3500 		leaq	.LC12(%rip), %rsi
 1944      000000
 1945 0684 31D2     		xorl	%edx, %edx
 1946              	.LEHB52:
 1947 0686 E8000000 		call	bufAppendFromBinaryFile@PLT
 1947      00
 1948              	.LEHE52:
 1949 068b 8944242C 		movl	%eax, 44(%rsp)
 1950              	.LEHB53:
 1951 068f E8000000 		call	_ZN8UnitTest11CurrentTest7DetailsEv@PLT
 1951      00
 1952 0694 488B30   		movq	(%rax), %rsi
 1953 0697 BA300000 		movl	$48, %edx
 1953      00
 1954 069c 4889EF   		movq	%rbp, %rdi
 1955 069f E8000000 		call	_ZN8UnitTest11TestDetailsC1ERKS0_i@PLT
 1955      00
 1956 06a4 C7442438 		movl	$0, 56(%rsp)
 1956      00000000 
 1957 06ac E8000000 		call	_ZN8UnitTest11CurrentTest7ResultsEv@PLT
 1957      00
 1958 06b1 4C8D6C24 		leaq	56(%rsp), %r13
 1958      38
 1959 06b6 488B38   		movq	(%rax), %rdi
 1960 06b9 488D5424 		leaq	44(%rsp), %rdx
 1960      2C
 1961 06be 4889E9   		movq	%rbp, %rcx
 1962 06c1 4C89EE   		movq	%r13, %rsi
 1963 06c4 E8000000 		call	_ZN8UnitTest10CheckEqualI12BufferStatusS1_EEvRNS_11TestResultsERKT_RKT0_RKNS_11TestDetailsE
 1963      00
 1964              	.LEHE53:
 1965              	.L167:
 1966              	.LEHB54:
 1967 06c9 E8000000 		call	_ZN8UnitTest11CurrentTest7DetailsEv@PLT
 1967      00
 1968 06ce 488B30   		movq	(%rax), %rsi
 1969 06d1 BA310000 		movl	$49, %edx
 1969      00
 1970 06d6 4889EF   		movq	%rbp, %rdi
 1971 06d9 E8000000 		call	_ZN8UnitTest11TestDetailsC1ERKS0_i@PLT
 1971      00
 1972 06de 48C74424 		movq	$38, 56(%rsp)
 1972      38260000 
 1972      00
 1973 06e7 E8000000 		call	_ZN8UnitTest11CurrentTest7ResultsEv@PLT
 1973      00
 1974 06ec 488B0C24 		movq	(%rsp), %rcx
 1975 06f0 4C8D6C24 		leaq	56(%rsp), %r13
 1975      38
 1976 06f5 488B38   		movq	(%rax), %rdi
 1977 06f8 4C89EE   		movq	%r13, %rsi
 1978 06fb 488D5108 		leaq	8(%rcx), %rdx
 1979 06ff 4889E9   		movq	%rbp, %rcx
 1980 0702 E8000000 		call	_ZN8UnitTest10CheckEqualImmEEvRNS_11TestResultsERKT_RKT0_RKNS_11TestDetailsE
 1980      00
 1981              	.LEHE54:
 1982              	.L170:
 1983              	.LEHB55:
 1984 0707 E8000000 		call	_ZN8UnitTest11CurrentTest7DetailsEv@PLT
 1984      00
 1985 070c 488B30   		movq	(%rax), %rsi
 1986 070f BA320000 		movl	$50, %edx
 1986      00
 1987 0714 4889EF   		movq	%rbp, %rdi
 1988 0717 E8000000 		call	_ZN8UnitTest11TestDetailsC1ERKS0_i@PLT
 1988      00
 1989 071c 4C8B7424 		movq	64(%rsp), %r14
 1989      40
 1990 0721 498D4613 		leaq	19(%r14), %rax
 1991 0725 48894424 		movq	%rax, 16(%rsp)
 1991      10
 1992 072a E8000000 		call	_ZN8UnitTest11CurrentTest7ResultsEv@PLT
 1992      00
 1993              	.LEHE55:
 1994 072f 4C8B4424 		movq	48(%rsp), %r8
 1994      30
 1995 0734 31D2     		xorl	%edx, %edx
 1996 0736 B9010000 		movl	$1, %ecx
 1996      00
 1997 073b 0F1F4400 		.p2align 4,,10
 1997      00
 1998              		.p2align 3
 1999              	.L140:
 2000 0740 410FB674 		movzbl	19(%r14,%rdx), %esi
 2000      1613
 2001 0746 410FBE3C 		movsbl	(%r8,%rdx), %edi
 2001      10
 2002 074b 39F7     		cmpl	%esi, %edi
 2003 074d 400F94C6 		sete	%sil
 2004 0751 4883C201 		addq	$1, %rdx
 2005 0755 21F1     		andl	%esi, %ecx
 2006 0757 4883FA13 		cmpq	$19, %rdx
 2007 075b 75E3     		jne	.L140
 2008 075d 84C9     		testb	%cl, %cl
 2009 075f 0F84CB00 		je	.L210
 2009      0000
 2010              	.L172:
 2011 0765 488B3C24 		movq	(%rsp), %rdi
 2012              	.LEHB56:
 2013 0769 E8000000 		call	bufDestroy@PLT
 2013      00
 2014              	.LEHE56:
 2015 076e 488D0500 		leaq	64+_ZTVSt14basic_ofstreamIcSt11char_traitsIcEE(%rip), %rax
 2015      000000
 2016 0775 F30F7E05 		movq	.LC17(%rip), %xmm0
 2016      00000000 
 2017 077d 488D7B08 		leaq	8(%rbx), %rdi
 2018 0781 48898424 		movq	%rax, 792(%rsp)
 2018      18030000 
 2019 0789 488D0500 		leaq	16+_ZTVSt13basic_filebufIcSt11char_traitsIcEE(%rip), %rax
 2019      000000
 2020 0790 48890424 		movq	%rax, (%rsp)
 2021 0794 0F160424 		movhps	(%rsp), %xmm0
 2022 0798 0F298424 		movaps	%xmm0, 544(%rsp)
 2022      20020000 
 2023              	.LEHB57:
 2024 07a0 E8000000 		call	_ZNSt13basic_filebufIcSt11char_traitsIcEE5closeEv@PLT
 2024      00
 2025              	.LEHE57:
 2026 07a5 488D7B70 		leaq	112(%rbx), %rdi
 2027              	.LEHB58:
 2028 07a9 E8000000 		call	_ZNSt12__basic_fileIcED1Ev@PLT
 2028      00
 2029              	.LEHE58:
 2030 07ae 488D0500 		leaq	16+_ZTVSt15basic_streambufIcSt11char_traitsIcEE(%rip), %rax
 2030      000000
 2031 07b5 488D7B40 		leaq	64(%rbx), %rdi
 2032 07b9 48898424 		movq	%rax, 552(%rsp)
 2032      28020000 
 2033 07c1 E8000000 		call	_ZNSt6localeD1Ev@PLT
 2033      00
 2034 07c6 488B0500 		movq	8+_ZTTSt14basic_ofstreamIcSt11char_traitsIcEE(%rip), %rax
 2034      000000
 2035 07cd 488B0D00 		movq	16+_ZTTSt14basic_ofstreamIcSt11char_traitsIcEE(%rip), %rcx
 2035      000000
 2036 07d4 488DBBF8 		leaq	248(%rbx), %rdi
 2036      000000
 2037 07db 48898424 		movq	%rax, 544(%rsp)
 2037      20020000 
 2038 07e3 488B40E8 		movq	-24(%rax), %rax
 2039 07e7 48898C04 		movq	%rcx, 544(%rsp,%rax)
 2039      20020000 
 2040 07ef 488D0500 		leaq	16+_ZTVSt9basic_iosIcSt11char_traitsIcEE(%rip), %rax
 2040      000000
 2041 07f6 48898424 		movq	%rax, 792(%rsp)
 2041      18030000 
 2042              	.LEHB59:
 2043 07fe E8000000 		call	_ZNSt8ios_baseD2Ev@PLT
 2043      00
 2044              	.LEHE59:
 2045 0803 488B8424 		movq	1064(%rsp), %rax
 2045      28040000 
 2046 080b 64483304 		xorq	%fs:40, %rax
 2046      25280000 
 2046      00
 2047 0814 0F857503 		jne	.L211
 2047      0000
 2048 081a 4881C438 		addq	$1080, %rsp
 2048      040000
 2049              		.cfi_remember_state
 2050              		.cfi_def_cfa_offset 56
 2051 0821 5B       		popq	%rbx
 2052              		.cfi_def_cfa_offset 48
 2053 0822 5D       		popq	%rbp
 2054              		.cfi_def_cfa_offset 40
 2055 0823 415C     		popq	%r12
 2056              		.cfi_def_cfa_offset 32
 2057 0825 415D     		popq	%r13
 2058              		.cfi_def_cfa_offset 24
 2059 0827 415E     		popq	%r14
 2060              		.cfi_def_cfa_offset 16
 2061 0829 415F     		popq	%r15
 2062              		.cfi_def_cfa_offset 8
 2063 082b C3       		ret
 2064 082c 0F1F4000 		.p2align 4,,10
 2065              		.p2align 3
 2066              	.L210:
 2067              		.cfi_restore_state
 2068 0830 4C8DA424 		leaq	128(%rsp), %r12
 2068      80000000 
 2069 0838 488B00   		movq	(%rax), %rax
 2070 083b 4D8DAC24 		leaq	144(%r12), %r13
 2070      90000000 
 2071 0843 48894424 		movq	%rax, 24(%rsp)
 2071      18
 2072 0848 4C89EF   		movq	%r13, %rdi
 2073 084b E8000000 		call	_ZNSt8ios_baseC2Ev@PLT
 2073      00
 2074 0850 488D0500 		leaq	24+_ZTCN8UnitTest15MemoryOutStreamE0_So(%rip), %rax
 2074      000000
 2075 0857 31F6     		xorl	%esi, %esi
 2076 0859 4C89EF   		movq	%r13, %rdi
 2077 085c 48C78424 		movq	$0, 488(%rsp)
 2077      E8010000 
 2077      00000000 
 2078 0868 C68424F0 		movb	$0, 496(%rsp)
 2078      01000000 
 2079 0870 48898424 		movq	%rax, 128(%rsp)
 2079      80000000 
 2080 0878 4883C028 		addq	$40, %rax
 2081 087c C68424F1 		movb	$0, 497(%rsp)
 2081      01000000 
 2082 0884 48C78424 		movq	$0, 504(%rsp)
 2082      F8010000 
 2082      00000000 
 2083 0890 48C78424 		movq	$0, 512(%rsp)
 2083      00020000 
 2083      00000000 
 2084 089c 48C78424 		movq	$0, 520(%rsp)
 2084      08020000 
 2084      00000000 
 2085 08a8 48C78424 		movq	$0, 528(%rsp)
 2085      10020000 
 2085      00000000 
 2086 08b4 48898424 		movq	%rax, 272(%rsp)
 2086      10010000 
 2087              	.LEHB60:
 2088 08bc E8000000 		call	_ZNSt9basic_iosIcSt11char_traitsIcEE4initEPSt15basic_streambufIcS1_E@PLT
 2088      00
 2089              	.LEHE60:
 2090 08c1 488D0500 		leaq	24+_ZTCN8UnitTest15MemoryOutStreamE0_NSt7__cxx1119basic_ostringstreamIcSt11char_traitsIcESaIc
 2090      000000
 2091 08c8 660FEFC0 		pxor	%xmm0, %xmm0
 2092 08cc 498D7C24 		leaq	64(%r12), %rdi
 2092      40
 2093 08d1 48898424 		movq	%rax, 128(%rsp)
 2093      80000000 
 2094 08d9 4883C028 		addq	$40, %rax
 2095 08dd 48898424 		movq	%rax, 272(%rsp)
 2095      10010000 
 2096 08e5 488D0500 		leaq	16+_ZTVSt15basic_streambufIcSt11char_traitsIcEE(%rip), %rax
 2096      000000
 2097 08ec 0F298424 		movaps	%xmm0, 144(%rsp)
 2097      90000000 
 2098 08f4 48898424 		movq	%rax, 136(%rsp)
 2098      88000000 
 2099 08fc 0F298424 		movaps	%xmm0, 160(%rsp)
 2099      A0000000 
 2100 0904 0F298424 		movaps	%xmm0, 176(%rsp)
 2100      B0000000 
 2101 090c E8000000 		call	_ZNSt6localeC1Ev@PLT
 2101      00
 2102 0911 488D0500 		leaq	16+_ZTVNSt7__cxx1115basic_stringbufIcSt11char_traitsIcESaIcEEE(%rip), %rax
 2102      000000
 2103 0918 498D7424 		leaq	8(%r12), %rsi
 2103      08
 2104 091d 48898424 		movq	%rax, 136(%rsp)
 2104      88000000 
 2105 0925 498D4424 		leaq	96(%r12), %rax
 2105      60
 2106 092a C78424C8 		movl	$16, 200(%rsp)
 2106      00000010 
 2106      000000
 2107 0935 48C78424 		movq	$0, 216(%rsp)
 2107      D8000000 
 2107      00000000 
 2108 0941 C68424E0 		movb	$0, 224(%rsp)
 2108      00000000 
 2109 0949 48898424 		movq	%rax, 208(%rsp)
 2109      D0000000 
 2110 0951 488B8424 		movq	128(%rsp), %rax
 2110      80000000 
 2111 0959 488B78E8 		movq	-24(%rax), %rdi
 2112 095d 4C01E7   		addq	%r12, %rdi
 2113              	.LEHB61:
 2114 0960 E8000000 		call	_ZNSt9basic_iosIcSt11char_traitsIcEE4initEPSt15basic_streambufIcS1_E@PLT
 2114      00
 2115              	.LEHE61:
 2116 0965 488D0500 		leaq	24+_ZTVN8UnitTest15MemoryOutStreamE(%rip), %rax
 2116      000000
 2117 096c 488D3500 		leaq	.LC7(%rip), %rsi
 2117      000000
 2118 0973 BA0B0000 		movl	$11, %edx
 2118      00
 2119 0978 4C89E7   		movq	%r12, %rdi
 2120 097b 48C78424 		movq	$0, 248(%rsp)
 2120      F8000000 
 2120      00000000 
 2121 0987 C6842400 		movb	$0, 256(%rsp)
 2121      01000000 
 2122 098f 48898424 		movq	%rax, 128(%rsp)
 2122      80000000 
 2123 0997 4883C028 		addq	$40, %rax
 2124 099b 48898424 		movq	%rax, 272(%rsp)
 2124      10010000 
 2125 09a3 498D8424 		leaq	128(%r12), %rax
 2125      80000000 
 2126 09ab 48898424 		movq	%rax, 240(%rsp)
 2126      F0000000 
 2127              	.LEHB62:
 2128 09b3 E8000000 		call	_ZSt16__ostream_insertIcSt11char_traitsIcEERSt13basic_ostreamIT_T0_ES6_PKS3_l@PLT
 2128      00
 2129 09b8 488D4424 		leaq	43(%rsp), %rax
 2129      2B
 2130 09bd 4C8D3D00 		leaq	.LC8(%rip), %r15
 2130      000000
 2131 09c4 4531ED   		xorl	%r13d, %r13d
 2132 09c7 48894424 		movq	%rax, 8(%rsp)
 2132      08
 2133 09cc 0F1F4000 		.p2align 4,,10
 2134              		.p2align 3
 2135              	.L145:
 2136 09d0 488B4424 		movq	48(%rsp), %rax
 2136      30
 2137 09d5 488B7424 		movq	8(%rsp), %rsi
 2137      08
 2138 09da BA010000 		movl	$1, %edx
 2138      00
 2139 09df 4C89E7   		movq	%r12, %rdi
 2140 09e2 420FB604 		movzbl	(%rax,%r13), %eax
 2140      28
 2141 09e7 8844242B 		movb	%al, 43(%rsp)
 2142 09eb E8000000 		call	_ZSt16__ostream_insertIcSt11char_traitsIcEERSt13basic_ostreamIT_T0_ES6_PKS3_l@PLT
 2142      00
 2143 09f0 BA010000 		movl	$1, %edx
 2143      00
 2144 09f5 4C89FE   		movq	%r15, %rsi
 2145 09f8 4889C7   		movq	%rax, %rdi
 2146 09fb E8000000 		call	_ZSt16__ostream_insertIcSt11char_traitsIcEERSt13basic_ostreamIT_T0_ES6_PKS3_l@PLT
 2146      00
 2147 0a00 4983C501 		addq	$1, %r13
 2148 0a04 4983FD13 		cmpq	$19, %r13
 2149 0a08 75C6     		jne	.L145
 2150 0a0a 488D3500 		leaq	.LC9(%rip), %rsi
 2150      000000
 2151 0a11 BA0C0000 		movl	$12, %edx
 2151      00
 2152 0a16 4C89E7   		movq	%r12, %rdi
 2153 0a19 E8000000 		call	_ZSt16__ostream_insertIcSt11char_traitsIcEERSt13basic_ostreamIT_T0_ES6_PKS3_l@PLT
 2153      00
 2154 0a1e 498D4626 		leaq	38(%r14), %rax
 2155 0a22 4C8B7C24 		movq	16(%rsp), %r15
 2155      10
 2156 0a27 4C8D6C24 		leaq	56(%rsp), %r13
 2156      38
 2157 0a2c 4C8D3500 		leaq	.LC8(%rip), %r14
 2157      000000
 2158 0a33 48894424 		movq	%rax, 8(%rsp)
 2158      08
 2159 0a38 0F1F8400 		.p2align 4,,10
 2159      00000000 
 2160              		.p2align 3
 2161              	.L147:
 2162 0a40 410FB607 		movzbl	(%r15), %eax
 2163 0a44 BA010000 		movl	$1, %edx
 2163      00
 2164 0a49 4C89EE   		movq	%r13, %rsi
 2165 0a4c 4C89E7   		movq	%r12, %rdi
 2166 0a4f 88442438 		movb	%al, 56(%rsp)
 2167 0a53 E8000000 		call	_ZSt16__ostream_insertIcSt11char_traitsIcEERSt13basic_ostreamIT_T0_ES6_PKS3_l@PLT
 2167      00
 2168 0a58 BA010000 		movl	$1, %edx
 2168      00
 2169 0a5d 4C89F6   		movq	%r14, %rsi
 2170 0a60 4889C7   		movq	%rax, %rdi
 2171 0a63 E8000000 		call	_ZSt16__ostream_insertIcSt11char_traitsIcEERSt13basic_ostreamIT_T0_ES6_PKS3_l@PLT
 2171      00
 2172 0a68 4983C701 		addq	$1, %r15
 2173 0a6c 4C397C24 		cmpq	%r15, 8(%rsp)
 2173      08
 2174 0a71 75CD     		jne	.L147
 2175 0a73 488D3500 		leaq	.LC10(%rip), %rsi
 2175      000000
 2176 0a7a BA010000 		movl	$1, %edx
 2176      00
 2177 0a7f 4C89E7   		movq	%r12, %rdi
 2178 0a82 E8000000 		call	_ZSt16__ostream_insertIcSt11char_traitsIcEERSt13basic_ostreamIT_T0_ES6_PKS3_l@PLT
 2178      00
 2179 0a87 4C89E7   		movq	%r12, %rdi
 2180 0a8a E8000000 		call	_ZNK8UnitTest15MemoryOutStream7GetTextEv@PLT
 2180      00
 2181 0a8f 488B7C24 		movq	24(%rsp), %rdi
 2181      18
 2182 0a94 4889C2   		movq	%rax, %rdx
 2183 0a97 4889EE   		movq	%rbp, %rsi
 2184 0a9a E8000000 		call	_ZN8UnitTest11TestResults13OnTestFailureERKNS_11TestDetailsEPKc@PLT
 2184      00
 2185              	.LEHE62:
 2186 0a9f 488D0500 		leaq	24+_ZTVN8UnitTest15MemoryOutStreamE(%rip), %rax
 2186      000000
 2187 0aa6 488BBC24 		movq	240(%rsp), %rdi
 2187      F0000000 
 2188 0aae 48898424 		movq	%rax, 128(%rsp)
 2188      80000000 
 2189 0ab6 4883C028 		addq	$40, %rax
 2190 0aba 48898424 		movq	%rax, 272(%rsp)
 2190      10010000 
 2191 0ac2 498D8424 		leaq	128(%r12), %rax
 2191      80000000 
 2192 0aca 4839C7   		cmpq	%rax, %rdi
 2193 0acd 7405     		je	.L148
 2194 0acf E8000000 		call	_ZdlPv@PLT
 2194      00
 2195              	.L148:
 2196 0ad4 488D0500 		leaq	64+_ZTCN8UnitTest15MemoryOutStreamE0_NSt7__cxx1119basic_ostringstreamIcSt11char_traitsIcESaIc
 2196      000000
 2197 0adb 488BBC24 		movq	208(%rsp), %rdi
 2197      D0000000 
 2198 0ae3 F30F7E05 		movq	.LC2(%rip), %xmm0
 2198      00000000 
 2199 0aeb 48898424 		movq	%rax, 272(%rsp)
 2199      10010000 
 2200 0af3 498D4424 		leaq	96(%r12), %rax
 2200      60
 2201 0af8 0F160500 		movhps	.LC3(%rip), %xmm0
 2201      000000
 2202 0aff 4839C7   		cmpq	%rax, %rdi
 2203 0b02 0F298424 		movaps	%xmm0, 128(%rsp)
 2203      80000000 
 2204 0b0a 7405     		je	.L149
 2205 0b0c E8000000 		call	_ZdlPv@PLT
 2205      00
 2206              	.L149:
 2207 0b11 488D0500 		leaq	16+_ZTVSt15basic_streambufIcSt11char_traitsIcEE(%rip), %rax
 2207      000000
 2208 0b18 498D7C24 		leaq	64(%r12), %rdi
 2208      40
 2209 0b1d 48898424 		movq	%rax, 136(%rsp)
 2209      88000000 
 2210 0b25 E8000000 		call	_ZNSt6localeD1Ev@PLT
 2210      00
 2211 0b2a 488D0500 		leaq	24+_ZTCN8UnitTest15MemoryOutStreamE0_So(%rip), %rax
 2211      000000
 2212 0b31 498DBC24 		leaq	144(%r12), %rdi
 2212      90000000 
 2213 0b39 48898424 		movq	%rax, 128(%rsp)
 2213      80000000 
 2214 0b41 488D0500 		leaq	16+_ZTVSt9basic_iosIcSt11char_traitsIcEE(%rip), %rax
 2214      000000
 2215 0b48 48898424 		movq	%rax, 272(%rsp)
 2215      10010000 
 2216              	.LEHB63:
 2217 0b50 E8000000 		call	_ZNSt8ios_baseD2Ev@PLT
 2217      00
 2218              	.LEHE63:
 2219 0b55 E90BFCFF 		jmp	.L172
 2219      FF
 2220 0b5a 660F1F44 		.p2align 4,,10
 2220      0000
 2221              		.p2align 3
 2222              	.L209:
 2223 0b60 8B7720   		movl	32(%rdi), %esi
 2224 0b63 83CE04   		orl	$4, %esi
 2225              	.LEHB64:
 2226 0b66 E8000000 		call	_ZNSt9basic_iosIcSt11char_traitsIcEE5clearESt12_Ios_Iostate@PLT
 2226      00
 2227 0b6b E91FFAFF 		jmp	.L136
 2227      FF
 2228              		.p2align 4,,10
 2229              		.p2align 3
 2230              	.L137:
 2231 0b70 488B8424 		movq	544(%rsp), %rax
 2231      20020000 
 2232 0b78 488B78E8 		movq	-24(%rax), %rdi
 2233 0b7c 4801DF   		addq	%rbx, %rdi
 2234 0b7f 8B7720   		movl	32(%rdi), %esi
 2235 0b82 83CE04   		orl	$4, %esi
 2236 0b85 E8000000 		call	_ZNSt9basic_iosIcSt11char_traitsIcEE5clearESt12_Ios_Iostate@PLT
 2236      00
 2237              	.LEHE64:
 2238 0b8a E926FAFF 		jmp	.L139
 2238      FF
 2239              	.L211:
 2240 0b8f E8000000 		call	__stack_chk_fail@PLT
 2240      00
 2241              	.L197:
 2242 0b94 4889C5   		movq	%rax, %rbp
 2243              	.L152:
 2244 0b97 488D0500 		leaq	16+_ZTVSt15basic_streambufIcSt11char_traitsIcEE(%rip), %rax
 2244      000000
 2245 0b9e 488D7B40 		leaq	64(%rbx), %rdi
 2246 0ba2 48898424 		movq	%rax, 552(%rsp)
 2246      28020000 
 2247 0baa E8000000 		call	_ZNSt6localeD1Ev@PLT
 2247      00
 2248 0baf 488B0500 		movq	8+_ZTTSt14basic_ofstreamIcSt11char_traitsIcEE(%rip), %rax
 2248      000000
 2249 0bb6 488B0D00 		movq	16+_ZTTSt14basic_ofstreamIcSt11char_traitsIcEE(%rip), %rcx
 2249      000000
 2250 0bbd 488DBBF8 		leaq	248(%rbx), %rdi
 2250      000000
 2251 0bc4 48898424 		movq	%rax, 544(%rsp)
 2251      20020000 
 2252 0bcc 488B40E8 		movq	-24(%rax), %rax
 2253 0bd0 48898C04 		movq	%rcx, 544(%rsp,%rax)
 2253      20020000 
 2254 0bd8 488D0500 		leaq	16+_ZTVSt9basic_iosIcSt11char_traitsIcEE(%rip), %rax
 2254      000000
 2255 0bdf 48898424 		movq	%rax, 792(%rsp)
 2255      18030000 
 2256 0be7 E8000000 		call	_ZNSt8ios_baseD2Ev@PLT
 2256      00
 2257 0bec 4889EF   		movq	%rbp, %rdi
 2258              	.LEHB65:
 2259 0bef E8000000 		call	_Unwind_Resume@PLT
 2259      00
 2260              	.LEHE65:
 2261              	.L198:
 2262 0bf4 488D7B70 		leaq	112(%rbx), %rdi
 2263 0bf8 4889C5   		movq	%rax, %rbp
 2264 0bfb E8000000 		call	_ZNSt12__basic_fileIcED1Ev@PLT
 2264      00
 2265 0c00 EB95     		jmp	.L152
 2266              	.L177:
 2267 0c02 4889C7   		movq	%rax, %rdi
 2268 0c05 E8000000 		call	__cxa_begin_catch@PLT
 2268      00
 2269              	.LEHB66:
 2270 0c0a E8000000 		call	_ZN8UnitTest11CurrentTest7ResultsEv@PLT
 2270      00
 2271 0c0f 4C8B20   		movq	(%rax), %r12
 2272 0c12 E8000000 		call	_ZN8UnitTest11CurrentTest7DetailsEv@PLT
 2272      00
 2273 0c17 488D6C24 		leaq	96(%rsp), %rbp
 2273      60
 2274 0c1c 488B30   		movq	(%rax), %rsi
 2275 0c1f BA270000 		movl	$39, %edx
 2275      00
 2276 0c24 4889EF   		movq	%rbp, %rdi
 2277 0c27 E8000000 		call	_ZN8UnitTest11TestDetailsC1ERKS0_i@PLT
 2277      00
 2278 0c2c 488D1500 		leaq	.LC5(%rip), %rdx
 2278      000000
 2279 0c33 4889EE   		movq	%rbp, %rsi
 2280 0c36 4C89E7   		movq	%r12, %rdi
 2281 0c39 E8000000 		call	_ZN8UnitTest11TestResults13OnTestFailureERKNS_11TestDetailsEPKc@PLT
 2281      00
 2282              	.LEHE66:
 2283              	.LEHB67:
 2284 0c3e E8000000 		call	__cxa_end_catch@PLT
 2284      00
 2285              	.LEHE67:
 2286 0c43 E913F9FF 		jmp	.L154
 2286      FF
 2287              	.L176:
 2288 0c48 4889C5   		movq	%rax, %rbp
 2289              	.L156:
 2290 0c4b 4889DF   		movq	%rbx, %rdi
 2291 0c4e E8000000 		call	_ZNSt14basic_ofstreamIcSt11char_traitsIcEED1Ev@PLT
 2291      00
 2292 0c53 4889EF   		movq	%rbp, %rdi
 2293              	.LEHB68:
 2294 0c56 E8000000 		call	_Unwind_Resume@PLT
 2294      00
 2295              	.LEHE68:
 2296              	.L178:
 2297 0c5b 4889C5   		movq	%rax, %rbp
 2298 0c5e E8000000 		call	__cxa_end_catch@PLT
 2298      00
 2299 0c63 EBE6     		jmp	.L156
 2300              	.L193:
 2301 0c65 488D7B08 		leaq	8(%rbx), %rdi
 2302 0c69 4889C5   		movq	%rax, %rbp
 2303 0c6c E8000000 		call	_ZNSt13basic_filebufIcSt11char_traitsIcEED1Ev@PLT
 2303      00
 2304              	.L132:
 2305 0c71 488B0500 		movq	8+_ZTTSt14basic_ofstreamIcSt11char_traitsIcEE(%rip), %rax
 2305      000000
 2306 0c78 48898424 		movq	%rax, 544(%rsp)
 2306      20020000 
 2307 0c80 488B50E8 		movq	-24(%rax), %rdx
 2308 0c84 488B0500 		movq	16+_ZTTSt14basic_ofstreamIcSt11char_traitsIcEE(%rip), %rax
 2308      000000
 2309 0c8b 48898414 		movq	%rax, 544(%rsp,%rdx)
 2309      20020000 
 2310              	.L133:
 2311 0c93 488D0500 		leaq	16+_ZTVSt9basic_iosIcSt11char_traitsIcEE(%rip), %rax
 2311      000000
 2312 0c9a 488DBBF8 		leaq	248(%rbx), %rdi
 2312      000000
 2313 0ca1 48898424 		movq	%rax, 792(%rsp)
 2313      18030000 
 2314 0ca9 E8000000 		call	_ZNSt8ios_baseD2Ev@PLT
 2314      00
 2315 0cae 4889EF   		movq	%rbp, %rdi
 2316              	.LEHB69:
 2317 0cb1 E8000000 		call	_Unwind_Resume@PLT
 2317      00
 2318              	.LEHE69:
 2319              	.L192:
 2320 0cb6 4889C5   		movq	%rax, %rbp
 2321 0cb9 EBB6     		jmp	.L132
 2322              	.L195:
 2323 0cbb 4989C5   		movq	%rax, %r13
 2324              	.L144:
 2325 0cbe 488D0500 		leaq	16+_ZTVSt9basic_iosIcSt11char_traitsIcEE(%rip), %rax
 2325      000000
 2326 0cc5 498DBC24 		leaq	144(%r12), %rdi
 2326      90000000 
 2327 0ccd 48898424 		movq	%rax, 272(%rsp)
 2327      10010000 
 2328 0cd5 E8000000 		call	_ZNSt8ios_baseD2Ev@PLT
 2328      00
 2329              	.L146:
 2330 0cda 4C89EF   		movq	%r13, %rdi
 2331 0cdd E8000000 		call	__cxa_begin_catch@PLT
 2331      00
 2332              	.LEHB70:
 2333 0ce2 E8000000 		call	_ZN8UnitTest11CurrentTest7ResultsEv@PLT
 2333      00
 2334 0ce7 4C8B20   		movq	(%rax), %r12
 2335 0cea E8000000 		call	_ZN8UnitTest11CurrentTest7DetailsEv@PLT
 2335      00
 2336 0cef 488B30   		movq	(%rax), %rsi
 2337 0cf2 BA320000 		movl	$50, %edx
 2337      00
 2338 0cf7 4889EF   		movq	%rbp, %rdi
 2339 0cfa E8000000 		call	_ZN8UnitTest11TestDetailsC1ERKS0_i@PLT
 2339      00
 2340 0cff 488D1500 		leaq	.LC16(%rip), %rdx
 2340      000000
 2341 0d06 4889EE   		movq	%rbp, %rsi
 2342 0d09 4C89E7   		movq	%r12, %rdi
 2343 0d0c E8000000 		call	_ZN8UnitTest11TestResults13OnTestFailureERKNS_11TestDetailsEPKc@PLT
 2343      00
 2344              	.LEHE70:
 2345              	.LEHB71:
 2346 0d11 E8000000 		call	__cxa_end_catch@PLT
 2346      00
 2347              	.LEHE71:
 2348 0d16 E94AFAFF 		jmp	.L172
 2348      FF
 2349              	.L196:
 2350 0d1b 498D7C24 		leaq	8(%r12), %rdi
 2350      08
 2351 0d20 4989C5   		movq	%rax, %r13
 2352 0d23 E8000000 		call	_ZNSt7__cxx1115basic_stringbufIcSt11char_traitsIcESaIcEED1Ev
 2352      00
 2353 0d28 488D0500 		leaq	24+_ZTCN8UnitTest15MemoryOutStreamE0_So(%rip), %rax
 2353      000000
 2354 0d2f 48898424 		movq	%rax, 128(%rsp)
 2354      80000000 
 2355 0d37 EB85     		jmp	.L144
 2356              	.L190:
 2357 0d39 4889C5   		movq	%rax, %rbp
 2358 0d3c E8000000 		call	__cxa_end_catch@PLT
 2358      00
 2359 0d41 E905FFFF 		jmp	.L156
 2359      FF
 2360              	.L185:
 2361 0d46 4889C7   		movq	%rax, %rdi
 2362 0d49 E8000000 		call	__cxa_begin_catch@PLT
 2362      00
 2363              	.LEHB72:
 2364 0d4e E8000000 		call	_ZN8UnitTest11CurrentTest7ResultsEv@PLT
 2364      00
 2365 0d53 4C8B20   		movq	(%rax), %r12
 2366 0d56 E8000000 		call	_ZN8UnitTest11CurrentTest7DetailsEv@PLT
 2366      00
 2367 0d5b 488B30   		movq	(%rax), %rsi
 2368 0d5e BA300000 		movl	$48, %edx
 2368      00
 2369 0d63 4889EF   		movq	%rbp, %rdi
 2370 0d66 E8000000 		call	_ZN8UnitTest11TestDetailsC1ERKS0_i@PLT
 2370      00
 2371 0d6b 488D1500 		leaq	.LC5(%rip), %rdx
 2371      000000
 2372 0d72 4889EE   		movq	%rbp, %rsi
 2373 0d75 4C89E7   		movq	%r12, %rdi
 2374 0d78 E8000000 		call	_ZN8UnitTest11TestResults13OnTestFailureERKNS_11TestDetailsEPKc@PLT
 2374      00
 2375              	.LEHE72:
 2376              	.LEHB73:
 2377 0d7d E8000000 		call	__cxa_end_catch@PLT
 2377      00
 2378              	.LEHE73:
 2379 0d82 E942F9FF 		jmp	.L167
 2379      FF
 2380              	.L183:
 2381 0d87 4889C7   		movq	%rax, %rdi
 2382 0d8a E8000000 		call	__cxa_begin_catch@PLT
 2382      00
 2383              	.LEHB74:
 2384 0d8f E8000000 		call	_ZN8UnitTest11CurrentTest7ResultsEv@PLT
 2384      00
 2385 0d94 4C8B20   		movq	(%rax), %r12
 2386 0d97 E8000000 		call	_ZN8UnitTest11CurrentTest7DetailsEv@PLT
 2386      00
 2387 0d9c 488B30   		movq	(%rax), %rsi
 2388 0d9f BA2E0000 		movl	$46, %edx
 2388      00
 2389 0da4 4889EF   		movq	%rbp, %rdi
 2390 0da7 E8000000 		call	_ZN8UnitTest11TestDetailsC1ERKS0_i@PLT
 2390      00
 2391 0dac 488D1500 		leaq	.LC14(%rip), %rdx
 2391      000000
 2392 0db3 4889EE   		movq	%rbp, %rsi
 2393 0db6 4C89E7   		movq	%r12, %rdi
 2394 0db9 E8000000 		call	_ZN8UnitTest11TestResults13OnTestFailureERKNS_11TestDetailsEPKc@PLT
 2394      00
 2395              	.LEHE74:
 2396              	.LEHB75:
 2397 0dbe E8000000 		call	__cxa_end_catch@PLT
 2397      00
 2398              	.LEHE75:
 2399 0dc3 E9B1F8FF 		jmp	.L164
 2399      FF
 2400              	.L186:
 2401 0dc8 4889C5   		movq	%rax, %rbp
 2402 0dcb E8000000 		call	__cxa_end_catch@PLT
 2402      00
 2403 0dd0 E976FEFF 		jmp	.L156
 2403      FF
 2404              	.L184:
 2405 0dd5 4889C5   		movq	%rax, %rbp
 2406 0dd8 E8000000 		call	__cxa_end_catch@PLT
 2406      00
 2407 0ddd E969FEFF 		jmp	.L156
 2407      FF
 2408              	.L181:
 2409 0de2 4889C7   		movq	%rax, %rdi
 2410 0de5 E8000000 		call	__cxa_begin_catch@PLT
 2410      00
 2411              	.LEHB76:
 2412 0dea E8000000 		call	_ZN8UnitTest11CurrentTest7ResultsEv@PLT
 2412      00
 2413 0def 4C8B20   		movq	(%rax), %r12
 2414 0df2 E8000000 		call	_ZN8UnitTest11CurrentTest7DetailsEv@PLT
 2414      00
 2415 0df7 488B30   		movq	(%rax), %rsi
 2416 0dfa BA2D0000 		movl	$45, %edx
 2416      00
 2417 0dff 4889EF   		movq	%rbp, %rdi
 2418 0e02 E8000000 		call	_ZN8UnitTest11TestDetailsC1ERKS0_i@PLT
 2418      00
 2419 0e07 488D1500 		leaq	.LC13(%rip), %rdx
 2419      000000
 2420 0e0e 4889EE   		movq	%rbp, %rsi
 2421 0e11 4C89E7   		movq	%r12, %rdi
 2422 0e14 E8000000 		call	_ZN8UnitTest11TestResults13OnTestFailureERKNS_11TestDetailsEPKc@PLT
 2422      00
 2423              	.LEHE76:
 2424              	.LEHB77:
 2425 0e19 E8000000 		call	__cxa_end_catch@PLT
 2425      00
 2426              	.LEHE77:
 2427 0e1e E920F8FF 		jmp	.L161
 2427      FF
 2428              	.L179:
 2429 0e23 4889C7   		movq	%rax, %rdi
 2430 0e26 E8000000 		call	__cxa_begin_catch@PLT
 2430      00
 2431              	.LEHB78:
 2432 0e2b E8000000 		call	_ZN8UnitTest11CurrentTest7ResultsEv@PLT
 2432      00
 2433 0e30 4C8B20   		movq	(%rax), %r12
 2434 0e33 E8000000 		call	_ZN8UnitTest11CurrentTest7DetailsEv@PLT
 2434      00
 2435 0e38 488B30   		movq	(%rax), %rsi
 2436 0e3b BA2C0000 		movl	$44, %edx
 2436      00
 2437 0e40 4889EF   		movq	%rbp, %rdi
 2438 0e43 E8000000 		call	_ZN8UnitTest11TestDetailsC1ERKS0_i@PLT
 2438      00
 2439 0e48 488D1500 		leaq	.LC5(%rip), %rdx
 2439      000000
 2440 0e4f 4889EE   		movq	%rbp, %rsi
 2441 0e52 4C89E7   		movq	%r12, %rdi
 2442 0e55 E8000000 		call	_ZN8UnitTest11TestResults13OnTestFailureERKNS_11TestDetailsEPKc@PLT
 2442      00
 2443              	.LEHE78:
 2444              	.LEHB79:
 2445 0e5a E8000000 		call	__cxa_end_catch@PLT
 2445      00
 2446              	.LEHE79:
 2447 0e5f E9A1F7FF 		jmp	.L158
 2447      FF
 2448              	.L182:
 2449 0e64 4889C5   		movq	%rax, %rbp
 2450 0e67 E8000000 		call	__cxa_end_catch@PLT
 2450      00
 2451 0e6c E9DAFDFF 		jmp	.L156
 2451      FF
 2452              	.L180:
 2453 0e71 4889C5   		movq	%rax, %rbp
 2454 0e74 E8000000 		call	__cxa_end_catch@PLT
 2454      00
 2455 0e79 E9CDFDFF 		jmp	.L156
 2455      FF
 2456              	.L189:
 2457 0e7e 4989C5   		movq	%rax, %r13
 2458 0e81 E954FEFF 		jmp	.L146
 2458      FF
 2459              	.L187:
 2460 0e86 4889C7   		movq	%rax, %rdi
 2461 0e89 E8000000 		call	__cxa_begin_catch@PLT
 2461      00
 2462              	.LEHB80:
 2463 0e8e E8000000 		call	_ZN8UnitTest11CurrentTest7ResultsEv@PLT
 2463      00
 2464 0e93 4C8B20   		movq	(%rax), %r12
 2465 0e96 E8000000 		call	_ZN8UnitTest11CurrentTest7DetailsEv@PLT
 2465      00
 2466 0e9b 488B30   		movq	(%rax), %rsi
 2467 0e9e BA310000 		movl	$49, %edx
 2467      00
 2468 0ea3 4889EF   		movq	%rbp, %rdi
 2469 0ea6 E8000000 		call	_ZN8UnitTest11TestDetailsC1ERKS0_i@PLT
 2469      00
 2470 0eab 488D1500 		leaq	.LC15(%rip), %rdx
 2470      000000
 2471 0eb2 4889EE   		movq	%rbp, %rsi
 2472 0eb5 4C89E7   		movq	%r12, %rdi
 2473 0eb8 E8000000 		call	_ZN8UnitTest11TestResults13OnTestFailureERKNS_11TestDetailsEPKc@PLT
 2473      00
 2474              	.LEHE80:
 2475              	.LEHB81:
 2476 0ebd E8000000 		call	__cxa_end_catch@PLT
 2476      00
 2477              	.LEHE81:
 2478 0ec2 E940F8FF 		jmp	.L170
 2478      FF
 2479              	.L191:
 2480 0ec7 4889C5   		movq	%rax, %rbp
 2481 0eca E9C4FDFF 		jmp	.L133
 2481      FF
 2482              	.L194:
 2483 0ecf 4C89E7   		movq	%r12, %rdi
 2484 0ed2 4989C5   		movq	%rax, %r13
 2485 0ed5 E8000000 		call	_ZN8UnitTest15MemoryOutStreamD1Ev
 2485      00
 2486 0eda E9FBFDFF 		jmp	.L146
 2486      FF
 2487              	.L188:
 2488 0edf 4889C5   		movq	%rax, %rbp
 2489 0ee2 E8000000 		call	__cxa_end_catch@PLT
 2489      00
 2490 0ee7 E95FFDFF 		jmp	.L156
 2490      FF
 2491              		.cfi_endproc
 2492              	.LFE1248:
 2493              		.section	.gcc_except_table
 2494 00ab 00       		.align 4
 2495              	.LLSDA1248:
 2496 00ac FF       		.byte	0xff
 2497 00ad 9B       		.byte	0x9b
 2498 00ae F001     		.uleb128 .LLSDATT1248-.LLSDATTD1248
 2499              	.LLSDATTD1248:
 2500 00b0 01       		.byte	0x1
 2501 00b1 E701     		.uleb128 .LLSDACSE1248-.LLSDACSB1248
 2502              	.LLSDACSB1248:
 2503 00b3 A501     		.uleb128 .LEHB43-.LFB1248
 2504 00b5 05       		.uleb128 .LEHE43-.LEHB43
 2505 00b6 A715     		.uleb128 .L191-.LFB1248
 2506 00b8 00       		.uleb128 0
 2507 00b9 C901     		.uleb128 .LEHB44-.LFB1248
 2508 00bb 05       		.uleb128 .LEHE44-.LEHB44
 2509 00bc 9611     		.uleb128 .L192-.LFB1248
 2510 00be 00       		.uleb128 0
 2511 00bf D901     		.uleb128 .LEHB45-.LFB1248
 2512 00c1 05       		.uleb128 .LEHE45-.LEHB45
 2513 00c2 C510     		.uleb128 .L193-.LFB1248
 2514 00c4 00       		.uleb128 0
 2515 00c5 F301     		.uleb128 .LEHB46-.LFB1248
 2516 00c7 05       		.uleb128 .LEHE46-.LEHB46
 2517 00c8 A810     		.uleb128 .L176-.LFB1248
 2518 00ca 00       		.uleb128 0
 2519 00cb FC01     		.uleb128 .LEHB47-.LFB1248
 2520 00cd 3F       		.uleb128 .LEHE47-.LEHB47
 2521 00ce E20F     		.uleb128 .L177-.LFB1248
 2522 00d0 01       		.uleb128 0x1
 2523 00d1 CB02     		.uleb128 .LEHB48-.LFB1248
 2524 00d3 5C       		.uleb128 .LEHE48-.LEHB48
 2525 00d4 A810     		.uleb128 .L176-.LFB1248
 2526 00d6 00       		.uleb128 0
 2527 00d7 AB03     		.uleb128 .LEHB49-.LFB1248
 2528 00d9 3A       		.uleb128 .LEHE49-.LEHB49
 2529 00da 8314     		.uleb128 .L179-.LFB1248
 2530 00dc 01       		.uleb128 0x1
 2531 00dd E503     		.uleb128 .LEHB50-.LFB1248
 2532 00df 3E       		.uleb128 .LEHE50-.LEHB50
 2533 00e0 C213     		.uleb128 .L181-.LFB1248
 2534 00e2 01       		.uleb128 0x1
 2535 00e3 A304     		.uleb128 .LEHB51-.LFB1248
 2536 00e5 36       		.uleb128 .LEHE51-.LEHB51
 2537 00e6 E712     		.uleb128 .L183-.LFB1248
 2538 00e8 01       		.uleb128 0x1
 2539 00e9 E604     		.uleb128 .LEHB52-.LFB1248
 2540 00eb 05       		.uleb128 .LEHE52-.LEHB52
 2541 00ec A810     		.uleb128 .L176-.LFB1248
 2542 00ee 00       		.uleb128 0
 2543 00ef EF04     		.uleb128 .LEHB53-.LFB1248
 2544 00f1 3A       		.uleb128 .LEHE53-.LEHB53
 2545 00f2 A612     		.uleb128 .L185-.LFB1248
 2546 00f4 01       		.uleb128 0x1
 2547 00f5 A905     		.uleb128 .LEHB54-.LFB1248
 2548 00f7 3E       		.uleb128 .LEHE54-.LEHB54
 2549 00f8 E614     		.uleb128 .L187-.LFB1248
 2550 00fa 01       		.uleb128 0x1
 2551 00fb E705     		.uleb128 .LEHB55-.LFB1248
 2552 00fd 28       		.uleb128 .LEHE55-.LEHB55
 2553 00fe DE14     		.uleb128 .L189-.LFB1248
 2554 0100 01       		.uleb128 0x1
 2555 0101 C906     		.uleb128 .LEHB56-.LFB1248
 2556 0103 05       		.uleb128 .LEHE56-.LEHB56
 2557 0104 A810     		.uleb128 .L176-.LFB1248
 2558 0106 00       		.uleb128 0
 2559 0107 8007     		.uleb128 .LEHB57-.LFB1248
 2560 0109 05       		.uleb128 .LEHE57-.LEHB57
 2561 010a D40F     		.uleb128 .L198-.LFB1248
 2562 010c 00       		.uleb128 0
 2563 010d 8907     		.uleb128 .LEHB58-.LFB1248
 2564 010f 05       		.uleb128 .LEHE58-.LEHB58
 2565 0110 F40E     		.uleb128 .L197-.LFB1248
 2566 0112 00       		.uleb128 0
 2567 0113 DE07     		.uleb128 .LEHB59-.LFB1248
 2568 0115 05       		.uleb128 .LEHE59-.LEHB59
 2569 0116 00       		.uleb128 0
 2570 0117 00       		.uleb128 0
 2571 0118 9C09     		.uleb128 .LEHB60-.LFB1248
 2572 011a 05       		.uleb128 .LEHE60-.LEHB60
 2573 011b 9B11     		.uleb128 .L195-.LFB1248
 2574 011d 01       		.uleb128 0x1
 2575 011e C00A     		.uleb128 .LEHB61-.LFB1248
 2576 0120 05       		.uleb128 .LEHE61-.LEHB61
 2577 0121 FB11     		.uleb128 .L196-.LFB1248
 2578 0123 01       		.uleb128 0x1
 2579 0124 930B     		.uleb128 .LEHB62-.LFB1248
 2580 0126 EC01     		.uleb128 .LEHE62-.LEHB62
 2581 0128 AF15     		.uleb128 .L194-.LFB1248
 2582 012a 01       		.uleb128 0x1
 2583 012b B00E     		.uleb128 .LEHB63-.LFB1248
 2584 012d 05       		.uleb128 .LEHE63-.LEHB63
 2585 012e DE14     		.uleb128 .L189-.LFB1248
 2586 0130 01       		.uleb128 0x1
 2587 0131 C60E     		.uleb128 .LEHB64-.LFB1248
 2588 0133 24       		.uleb128 .LEHE64-.LEHB64
 2589 0134 A810     		.uleb128 .L176-.LFB1248
 2590 0136 00       		.uleb128 0
 2591 0137 CF0F     		.uleb128 .LEHB65-.LFB1248
 2592 0139 05       		.uleb128 .LEHE65-.LEHB65
 2593 013a 00       		.uleb128 0
 2594 013b 00       		.uleb128 0
 2595 013c EA0F     		.uleb128 .LEHB66-.LFB1248
 2596 013e 34       		.uleb128 .LEHE66-.LEHB66
 2597 013f BB10     		.uleb128 .L178-.LFB1248
 2598 0141 00       		.uleb128 0
 2599 0142 9E10     		.uleb128 .LEHB67-.LFB1248
 2600 0144 05       		.uleb128 .LEHE67-.LEHB67
 2601 0145 A810     		.uleb128 .L176-.LFB1248
 2602 0147 00       		.uleb128 0
 2603 0148 B610     		.uleb128 .LEHB68-.LFB1248
 2604 014a 05       		.uleb128 .LEHE68-.LEHB68
 2605 014b 00       		.uleb128 0
 2606 014c 00       		.uleb128 0
 2607 014d 9111     		.uleb128 .LEHB69-.LFB1248
 2608 014f 05       		.uleb128 .LEHE69-.LEHB69
 2609 0150 00       		.uleb128 0
 2610 0151 00       		.uleb128 0
 2611 0152 C211     		.uleb128 .LEHB70-.LFB1248
 2612 0154 2F       		.uleb128 .LEHE70-.LEHB70
 2613 0155 9912     		.uleb128 .L190-.LFB1248
 2614 0157 00       		.uleb128 0
 2615 0158 F111     		.uleb128 .LEHB71-.LFB1248
 2616 015a 05       		.uleb128 .LEHE71-.LEHB71
 2617 015b A810     		.uleb128 .L176-.LFB1248
 2618 015d 00       		.uleb128 0
 2619 015e AE12     		.uleb128 .LEHB72-.LFB1248
 2620 0160 2F       		.uleb128 .LEHE72-.LEHB72
 2621 0161 A813     		.uleb128 .L186-.LFB1248
 2622 0163 00       		.uleb128 0
 2623 0164 DD12     		.uleb128 .LEHB73-.LFB1248
 2624 0166 05       		.uleb128 .LEHE73-.LEHB73
 2625 0167 A810     		.uleb128 .L176-.LFB1248
 2626 0169 00       		.uleb128 0
 2627 016a EF12     		.uleb128 .LEHB74-.LFB1248
 2628 016c 2F       		.uleb128 .LEHE74-.LEHB74
 2629 016d B513     		.uleb128 .L184-.LFB1248
 2630 016f 00       		.uleb128 0
 2631 0170 9E13     		.uleb128 .LEHB75-.LFB1248
 2632 0172 05       		.uleb128 .LEHE75-.LEHB75
 2633 0173 A810     		.uleb128 .L176-.LFB1248
 2634 0175 00       		.uleb128 0
 2635 0176 CA13     		.uleb128 .LEHB76-.LFB1248
 2636 0178 2F       		.uleb128 .LEHE76-.LEHB76
 2637 0179 C414     		.uleb128 .L182-.LFB1248
 2638 017b 00       		.uleb128 0
 2639 017c F913     		.uleb128 .LEHB77-.LFB1248
 2640 017e 05       		.uleb128 .LEHE77-.LEHB77
 2641 017f A810     		.uleb128 .L176-.LFB1248
 2642 0181 00       		.uleb128 0
 2643 0182 8B14     		.uleb128 .LEHB78-.LFB1248
 2644 0184 2F       		.uleb128 .LEHE78-.LEHB78
 2645 0185 D114     		.uleb128 .L180-.LFB1248
 2646 0187 00       		.uleb128 0
 2647 0188 BA14     		.uleb128 .LEHB79-.LFB1248
 2648 018a 05       		.uleb128 .LEHE79-.LEHB79
 2649 018b A810     		.uleb128 .L176-.LFB1248
 2650 018d 00       		.uleb128 0
 2651 018e EE14     		.uleb128 .LEHB80-.LFB1248
 2652 0190 2F       		.uleb128 .LEHE80-.LEHB80
 2653 0191 BF15     		.uleb128 .L188-.LFB1248
 2654 0193 00       		.uleb128 0
 2655 0194 9D15     		.uleb128 .LEHB81-.LFB1248
 2656 0196 05       		.uleb128 .LEHE81-.LEHB81
 2657 0197 A810     		.uleb128 .L176-.LFB1248
 2658 0199 00       		.uleb128 0
 2659              	.LLSDACSE1248:
 2660 019a 01       		.byte	0x1
 2661 019b 00       		.byte	0
 2662              		.align 4
 2663 019c 00000000 		.long	0
 2664              	
 2665              	.LLSDATT1248:
 2666              		.text
 2668              		.section	.text._ZN8UnitTest15CheckArrayEqualIPKcPcEEvRNS_11TestResultsERKT_RKT0_iRKNS_11TestDetail
 2669              		.p2align 4,,15
 2670              		.weak	_ZN8UnitTest15CheckArrayEqualIPKcPcEEvRNS_11TestResultsERKT_RKT0_iRKNS_11TestDetailsE
 2672              	_ZN8UnitTest15CheckArrayEqualIPKcPcEEvRNS_11TestResultsERKT_RKT0_iRKNS_11TestDetailsE:
 2673              	.LFB1309:
 2674              		.cfi_startproc
 2675              		.cfi_personality 0x9b,DW.ref.__gxx_personality_v0
 2676              		.cfi_lsda 0x1b,.LLSDA1309
 2677 0000 4157     		pushq	%r15
 2678              		.cfi_def_cfa_offset 16
 2679              		.cfi_offset 15, -16
 2680 0002 4156     		pushq	%r14
 2681              		.cfi_def_cfa_offset 24
 2682              		.cfi_offset 14, -24
 2683 0004 4155     		pushq	%r13
 2684              		.cfi_def_cfa_offset 32
 2685              		.cfi_offset 13, -32
 2686 0006 4154     		pushq	%r12
 2687              		.cfi_def_cfa_offset 40
 2688              		.cfi_offset 12, -40
 2689 0008 55       		pushq	%rbp
 2690              		.cfi_def_cfa_offset 48
 2691              		.cfi_offset 6, -48
 2692 0009 53       		pushq	%rbx
 2693              		.cfi_def_cfa_offset 56
 2694              		.cfi_offset 3, -56
 2695 000a 4881ECD8 		subq	$472, %rsp
 2695      010000
 2696              		.cfi_def_cfa_offset 528
 2697 0011 64488B04 		movq	%fs:40, %rax
 2697      25280000 
 2697      00
 2698 001a 48898424 		movq	%rax, 456(%rsp)
 2698      C8010000 
 2699 0022 31C0     		xorl	%eax, %eax
 2700 0024 85C9     		testl	%ecx, %ecx
 2701 0026 48897C24 		movq	%rdi, 16(%rsp)
 2701      10
 2702 002b 4C894424 		movq	%r8, 24(%rsp)
 2702      18
 2703 0030 7E37     		jle	.L212
 2704 0032 4989F6   		movq	%rsi, %r14
 2705 0035 488B3E   		movq	(%rsi), %rdi
 2706 0038 488B32   		movq	(%rdx), %rsi
 2707 003b 83E901   		subl	$1, %ecx
 2708 003e 4989D5   		movq	%rdx, %r13
 2709 0041 31DB     		xorl	%ebx, %ebx
 2710 0043 4883C101 		addq	$1, %rcx
 2711 0047 B8010000 		movl	$1, %eax
 2711      00
 2712 004c 0F1F4000 		.p2align 4,,10
 2713              		.p2align 3
 2714              	.L214:
 2715 0050 0FB6141E 		movzbl	(%rsi,%rbx), %edx
 2716 0054 38141F   		cmpb	%dl, (%rdi,%rbx)
 2717 0057 0F94C2   		sete	%dl
 2718 005a 4883C301 		addq	$1, %rbx
 2719 005e 21D0     		andl	%edx, %eax
 2720 0060 4839D9   		cmpq	%rbx, %rcx
 2721 0063 75EB     		jne	.L214
 2722 0065 84C0     		testb	%al, %al
 2723 0067 742F     		je	.L234
 2724              	.L212:
 2725 0069 488B8424 		movq	456(%rsp), %rax
 2725      C8010000 
 2726 0071 64483304 		xorq	%fs:40, %rax
 2726      25280000 
 2726      00
 2727 007a 0F850203 		jne	.L235
 2727      0000
 2728 0080 4881C4D8 		addq	$472, %rsp
 2728      010000
 2729              		.cfi_remember_state
 2730              		.cfi_def_cfa_offset 56
 2731 0087 5B       		popq	%rbx
 2732              		.cfi_def_cfa_offset 48
 2733 0088 5D       		popq	%rbp
 2734              		.cfi_def_cfa_offset 40
 2735 0089 415C     		popq	%r12
 2736              		.cfi_def_cfa_offset 32
 2737 008b 415D     		popq	%r13
 2738              		.cfi_def_cfa_offset 24
 2739 008d 415E     		popq	%r14
 2740              		.cfi_def_cfa_offset 16
 2741 008f 415F     		popq	%r15
 2742              		.cfi_def_cfa_offset 8
 2743 0091 C3       		ret
 2744              		.p2align 4,,10
 2745 0092 660F1F44 		.p2align 3
 2745      0000
 2746              	.L234:
 2747              		.cfi_restore_state
 2748 0098 4C8D6424 		leaq	48(%rsp), %r12
 2748      30
 2749 009d 498DAC24 		leaq	144(%r12), %rbp
 2749      90000000 
 2750 00a5 4889EF   		movq	%rbp, %rdi
 2751 00a8 E8000000 		call	_ZNSt8ios_baseC2Ev@PLT
 2751      00
 2752 00ad 488D0500 		leaq	24+_ZTCN8UnitTest15MemoryOutStreamE0_So(%rip), %rax
 2752      000000
 2753 00b4 31F6     		xorl	%esi, %esi
 2754 00b6 4889EF   		movq	%rbp, %rdi
 2755 00b9 48C78424 		movq	$0, 408(%rsp)
 2755      98010000 
 2755      00000000 
 2756 00c5 C68424A0 		movb	$0, 416(%rsp)
 2756      01000000 
 2757 00cd 48894424 		movq	%rax, 48(%rsp)
 2757      30
 2758 00d2 4883C028 		addq	$40, %rax
 2759 00d6 C68424A1 		movb	$0, 417(%rsp)
 2759      01000000 
 2760 00de 48C78424 		movq	$0, 424(%rsp)
 2760      A8010000 
 2760      00000000 
 2761 00ea 48C78424 		movq	$0, 432(%rsp)
 2761      B0010000 
 2761      00000000 
 2762 00f6 48C78424 		movq	$0, 440(%rsp)
 2762      B8010000 
 2762      00000000 
 2763 0102 48C78424 		movq	$0, 448(%rsp)
 2763      C0010000 
 2763      00000000 
 2764 010e 48898424 		movq	%rax, 192(%rsp)
 2764      C0000000 
 2765              	.LEHB82:
 2766 0116 E8000000 		call	_ZNSt9basic_iosIcSt11char_traitsIcEE4initEPSt15basic_streambufIcS1_E@PLT
 2766      00
 2767              	.LEHE82:
 2768 011b 488D0500 		leaq	24+_ZTCN8UnitTest15MemoryOutStreamE0_NSt7__cxx1119basic_ostringstreamIcSt11char_traitsIcESaIc
 2768      000000
 2769 0122 660FEFC0 		pxor	%xmm0, %xmm0
 2770 0126 498D7C24 		leaq	64(%r12), %rdi
 2770      40
 2771 012b 48894424 		movq	%rax, 48(%rsp)
 2771      30
 2772 0130 4883C028 		addq	$40, %rax
 2773 0134 48898424 		movq	%rax, 192(%rsp)
 2773      C0000000 
 2774 013c 488D0500 		leaq	16+_ZTVSt15basic_streambufIcSt11char_traitsIcEE(%rip), %rax
 2774      000000
 2775 0143 0F294424 		movaps	%xmm0, 64(%rsp)
 2775      40
 2776 0148 48894424 		movq	%rax, 56(%rsp)
 2776      38
 2777 014d 0F294424 		movaps	%xmm0, 80(%rsp)
 2777      50
 2778 0152 0F294424 		movaps	%xmm0, 96(%rsp)
 2778      60
 2779 0157 E8000000 		call	_ZNSt6localeC1Ev@PLT
 2779      00
 2780 015c 488D0500 		leaq	16+_ZTVNSt7__cxx1115basic_stringbufIcSt11char_traitsIcESaIcEEE(%rip), %rax
 2780      000000
 2781 0163 498D7424 		leaq	8(%r12), %rsi
 2781      08
 2782 0168 48894424 		movq	%rax, 56(%rsp)
 2782      38
 2783 016d 498D4424 		leaq	96(%r12), %rax
 2783      60
 2784 0172 C7442478 		movl	$16, 120(%rsp)
 2784      10000000 
 2785 017a 48C78424 		movq	$0, 136(%rsp)
 2785      88000000 
 2785      00000000 
 2786 0186 C6842490 		movb	$0, 144(%rsp)
 2786      00000000 
 2787 018e 48898424 		movq	%rax, 128(%rsp)
 2787      80000000 
 2788 0196 488B4424 		movq	48(%rsp), %rax
 2788      30
 2789 019b 488B78E8 		movq	-24(%rax), %rdi
 2790 019f 4C01E7   		addq	%r12, %rdi
 2791              	.LEHB83:
 2792 01a2 E8000000 		call	_ZNSt9basic_iosIcSt11char_traitsIcEE4initEPSt15basic_streambufIcS1_E@PLT
 2792      00
 2793              	.LEHE83:
 2794 01a7 488D0500 		leaq	24+_ZTVN8UnitTest15MemoryOutStreamE(%rip), %rax
 2794      000000
 2795 01ae 488D3500 		leaq	.LC7(%rip), %rsi
 2795      000000
 2796 01b5 BA0B0000 		movl	$11, %edx
 2796      00
 2797 01ba 4C89E7   		movq	%r12, %rdi
 2798 01bd 48C78424 		movq	$0, 168(%rsp)
 2798      A8000000 
 2798      00000000 
 2799 01c9 C68424B0 		movb	$0, 176(%rsp)
 2799      00000000 
 2800 01d1 48894424 		movq	%rax, 48(%rsp)
 2800      30
 2801 01d6 4883C028 		addq	$40, %rax
 2802 01da 48898424 		movq	%rax, 192(%rsp)
 2802      C0000000 
 2803 01e2 498D8424 		leaq	128(%r12), %rax
 2803      80000000 
 2804 01ea 48898424 		movq	%rax, 160(%rsp)
 2804      A0000000 
 2805              	.LEHB84:
 2806 01f2 E8000000 		call	_ZSt16__ostream_insertIcSt11char_traitsIcEERSt13basic_ostreamIT_T0_ES6_PKS3_l@PLT
 2806      00
 2807 01f7 488D4424 		leaq	46(%rsp), %rax
 2807      2E
 2808 01fc 4C8D3D00 		leaq	.LC8(%rip), %r15
 2808      000000
 2809 0203 31ED     		xorl	%ebp, %ebp
 2810 0205 48894424 		movq	%rax, 8(%rsp)
 2810      08
 2811 020a 660F1F44 		.p2align 4,,10
 2811      0000
 2812              		.p2align 3
 2813              	.L218:
 2814 0210 498B06   		movq	(%r14), %rax
 2815 0213 488B7424 		movq	8(%rsp), %rsi
 2815      08
 2816 0218 BA010000 		movl	$1, %edx
 2816      00
 2817 021d 4C89E7   		movq	%r12, %rdi
 2818 0220 0FB60428 		movzbl	(%rax,%rbp), %eax
 2819 0224 8844242E 		movb	%al, 46(%rsp)
 2820 0228 E8000000 		call	_ZSt16__ostream_insertIcSt11char_traitsIcEERSt13basic_ostreamIT_T0_ES6_PKS3_l@PLT
 2820      00
 2821 022d BA010000 		movl	$1, %edx
 2821      00
 2822 0232 4C89FE   		movq	%r15, %rsi
 2823 0235 4889C7   		movq	%rax, %rdi
 2824 0238 E8000000 		call	_ZSt16__ostream_insertIcSt11char_traitsIcEERSt13basic_ostreamIT_T0_ES6_PKS3_l@PLT
 2824      00
 2825 023d 4883C501 		addq	$1, %rbp
 2826 0241 4839EB   		cmpq	%rbp, %rbx
 2827 0244 75CA     		jne	.L218
 2828 0246 488D3500 		leaq	.LC9(%rip), %rsi
 2828      000000
 2829 024d BA0C0000 		movl	$12, %edx
 2829      00
 2830 0252 4C89E7   		movq	%r12, %rdi
 2831 0255 E8000000 		call	_ZSt16__ostream_insertIcSt11char_traitsIcEERSt13basic_ostreamIT_T0_ES6_PKS3_l@PLT
 2831      00
 2832 025a 4C8D7424 		leaq	47(%rsp), %r14
 2832      2F
 2833 025f 4C8D3D00 		leaq	.LC8(%rip), %r15
 2833      000000
 2834 0266 31DB     		xorl	%ebx, %ebx
 2835 0268 0F1F8400 		.p2align 4,,10
 2835      00000000 
 2836              		.p2align 3
 2837              	.L219:
 2838 0270 498B4500 		movq	0(%r13), %rax
 2839 0274 BA010000 		movl	$1, %edx
 2839      00
 2840 0279 4C89F6   		movq	%r14, %rsi
 2841 027c 4C89E7   		movq	%r12, %rdi
 2842 027f 0FB60418 		movzbl	(%rax,%rbx), %eax
 2843 0283 8844242F 		movb	%al, 47(%rsp)
 2844 0287 E8000000 		call	_ZSt16__ostream_insertIcSt11char_traitsIcEERSt13basic_ostreamIT_T0_ES6_PKS3_l@PLT
 2844      00
 2845 028c BA010000 		movl	$1, %edx
 2845      00
 2846 0291 4C89FE   		movq	%r15, %rsi
 2847 0294 4889C7   		movq	%rax, %rdi
 2848 0297 E8000000 		call	_ZSt16__ostream_insertIcSt11char_traitsIcEERSt13basic_ostreamIT_T0_ES6_PKS3_l@PLT
 2848      00
 2849 029c 4883C301 		addq	$1, %rbx
 2850 02a0 4839DD   		cmpq	%rbx, %rbp
 2851 02a3 75CB     		jne	.L219
 2852 02a5 488D3500 		leaq	.LC10(%rip), %rsi
 2852      000000
 2853 02ac BA010000 		movl	$1, %edx
 2853      00
 2854 02b1 4C89E7   		movq	%r12, %rdi
 2855 02b4 E8000000 		call	_ZSt16__ostream_insertIcSt11char_traitsIcEERSt13basic_ostreamIT_T0_ES6_PKS3_l@PLT
 2855      00
 2856 02b9 4C89E7   		movq	%r12, %rdi
 2857 02bc E8000000 		call	_ZNK8UnitTest15MemoryOutStream7GetTextEv@PLT
 2857      00
 2858 02c1 488B7424 		movq	24(%rsp), %rsi
 2858      18
 2859 02c6 488B7C24 		movq	16(%rsp), %rdi
 2859      10
 2860 02cb 4889C2   		movq	%rax, %rdx
 2861 02ce E8000000 		call	_ZN8UnitTest11TestResults13OnTestFailureERKNS_11TestDetailsEPKc@PLT
 2861      00
 2862              	.LEHE84:
 2863 02d3 488D0500 		leaq	24+_ZTVN8UnitTest15MemoryOutStreamE(%rip), %rax
 2863      000000
 2864 02da 488BBC24 		movq	160(%rsp), %rdi
 2864      A0000000 
 2865 02e2 48894424 		movq	%rax, 48(%rsp)
 2865      30
 2866 02e7 4883C028 		addq	$40, %rax
 2867 02eb 48898424 		movq	%rax, 192(%rsp)
 2867      C0000000 
 2868 02f3 498D8424 		leaq	128(%r12), %rax
 2868      80000000 
 2869 02fb 4839C7   		cmpq	%rax, %rdi
 2870 02fe 7405     		je	.L220
 2871 0300 E8000000 		call	_ZdlPv@PLT
 2871      00
 2872              	.L220:
 2873 0305 488D0500 		leaq	64+_ZTCN8UnitTest15MemoryOutStreamE0_NSt7__cxx1119basic_ostringstreamIcSt11char_traitsIcESaIc
 2873      000000
 2874 030c 488BBC24 		movq	128(%rsp), %rdi
 2874      80000000 
 2875 0314 F30F7E05 		movq	.LC2(%rip), %xmm0
 2875      00000000 
 2876 031c 48898424 		movq	%rax, 192(%rsp)
 2876      C0000000 
 2877 0324 498D4424 		leaq	96(%r12), %rax
 2877      60
 2878 0329 0F160500 		movhps	.LC3(%rip), %xmm0
 2878      000000
 2879 0330 4839C7   		cmpq	%rax, %rdi
 2880 0333 0F294424 		movaps	%xmm0, 48(%rsp)
 2880      30
 2881 0338 7405     		je	.L221
 2882 033a E8000000 		call	_ZdlPv@PLT
 2882      00
 2883              	.L221:
 2884 033f 488D0500 		leaq	16+_ZTVSt15basic_streambufIcSt11char_traitsIcEE(%rip), %rax
 2884      000000
 2885 0346 498D7C24 		leaq	64(%r12), %rdi
 2885      40
 2886 034b 48894424 		movq	%rax, 56(%rsp)
 2886      38
 2887 0350 E8000000 		call	_ZNSt6localeD1Ev@PLT
 2887      00
 2888 0355 488D0500 		leaq	24+_ZTCN8UnitTest15MemoryOutStreamE0_So(%rip), %rax
 2888      000000
 2889 035c 498DBC24 		leaq	144(%r12), %rdi
 2889      90000000 
 2890 0364 48894424 		movq	%rax, 48(%rsp)
 2890      30
 2891 0369 488D0500 		leaq	16+_ZTVSt9basic_iosIcSt11char_traitsIcEE(%rip), %rax
 2891      000000
 2892 0370 48898424 		movq	%rax, 192(%rsp)
 2892      C0000000 
 2893              	.LEHB85:
 2894 0378 E8000000 		call	_ZNSt8ios_baseD2Ev@PLT
 2894      00
 2895              	.LEHE85:
 2896 037d E9E7FCFF 		jmp	.L212
 2896      FF
 2897              	.L235:
 2898 0382 E8000000 		call	__stack_chk_fail@PLT
 2898      00
 2899              	.L226:
 2900 0387 4889C3   		movq	%rax, %rbx
 2901              	.L217:
 2902 038a 488D0500 		leaq	16+_ZTVSt9basic_iosIcSt11char_traitsIcEE(%rip), %rax
 2902      000000
 2903 0391 498DBC24 		leaq	144(%r12), %rdi
 2903      90000000 
 2904 0399 48898424 		movq	%rax, 192(%rsp)
 2904      C0000000 
 2905 03a1 E8000000 		call	_ZNSt8ios_baseD2Ev@PLT
 2905      00
 2906 03a6 4889DF   		movq	%rbx, %rdi
 2907              	.LEHB86:
 2908 03a9 E8000000 		call	_Unwind_Resume@PLT
 2908      00
 2909              	.LEHE86:
 2910              	.L227:
 2911 03ae 498D7C24 		leaq	8(%r12), %rdi
 2911      08
 2912 03b3 4889C3   		movq	%rax, %rbx
 2913 03b6 E8000000 		call	_ZNSt7__cxx1115basic_stringbufIcSt11char_traitsIcESaIcEED1Ev
 2913      00
 2914 03bb 488D0500 		leaq	24+_ZTCN8UnitTest15MemoryOutStreamE0_So(%rip), %rax
 2914      000000
 2915 03c2 48894424 		movq	%rax, 48(%rsp)
 2915      30
 2916 03c7 EBC1     		jmp	.L217
 2917              	.L225:
 2918 03c9 4889C3   		movq	%rax, %rbx
 2919 03cc 4C89E7   		movq	%r12, %rdi
 2920 03cf E8000000 		call	_ZN8UnitTest15MemoryOutStreamD1Ev
 2920      00
 2921 03d4 4889DF   		movq	%rbx, %rdi
 2922              	.LEHB87:
 2923 03d7 E8000000 		call	_Unwind_Resume@PLT
 2923      00
 2924              	.LEHE87:
 2925              		.cfi_endproc
 2926              	.LFE1309:
 2927              		.section	.gcc_except_table
 2928              	.LLSDA1309:
 2929 01a0 FF       		.byte	0xff
 2930 01a1 FF       		.byte	0xff
 2931 01a2 01       		.byte	0x1
 2932 01a3 22       		.uleb128 .LLSDACSE1309-.LLSDACSB1309
 2933              	.LLSDACSB1309:
 2934 01a4 9602     		.uleb128 .LEHB82-.LFB1309
 2935 01a6 05       		.uleb128 .LEHE82-.LEHB82
 2936 01a7 8707     		.uleb128 .L226-.LFB1309
 2937 01a9 00       		.uleb128 0
 2938 01aa A203     		.uleb128 .LEHB83-.LFB1309
 2939 01ac 05       		.uleb128 .LEHE83-.LEHB83
 2940 01ad AE07     		.uleb128 .L227-.LFB1309
 2941 01af 00       		.uleb128 0
 2942 01b0 F203     		.uleb128 .LEHB84-.LFB1309
 2943 01b2 E101     		.uleb128 .LEHE84-.LEHB84
 2944 01b4 C907     		.uleb128 .L225-.LFB1309
 2945 01b6 00       		.uleb128 0
 2946 01b7 F806     		.uleb128 .LEHB85-.LFB1309
 2947 01b9 05       		.uleb128 .LEHE85-.LEHB85
 2948 01ba 00       		.uleb128 0
 2949 01bb 00       		.uleb128 0
 2950 01bc A907     		.uleb128 .LEHB86-.LFB1309
 2951 01be 05       		.uleb128 .LEHE86-.LEHB86
 2952 01bf 00       		.uleb128 0
 2953 01c0 00       		.uleb128 0
 2954 01c1 D707     		.uleb128 .LEHB87-.LFB1309
 2955 01c3 05       		.uleb128 .LEHE87-.LEHB87
 2956 01c4 00       		.uleb128 0
 2957 01c5 00       		.uleb128 0
 2958              	.LLSDACSE1309:
 2959              		.section	.text._ZN8UnitTest15CheckArrayEqualIPKcPcEEvRNS_11TestResultsERKT_RKT0_iRKNS_11TestDetail
 2961              		.section	.rodata.str1.1
 2962              	.LC18:
 2963 0034 66696C65 		.string	"file.is_open()"
 2963      2E69735F 
 2963      6F70656E 
 2963      282900
 2964              		.section	.rodata.str1.8
 2965              		.align 8
 2966              	.LC19:
 2967 0180 556E6861 		.string	"Unhandled exception in CHECK(file.is_open())"
 2967      6E646C65 
 2967      64206578 
 2967      63657074 
 2967      696F6E20 
 2968 01ad 000000   		.align 8
 2969              	.LC20:
 2970 01b0 556E6861 		.string	"Unhandled exception in CHECK_EQUAL(strlen(DATA), (size_t)length)"
 2970      6E646C65 
 2970      64206578 
 2970      63657074 
 2970      696F6E20 
 2971 01f1 00000000 		.align 8
 2971      000000
 2972              	.LC21:
 2973 01f8 556E6861 		.string	"Unhandled exception in CHECK_ARRAY_EQUAL(DATA, fileData)"
 2973      6E646C65 
 2973      64206578 
 2973      63657074 
 2973      696F6E20 
 2974 0231 00000000 		.align 8
 2974      000000
 2975              	.LC22:
 2976 0238 556E6861 		.string	"Unhandled exception in CHECK_EQUAL(9, length)"
 2976      6E646C65 
 2976      64206578 
 2976      63657074 
 2976      696F6E20 
 2977 0266 0000     		.align 8
 2978              	.LC23:
 2979 0268 556E6861 		.string	"Unhandled exception in CHECK_ARRAY_EQUAL(DATA+5, fileData)"
 2979      6E646C65 
 2979      64206578 
 2979      63657074 
 2979      696F6E20 
 2980              		.text
 2981              		.align 2
 2982 0eec 0F1F4000 		.p2align 4,,15
 2983              		.globl	_ZNK23TestBinIO_testWriteFile7RunImplEv
 2985              	_ZNK23TestBinIO_testWriteFile7RunImplEv:
 2986              	.LFB1252:
 2987              		.cfi_startproc
 2988              		.cfi_personality 0x9b,DW.ref.__gxx_personality_v0
 2989              		.cfi_lsda 0x1b,.LLSDA1252
 2990 0ef0 4157     		pushq	%r15
 2991              		.cfi_def_cfa_offset 16
 2992              		.cfi_offset 15, -16
 2993 0ef2 4156     		pushq	%r14
 2994              		.cfi_def_cfa_offset 24
 2995              		.cfi_offset 14, -24
 2996 0ef4 4155     		pushq	%r13
 2997              		.cfi_def_cfa_offset 32
 2998              		.cfi_offset 13, -32
 2999 0ef6 4154     		pushq	%r12
 3000              		.cfi_def_cfa_offset 40
 3001              		.cfi_offset 12, -40
 3002 0ef8 55       		pushq	%rbp
 3003              		.cfi_def_cfa_offset 48
 3004              		.cfi_offset 6, -48
 3005 0ef9 53       		pushq	%rbx
 3006              		.cfi_def_cfa_offset 56
 3007              		.cfi_offset 3, -56
 3008 0efa 4881EC28 		subq	$1064, %rsp
 3008      040000
 3009              		.cfi_def_cfa_offset 1120
 3010 0f01 488D9C24 		leaq	528(%rsp), %rbx
 3010      10020000 
 3011 0f09 64488B04 		movq	%fs:40, %rax
 3011      25280000 
 3011      00
 3012 0f12 48898424 		movq	%rax, 1048(%rsp)
 3012      18040000 
 3013 0f1a 31C0     		xorl	%eax, %eax
 3014 0f1c 488DBB00 		leaq	256(%rbx), %rdi
 3014      010000
 3015 0f23 488D0500 		leaq	.LC11(%rip), %rax
 3015      000000
 3016 0f2a 48894424 		movq	%rax, 24(%rsp)
 3016      18
 3017 0f2f E8000000 		call	_ZNSt8ios_baseC2Ev@PLT
 3017      00
 3018 0f34 4C8B2D00 		movq	8+_ZTTSt14basic_ifstreamIcSt11char_traitsIcEE(%rip), %r13
 3018      000000
 3019 0f3b 488D0500 		leaq	16+_ZTVSt9basic_iosIcSt11char_traitsIcEE(%rip), %rax
 3019      000000
 3020 0f42 C68424F0 		movb	$0, 1008(%rsp)
 3020      03000000 
 3021 0f4a 488B0D00 		movq	16+_ZTTSt14basic_ifstreamIcSt11char_traitsIcEE(%rip), %rcx
 3021      000000
 3022 0f51 48C78424 		movq	$0, 1000(%rsp)
 3022      E8030000 
 3022      00000000 
 3023 0f5d 31F6     		xorl	%esi, %esi
 3024 0f5f 48898424 		movq	%rax, 784(%rsp)
 3024      10030000 
 3025 0f67 C68424F1 		movb	$0, 1009(%rsp)
 3025      03000000 
 3026 0f6f 498B45E8 		movq	-24(%r13), %rax
 3027 0f73 48C78424 		movq	$0, 1016(%rsp)
 3027      F8030000 
 3027      00000000 
 3028 0f7f 48C78424 		movq	$0, 1024(%rsp)
 3028      00040000 
 3028      00000000 
 3029 0f8b 48C78424 		movq	$0, 1032(%rsp)
 3029      08040000 
 3029      00000000 
 3030 0f97 48C78424 		movq	$0, 1040(%rsp)
 3030      10040000 
 3030      00000000 
 3031 0fa3 4C89AC24 		movq	%r13, 528(%rsp)
 3031      10020000 
 3032 0fab 48898C04 		movq	%rcx, 528(%rsp,%rax)
 3032      10020000 
 3033 0fb3 48C78424 		movq	$0, 536(%rsp)
 3033      18020000 
 3033      00000000 
 3034 0fbf 498B7DE8 		movq	-24(%r13), %rdi
 3035 0fc3 4801DF   		addq	%rbx, %rdi
 3036              	.LEHB88:
 3037 0fc6 E8000000 		call	_ZNSt9basic_iosIcSt11char_traitsIcEE4initEPSt15basic_streambufIcS1_E@PLT
 3037      00
 3038              	.LEHE88:
 3039 0fcb 488D0500 		leaq	24+_ZTVSt14basic_ifstreamIcSt11char_traitsIcEE(%rip), %rax
 3039      000000
 3040 0fd2 488D7B10 		leaq	16(%rbx), %rdi
 3041 0fd6 48898424 		movq	%rax, 528(%rsp)
 3041      10020000 
 3042 0fde 4883C028 		addq	$40, %rax
 3043 0fe2 48898424 		movq	%rax, 784(%rsp)
 3043      10030000 
 3044              	.LEHB89:
 3045 0fea E8000000 		call	_ZNSt13basic_filebufIcSt11char_traitsIcEEC1Ev@PLT
 3045      00
 3046              	.LEHE89:
 3047 0fef 488D7310 		leaq	16(%rbx), %rsi
 3048 0ff3 488DBB00 		leaq	256(%rbx), %rdi
 3048      010000
 3049              	.LEHB90:
 3050 0ffa E8000000 		call	_ZNSt9basic_iosIcSt11char_traitsIcEE4initEPSt15basic_streambufIcS1_E@PLT
 3050      00
 3051              	.LEHE90:
 3052 0fff 4C8D7424 		leaq	48(%rsp), %r14
 3052      30
 3053 1004 31C9     		xorl	%ecx, %ecx
 3054 1006 31D2     		xorl	%edx, %edx
 3055 1008 BE080000 		movl	$8, %esi
 3055      00
 3056 100d 4C89F7   		movq	%r14, %rdi
 3057              	.LEHB91:
 3058 1010 E8000000 		call	bufInitialise@PLT
 3058      00
 3059              	.LEHE91:
 3060 1015 89442414 		movl	%eax, 20(%rsp)
 3061              	.LEHB92:
 3062 1019 E8000000 		call	_ZN8UnitTest11CurrentTest7DetailsEv@PLT
 3062      00
 3063 101e 488D6C24 		leaq	80(%rsp), %rbp
 3063      50
 3064 1023 488B30   		movq	(%rax), %rsi
 3065 1026 BA3F0000 		movl	$63, %edx
 3065      00
 3066 102b 4889EF   		movq	%rbp, %rdi
 3067 102e E8000000 		call	_ZN8UnitTest11TestDetailsC1ERKS0_i@PLT
 3067      00
 3068 1033 C7442428 		movl	$0, 40(%rsp)
 3068      00000000 
 3069 103b E8000000 		call	_ZN8UnitTest11CurrentTest7ResultsEv@PLT
 3069      00
 3070 1040 488B38   		movq	(%rax), %rdi
 3071 1043 488D5424 		leaq	20(%rsp), %rdx
 3071      14
 3072 1048 488D7424 		leaq	40(%rsp), %rsi
 3072      28
 3073 104d 4889E9   		movq	%rbp, %rcx
 3074 1050 E8000000 		call	_ZN8UnitTest10CheckEqualI12BufferStatusS1_EEvRNS_11TestResultsERKT_RKT0_RKNS_11TestDetailsE
 3074      00
 3075              	.LEHE92:
 3076              	.L270:
 3077 1055 488D3500 		leaq	.LC11(%rip), %rsi
 3077      000000
 3078 105c 31C9     		xorl	%ecx, %ecx
 3079 105e BA130000 		movl	$19, %edx
 3079      00
 3080 1063 4C89F7   		movq	%r14, %rdi
 3081              	.LEHB93:
 3082 1066 E8000000 		call	bufAppendBlock@PLT
 3082      00
 3083              	.LEHE93:
 3084 106b 89442414 		movl	%eax, 20(%rsp)
 3085              	.LEHB94:
 3086 106f E8000000 		call	_ZN8UnitTest11CurrentTest7DetailsEv@PLT
 3086      00
 3087 1074 488B30   		movq	(%rax), %rsi
 3088 1077 BA410000 		movl	$65, %edx
 3088      00
 3089 107c 4889EF   		movq	%rbp, %rdi
 3090 107f E8000000 		call	_ZN8UnitTest11TestDetailsC1ERKS0_i@PLT
 3090      00
 3091 1084 C7442428 		movl	$0, 40(%rsp)
 3091      00000000 
 3092 108c E8000000 		call	_ZN8UnitTest11CurrentTest7ResultsEv@PLT
 3092      00
 3093 1091 488B38   		movq	(%rax), %rdi
 3094 1094 488D5424 		leaq	20(%rsp), %rdx
 3094      14
 3095 1099 488D7424 		leaq	40(%rsp), %rsi
 3095      28
 3096 109e 4889E9   		movq	%rbp, %rcx
 3097 10a1 E8000000 		call	_ZN8UnitTest10CheckEqualI12BufferStatusS1_EEvRNS_11TestResultsERKT_RKT0_RKNS_11TestDetailsE
 3097      00
 3098              	.LEHE94:
 3099              	.L274:
 3100 10a6 488B4C24 		movq	56(%rsp), %rcx
 3100      38
 3101 10ab 488D3500 		leaq	.LC12(%rip), %rsi
 3101      000000
 3102 10b2 4531C0   		xorl	%r8d, %r8d
 3103 10b5 31D2     		xorl	%edx, %edx
 3104 10b7 4C89F7   		movq	%r14, %rdi
 3105              	.LEHB95:
 3106 10ba E8000000 		call	bufWriteBinaryFile@PLT
 3106      00
 3107              	.LEHE95:
 3108 10bf 89442414 		movl	%eax, 20(%rsp)
 3109              	.LEHB96:
 3110 10c3 E8000000 		call	_ZN8UnitTest11CurrentTest7DetailsEv@PLT
 3110      00
 3111 10c8 488B30   		movq	(%rax), %rsi
 3112 10cb BA440000 		movl	$68, %edx
 3112      00
 3113 10d0 4889EF   		movq	%rbp, %rdi
 3114 10d3 E8000000 		call	_ZN8UnitTest11TestDetailsC1ERKS0_i@PLT
 3114      00
 3115 10d8 C7442428 		movl	$0, 40(%rsp)
 3115      00000000 
 3116 10e0 E8000000 		call	_ZN8UnitTest11CurrentTest7ResultsEv@PLT
 3116      00
 3117 10e5 488B38   		movq	(%rax), %rdi
 3118 10e8 488D5424 		leaq	20(%rsp), %rdx
 3118      14
 3119 10ed 488D7424 		leaq	40(%rsp), %rsi
 3119      28
 3120 10f2 4889E9   		movq	%rbp, %rcx
 3121 10f5 E8000000 		call	_ZN8UnitTest10CheckEqualI12BufferStatusS1_EEvRNS_11TestResultsERKT_RKT0_RKNS_11TestDetailsE
 3121      00
 3122              	.LEHE96:
 3123              	.L277:
 3124 10fa 488D7B10 		leaq	16(%rbx), %rdi
 3125 10fe 488D3500 		leaq	.LC12(%rip), %rsi
 3125      000000
 3126 1105 BA0E0000 		movl	$14, %edx
 3126      00
 3127              	.LEHB97:
 3128 110a E8000000 		call	_ZNSt13basic_filebufIcSt11char_traitsIcEE4openEPKcSt13_Ios_Openmode@PLT
 3128      00
 3129 110f 488B9424 		movq	528(%rsp), %rdx
 3129      10020000 
 3130 1117 488B7AE8 		movq	-24(%rdx), %rdi
 3131 111b 4801DF   		addq	%rbx, %rdi
 3132 111e 4885C0   		testq	%rax, %rax
 3133 1121 0F84B905 		je	.L342
 3133      0000
 3134 1127 31F6     		xorl	%esi, %esi
 3135 1129 E8000000 		call	_ZNSt9basic_iosIcSt11char_traitsIcEE5clearESt12_Ios_Iostate@PLT
 3135      00
 3136              	.LEHE97:
 3137              	.L244:
 3138 112e 488D7B78 		leaq	120(%rbx), %rdi
 3139 1132 E8000000 		call	_ZNKSt12__basic_fileIcE7is_openEv@PLT
 3139      00
 3140 1137 84C0     		testb	%al, %al
 3141 1139 752F     		jne	.L245
 3142              	.LEHB98:
 3143 113b E8000000 		call	_ZN8UnitTest11CurrentTest7ResultsEv@PLT
 3143      00
 3144 1140 4C8B20   		movq	(%rax), %r12
 3145 1143 E8000000 		call	_ZN8UnitTest11CurrentTest7DetailsEv@PLT
 3145      00
 3146 1148 488B30   		movq	(%rax), %rsi
 3147 114b BA460000 		movl	$70, %edx
 3147      00
 3148 1150 4889EF   		movq	%rbp, %rdi
 3149 1153 E8000000 		call	_ZN8UnitTest11TestDetailsC1ERKS0_i@PLT
 3149      00
 3150 1158 488D1500 		leaq	.LC18(%rip), %rdx
 3150      000000
 3151 115f 4889EE   		movq	%rbp, %rsi
 3152 1162 4C89E7   		movq	%r12, %rdi
 3153 1165 E8000000 		call	_ZN8UnitTest11TestResults13OnTestFailureERKNS_11TestDetailsEPKc@PLT
 3153      00
 3154              	.LEHE98:
 3155              	.L245:
 3156 116a 4889DF   		movq	%rbx, %rdi
 3157              	.LEHB99:
 3158 116d E8000000 		call	_ZNSi5tellgEv@PLT
 3158      00
 3159              	.LEHE99:
 3160 1172 4989C4   		movq	%rax, %r12
 3161              	.LEHB100:
 3162 1175 E8000000 		call	_ZN8UnitTest11CurrentTest7DetailsEv@PLT
 3162      00
 3163 117a 488B30   		movq	(%rax), %rsi
 3164 117d BA480000 		movl	$72, %edx
 3164      00
 3165 1182 4889EF   		movq	%rbp, %rdi
 3166 1185 E8000000 		call	_ZN8UnitTest11TestDetailsC1ERKS0_i@PLT
 3166      00
 3167 118a 4C896424 		movq	%r12, 40(%rsp)
 3167      28
 3168 118f 48C74424 		movq	$19, 32(%rsp)
 3168      20130000 
 3168      00
 3169 1198 E8000000 		call	_ZN8UnitTest11CurrentTest7ResultsEv@PLT
 3169      00
 3170 119d 488B38   		movq	(%rax), %rdi
 3171 11a0 488D5424 		leaq	40(%rsp), %rdx
 3171      28
 3172 11a5 488D7424 		leaq	32(%rsp), %rsi
 3172      20
 3173 11aa 4889E9   		movq	%rbp, %rcx
 3174 11ad E8000000 		call	_ZN8UnitTest10CheckEqualImmEEvRNS_11TestResultsERKT_RKT0_RKNS_11TestDetailsE
 3174      00
 3175              	.LEHE100:
 3176              	.L282:
 3177 11b2 4489E7   		movl	%r12d, %edi
 3178              	.LEHB101:
 3179 11b5 E8000000 		call	_Znam@PLT
 3179      00
 3180 11ba 31D2     		xorl	%edx, %edx
 3181 11bc 31F6     		xorl	%esi, %esi
 3182 11be 4889DF   		movq	%rbx, %rdi
 3183 11c1 48894424 		movq	%rax, 32(%rsp)
 3183      20
 3184 11c6 E8000000 		call	_ZNSi5seekgElSt12_Ios_Seekdir@PLT
 3184      00
 3185 11cb 488B7424 		movq	32(%rsp), %rsi
 3185      20
 3186 11d0 4C89E2   		movq	%r12, %rdx
 3187 11d3 4889DF   		movq	%rbx, %rdi
 3188 11d6 E8000000 		call	_ZNSi4readEPcl@PLT
 3188      00
 3189 11db 488D7B10 		leaq	16(%rbx), %rdi
 3190 11df E8000000 		call	_ZNSt13basic_filebufIcSt11char_traitsIcEE5closeEv@PLT
 3190      00
 3191              	.LEHE101:
 3192 11e4 4885C0   		testq	%rax, %rax
 3193 11e7 0F840305 		je	.L246
 3193      0000
 3194              	.L248:
 3195              	.LEHB102:
 3196 11ed E8000000 		call	_ZN8UnitTest11CurrentTest7DetailsEv@PLT
 3196      00
 3197 11f2 488B30   		movq	(%rax), %rsi
 3198 11f5 BA4D0000 		movl	$77, %edx
 3198      00
 3199 11fa 4889EF   		movq	%rbp, %rdi
 3200 11fd E8000000 		call	_ZN8UnitTest11TestDetailsC1ERKS0_i@PLT
 3200      00
 3201 1202 E8000000 		call	_ZN8UnitTest11CurrentTest7ResultsEv@PLT
 3201      00
 3202 1207 488B38   		movq	(%rax), %rdi
 3203 120a 488D5424 		leaq	32(%rsp), %rdx
 3203      20
 3204 120f 488D7424 		leaq	24(%rsp), %rsi
 3204      18
 3205 1214 4989E8   		movq	%rbp, %r8
 3206 1217 4489E1   		movl	%r12d, %ecx
 3207 121a E8000000 		call	_ZN8UnitTest15CheckArrayEqualIPKcPcEEvRNS_11TestResultsERKT_RKT0_iRKNS_11TestDetailsE
 3207      00
 3208              	.LEHE102:
 3209              	.L285:
 3210 121f 488D3500 		leaq	.LC12(%rip), %rsi
 3210      000000
 3211 1226 4531C0   		xorl	%r8d, %r8d
 3212 1229 B9090000 		movl	$9, %ecx
 3212      00
 3213 122e BA050000 		movl	$5, %edx
 3213      00
 3214 1233 4C89F7   		movq	%r14, %rdi
 3215              	.LEHB103:
 3216 1236 E8000000 		call	bufWriteBinaryFile@PLT
 3216      00
 3217              	.LEHE103:
 3218 123b 89442414 		movl	%eax, 20(%rsp)
 3219              	.LEHB104:
 3220 123f E8000000 		call	_ZN8UnitTest11CurrentTest7DetailsEv@PLT
 3220      00
 3221 1244 488B30   		movq	(%rax), %rsi
 3222 1247 BA500000 		movl	$80, %edx
 3222      00
 3223 124c 4889EF   		movq	%rbp, %rdi
 3224 124f E8000000 		call	_ZN8UnitTest11TestDetailsC1ERKS0_i@PLT
 3224      00
 3225 1254 C7442428 		movl	$0, 40(%rsp)
 3225      00000000 
 3226 125c E8000000 		call	_ZN8UnitTest11CurrentTest7ResultsEv@PLT
 3226      00
 3227 1261 488B38   		movq	(%rax), %rdi
 3228 1264 488D5424 		leaq	20(%rsp), %rdx
 3228      14
 3229 1269 488D7424 		leaq	40(%rsp), %rsi
 3229      28
 3230 126e 4889E9   		movq	%rbp, %rcx
 3231 1271 E8000000 		call	_ZN8UnitTest10CheckEqualI12BufferStatusS1_EEvRNS_11TestResultsERKT_RKT0_RKNS_11TestDetailsE
 3231      00
 3232              	.LEHE104:
 3233              	.L288:
 3234 1276 488D7B10 		leaq	16(%rbx), %rdi
 3235 127a 488D3500 		leaq	.LC12(%rip), %rsi
 3235      000000
 3236 1281 BA0E0000 		movl	$14, %edx
 3236      00
 3237              	.LEHB105:
 3238 1286 E8000000 		call	_ZNSt13basic_filebufIcSt11char_traitsIcEE4openEPKcSt13_Ios_Openmode@PLT
 3238      00
 3239 128b 488B9424 		movq	528(%rsp), %rdx
 3239      10020000 
 3240 1293 488B7AE8 		movq	-24(%rdx), %rdi
 3241 1297 4801DF   		addq	%rbx, %rdi
 3242 129a 4885C0   		testq	%rax, %rax
 3243 129d 0F842504 		je	.L343
 3243      0000
 3244 12a3 31F6     		xorl	%esi, %esi
 3245 12a5 E8000000 		call	_ZNSt9basic_iosIcSt11char_traitsIcEE5clearESt12_Ios_Iostate@PLT
 3245      00
 3246              	.LEHE105:
 3247              	.L252:
 3248 12aa 488D7B78 		leaq	120(%rbx), %rdi
 3249 12ae E8000000 		call	_ZNKSt12__basic_fileIcE7is_openEv@PLT
 3249      00
 3250 12b3 84C0     		testb	%al, %al
 3251 12b5 752F     		jne	.L253
 3252              	.LEHB106:
 3253 12b7 E8000000 		call	_ZN8UnitTest11CurrentTest7ResultsEv@PLT
 3253      00
 3254 12bc 4C8B20   		movq	(%rax), %r12
 3255 12bf E8000000 		call	_ZN8UnitTest11CurrentTest7DetailsEv@PLT
 3255      00
 3256 12c4 488B30   		movq	(%rax), %rsi
 3257 12c7 BA520000 		movl	$82, %edx
 3257      00
 3258 12cc 4889EF   		movq	%rbp, %rdi
 3259 12cf E8000000 		call	_ZN8UnitTest11TestDetailsC1ERKS0_i@PLT
 3259      00
 3260 12d4 488D1500 		leaq	.LC18(%rip), %rdx
 3260      000000
 3261 12db 4889EE   		movq	%rbp, %rsi
 3262 12de 4C89E7   		movq	%r12, %rdi
 3263 12e1 E8000000 		call	_ZN8UnitTest11TestResults13OnTestFailureERKNS_11TestDetailsEPKc@PLT
 3263      00
 3264              	.LEHE106:
 3265              	.L253:
 3266 12e6 4889DF   		movq	%rbx, %rdi
 3267              	.LEHB107:
 3268 12e9 E8000000 		call	_ZNSi5tellgEv@PLT
 3268      00
 3269              	.LEHE107:
 3270 12ee 4989C7   		movq	%rax, %r15
 3271              	.LEHB108:
 3272 12f1 E8000000 		call	_ZN8UnitTest11CurrentTest7DetailsEv@PLT
 3272      00
 3273 12f6 488B30   		movq	(%rax), %rsi
 3274 12f9 BA540000 		movl	$84, %edx
 3274      00
 3275 12fe 4889EF   		movq	%rbp, %rdi
 3276 1301 E8000000 		call	_ZN8UnitTest11TestDetailsC1ERKS0_i@PLT
 3276      00
 3277 1306 E8000000 		call	_ZN8UnitTest11CurrentTest7ResultsEv@PLT
 3277      00
 3278              	.LEHE108:
 3279 130b 4983FF09 		cmpq	$9, %r15
 3280 130f 0F847002 		je	.L292
 3280      0000
 3281 1315 488B00   		movq	(%rax), %rax
 3282 1318 4C8D6424 		leaq	112(%rsp), %r12
 3282      70
 3283 131d 48890424 		movq	%rax, (%rsp)
 3284 1321 498D8424 		leaq	144(%r12), %rax
 3284      90000000 
 3285 1329 4889C7   		movq	%rax, %rdi
 3286 132c 48894424 		movq	%rax, 8(%rsp)
 3286      08
 3287 1331 E8000000 		call	_ZNSt8ios_baseC2Ev@PLT
 3287      00
 3288 1336 488D0500 		leaq	24+_ZTCN8UnitTest15MemoryOutStreamE0_So(%rip), %rax
 3288      000000
 3289 133d 31F6     		xorl	%esi, %esi
 3290 133f 48C78424 		movq	$0, 472(%rsp)
 3290      D8010000 
 3290      00000000 
 3291 134b C68424E0 		movb	$0, 480(%rsp)
 3291      01000000 
 3292 1353 C68424E1 		movb	$0, 481(%rsp)
 3292      01000000 
 3293 135b 48894424 		movq	%rax, 112(%rsp)
 3293      70
 3294 1360 4883C028 		addq	$40, %rax
 3295 1364 48C78424 		movq	$0, 488(%rsp)
 3295      E8010000 
 3295      00000000 
 3296 1370 48898424 		movq	%rax, 256(%rsp)
 3296      00010000 
 3297 1378 488B4424 		movq	8(%rsp), %rax
 3297      08
 3298 137d 48C78424 		movq	$0, 496(%rsp)
 3298      F0010000 
 3298      00000000 
 3299 1389 48C78424 		movq	$0, 504(%rsp)
 3299      F8010000 
 3299      00000000 
 3300 1395 48C78424 		movq	$0, 512(%rsp)
 3300      00020000 
 3300      00000000 
 3301 13a1 4889C7   		movq	%rax, %rdi
 3302              	.LEHB109:
 3303 13a4 E8000000 		call	_ZNSt9basic_iosIcSt11char_traitsIcEE4initEPSt15basic_streambufIcS1_E@PLT
 3303      00
 3304              	.LEHE109:
 3305 13a9 488D0500 		leaq	24+_ZTCN8UnitTest15MemoryOutStreamE0_NSt7__cxx1119basic_ostringstreamIcSt11char_traitsIcESaIc
 3305      000000
 3306 13b0 660FEFC0 		pxor	%xmm0, %xmm0
 3307 13b4 498D7C24 		leaq	64(%r12), %rdi
 3307      40
 3308 13b9 48894424 		movq	%rax, 112(%rsp)
 3308      70
 3309 13be 4883C028 		addq	$40, %rax
 3310 13c2 48898424 		movq	%rax, 256(%rsp)
 3310      00010000 
 3311 13ca 488D0500 		leaq	16+_ZTVSt15basic_streambufIcSt11char_traitsIcEE(%rip), %rax
 3311      000000
 3312 13d1 0F298424 		movaps	%xmm0, 128(%rsp)
 3312      80000000 
 3313 13d9 48894424 		movq	%rax, 120(%rsp)
 3313      78
 3314 13de 0F298424 		movaps	%xmm0, 144(%rsp)
 3314      90000000 
 3315 13e6 0F298424 		movaps	%xmm0, 160(%rsp)
 3315      A0000000 
 3316 13ee E8000000 		call	_ZNSt6localeC1Ev@PLT
 3316      00
 3317 13f3 488D0500 		leaq	16+_ZTVNSt7__cxx1115basic_stringbufIcSt11char_traitsIcESaIcEEE(%rip), %rax
 3317      000000
 3318 13fa 498D7424 		leaq	8(%r12), %rsi
 3318      08
 3319 13ff 48894424 		movq	%rax, 120(%rsp)
 3319      78
 3320 1404 498D4424 		leaq	96(%r12), %rax
 3320      60
 3321 1409 C78424B8 		movl	$16, 184(%rsp)
 3321      00000010 
 3321      000000
 3322 1414 48C78424 		movq	$0, 200(%rsp)
 3322      C8000000 
 3322      00000000 
 3323 1420 C68424D0 		movb	$0, 208(%rsp)
 3323      00000000 
 3324 1428 48898424 		movq	%rax, 192(%rsp)
 3324      C0000000 
 3325 1430 488B4424 		movq	112(%rsp), %rax
 3325      70
 3326 1435 488B78E8 		movq	-24(%rax), %rdi
 3327 1439 4C01E7   		addq	%r12, %rdi
 3328              	.LEHB110:
 3329 143c E8000000 		call	_ZNSt9basic_iosIcSt11char_traitsIcEE4initEPSt15basic_streambufIcS1_E@PLT
 3329      00
 3330              	.LEHE110:
 3331 1441 488D0500 		leaq	24+_ZTVN8UnitTest15MemoryOutStreamE(%rip), %rax
 3331      000000
 3332 1448 488D3500 		leaq	.LC0(%rip), %rsi
 3332      000000
 3333 144f BA090000 		movl	$9, %edx
 3333      00
 3334 1454 4C89E7   		movq	%r12, %rdi
 3335 1457 48C78424 		movq	$0, 232(%rsp)
 3335      E8000000 
 3335      00000000 
 3336 1463 C68424F0 		movb	$0, 240(%rsp)
 3336      00000000 
 3337 146b 48894424 		movq	%rax, 112(%rsp)
 3337      70
 3338 1470 4883C028 		addq	$40, %rax
 3339 1474 48898424 		movq	%rax, 256(%rsp)
 3339      00010000 
 3340 147c 498D8424 		leaq	128(%r12), %rax
 3340      80000000 
 3341 1484 48898424 		movq	%rax, 224(%rsp)
 3341      E0000000 
 3342              	.LEHB111:
 3343 148c E8000000 		call	_ZSt16__ostream_insertIcSt11char_traitsIcEERSt13basic_ostreamIT_T0_ES6_PKS3_l@PLT
 3343      00
 3344 1491 BE090000 		movl	$9, %esi
 3344      00
 3345 1496 4C89E7   		movq	%r12, %rdi
 3346 1499 E8000000 		call	_ZNSolsEi@PLT
 3346      00
 3347 149e 488D3500 		leaq	.LC1(%rip), %rsi
 3347      000000
 3348 14a5 BA090000 		movl	$9, %edx
 3348      00
 3349 14aa 4889C7   		movq	%rax, %rdi
 3350 14ad 48894424 		movq	%rax, 8(%rsp)
 3350      08
 3351 14b2 E8000000 		call	_ZSt16__ostream_insertIcSt11char_traitsIcEERSt13basic_ostreamIT_T0_ES6_PKS3_l@PLT
 3351      00
 3352 14b7 488B7C24 		movq	8(%rsp), %rdi
 3352      08
 3353 14bc 4C89FE   		movq	%r15, %rsi
 3354 14bf E8000000 		call	_ZNSo9_M_insertIlEERSoT_@PLT
 3354      00
 3355 14c4 4C89E7   		movq	%r12, %rdi
 3356 14c7 E8000000 		call	_ZNK8UnitTest15MemoryOutStream7GetTextEv@PLT
 3356      00
 3357 14cc 488B3C24 		movq	(%rsp), %rdi
 3358 14d0 4889C2   		movq	%rax, %rdx
 3359 14d3 4889EE   		movq	%rbp, %rsi
 3360 14d6 E8000000 		call	_ZN8UnitTest11TestResults13OnTestFailureERKNS_11TestDetailsEPKc@PLT
 3360      00
 3361              	.LEHE111:
 3362 14db 488D0500 		leaq	24+_ZTVN8UnitTest15MemoryOutStreamE(%rip), %rax
 3362      000000
 3363 14e2 488BBC24 		movq	224(%rsp), %rdi
 3363      E0000000 
 3364 14ea 48894424 		movq	%rax, 112(%rsp)
 3364      70
 3365 14ef 4883C028 		addq	$40, %rax
 3366 14f3 48898424 		movq	%rax, 256(%rsp)
 3366      00010000 
 3367 14fb 498D8424 		leaq	128(%r12), %rax
 3367      80000000 
 3368 1503 4839C7   		cmpq	%rax, %rdi
 3369 1506 7405     		je	.L260
 3370 1508 E8000000 		call	_ZdlPv@PLT
 3370      00
 3371              	.L260:
 3372 150d 488D0500 		leaq	64+_ZTCN8UnitTest15MemoryOutStreamE0_NSt7__cxx1119basic_ostringstreamIcSt11char_traitsIcESaIc
 3372      000000
 3373 1514 488BBC24 		movq	192(%rsp), %rdi
 3373      C0000000 
 3374 151c F30F7E05 		movq	.LC2(%rip), %xmm0
 3374      00000000 
 3375 1524 48898424 		movq	%rax, 256(%rsp)
 3375      00010000 
 3376 152c 498D4424 		leaq	96(%r12), %rax
 3376      60
 3377 1531 0F160500 		movhps	.LC3(%rip), %xmm0
 3377      000000
 3378 1538 4839C7   		cmpq	%rax, %rdi
 3379 153b 0F294424 		movaps	%xmm0, 112(%rsp)
 3379      70
 3380 1540 7405     		je	.L261
 3381 1542 E8000000 		call	_ZdlPv@PLT
 3381      00
 3382              	.L261:
 3383 1547 488D0500 		leaq	16+_ZTVSt15basic_streambufIcSt11char_traitsIcEE(%rip), %rax
 3383      000000
 3384 154e 498D7C24 		leaq	64(%r12), %rdi
 3384      40
 3385 1553 48894424 		movq	%rax, 120(%rsp)
 3385      78
 3386 1558 E8000000 		call	_ZNSt6localeD1Ev@PLT
 3386      00
 3387 155d 488D0500 		leaq	24+_ZTCN8UnitTest15MemoryOutStreamE0_So(%rip), %rax
 3387      000000
 3388 1564 498DBC24 		leaq	144(%r12), %rdi
 3388      90000000 
 3389 156c 48894424 		movq	%rax, 112(%rsp)
 3389      70
 3390 1571 488D0500 		leaq	16+_ZTVSt9basic_iosIcSt11char_traitsIcEE(%rip), %rax
 3390      000000
 3391 1578 48898424 		movq	%rax, 256(%rsp)
 3391      00010000 
 3392              	.LEHB112:
 3393 1580 E8000000 		call	_ZNSt8ios_baseD2Ev@PLT
 3393      00
 3394              	.LEHE112:
 3395              	.L292:
 3396 1585 31D2     		xorl	%edx, %edx
 3397 1587 31F6     		xorl	%esi, %esi
 3398 1589 4889DF   		movq	%rbx, %rdi
 3399              	.LEHB113:
 3400 158c E8000000 		call	_ZNSi5seekgElSt12_Ios_Seekdir@PLT
 3400      00
 3401 1591 488B7424 		movq	32(%rsp), %rsi
 3401      20
 3402 1596 4C89FA   		movq	%r15, %rdx
 3403 1599 4889DF   		movq	%rbx, %rdi
 3404 159c E8000000 		call	_ZNSi4readEPcl@PLT
 3404      00
 3405 15a1 488D7B10 		leaq	16(%rbx), %rdi
 3406 15a5 E8000000 		call	_ZNSt13basic_filebufIcSt11char_traitsIcEE5closeEv@PLT
 3406      00
 3407              	.LEHE113:
 3408 15aa 4885C0   		testq	%rax, %rax
 3409 15ad 0F845D01 		je	.L263
 3409      0000
 3410              	.L265:
 3411              	.LEHB114:
 3412 15b3 E8000000 		call	_ZN8UnitTest11CurrentTest7DetailsEv@PLT
 3412      00
 3413 15b8 488B30   		movq	(%rax), %rsi
 3414 15bb BA580000 		movl	$88, %edx
 3414      00
 3415 15c0 4889EF   		movq	%rbp, %rdi
 3416 15c3 E8000000 		call	_ZN8UnitTest11TestDetailsC1ERKS0_i@PLT
 3416      00
 3417 15c8 488D0500 		leaq	5+.LC11(%rip), %rax
 3417      000000
 3418 15cf 48894424 		movq	%rax, 40(%rsp)
 3418      28
 3419 15d4 E8000000 		call	_ZN8UnitTest11CurrentTest7ResultsEv@PLT
 3419      00
 3420 15d9 488B38   		movq	(%rax), %rdi
 3421 15dc 488D5424 		leaq	32(%rsp), %rdx
 3421      20
 3422 15e1 488D7424 		leaq	40(%rsp), %rsi
 3422      28
 3423 15e6 4989E8   		movq	%rbp, %r8
 3424 15e9 4489F9   		movl	%r15d, %ecx
 3425 15ec E8000000 		call	_ZN8UnitTest15CheckArrayEqualIPKcPcEEvRNS_11TestResultsERKT_RKT0_iRKNS_11TestDetailsE
 3425      00
 3426              	.LEHE114:
 3427              	.L295:
 3428 15f1 488B7C24 		movq	32(%rsp), %rdi
 3428      20
 3429 15f6 4885FF   		testq	%rdi, %rdi
 3430 15f9 7405     		je	.L266
 3431 15fb E8000000 		call	_ZdaPv@PLT
 3431      00
 3432              	.L266:
 3433 1600 4C89F7   		movq	%r14, %rdi
 3434              	.LEHB115:
 3435 1603 E8000000 		call	bufDestroy@PLT
 3435      00
 3436              	.LEHE115:
 3437 1608 488D0500 		leaq	24+_ZTVSt14basic_ifstreamIcSt11char_traitsIcEE(%rip), %rax
 3437      000000
 3438 160f 488D7B10 		leaq	16(%rbx), %rdi
 3439 1613 48898424 		movq	%rax, 528(%rsp)
 3439      10020000 
 3440 161b 4883C028 		addq	$40, %rax
 3441 161f 48898424 		movq	%rax, 784(%rsp)
 3441      10030000 
 3442 1627 488D0500 		leaq	16+_ZTVSt13basic_filebufIcSt11char_traitsIcEE(%rip), %rax
 3442      000000
 3443 162e 48898424 		movq	%rax, 544(%rsp)
 3443      20020000 
 3444              	.LEHB116:
 3445 1636 E8000000 		call	_ZNSt13basic_filebufIcSt11char_traitsIcEE5closeEv@PLT
 3445      00
 3446              	.LEHE116:
 3447 163b 488D7B78 		leaq	120(%rbx), %rdi
 3448              	.LEHB117:
 3449 163f E8000000 		call	_ZNSt12__basic_fileIcED1Ev@PLT
 3449      00
 3450              	.LEHE117:
 3451 1644 488D0500 		leaq	16+_ZTVSt15basic_streambufIcSt11char_traitsIcEE(%rip), %rax
 3451      000000
 3452 164b 488D7B48 		leaq	72(%rbx), %rdi
 3453 164f 48898424 		movq	%rax, 544(%rsp)
 3453      20020000 
 3454 1657 E8000000 		call	_ZNSt6localeD1Ev@PLT
 3454      00
 3455 165c 498B45E8 		movq	-24(%r13), %rax
 3456 1660 488B0D00 		movq	16+_ZTTSt14basic_ifstreamIcSt11char_traitsIcEE(%rip), %rcx
 3456      000000
 3457 1667 488DBB00 		leaq	256(%rbx), %rdi
 3457      010000
 3458 166e 4C89AC24 		movq	%r13, 528(%rsp)
 3458      10020000 
 3459 1676 48898C04 		movq	%rcx, 528(%rsp,%rax)
 3459      10020000 
 3460 167e 488D0500 		leaq	16+_ZTVSt9basic_iosIcSt11char_traitsIcEE(%rip), %rax
 3460      000000
 3461 1685 48C78424 		movq	$0, 536(%rsp)
 3461      18020000 
 3461      00000000 
 3462 1691 48898424 		movq	%rax, 784(%rsp)
 3462      10030000 
 3463              	.LEHB118:
 3464 1699 E8000000 		call	_ZNSt8ios_baseD2Ev@PLT
 3464      00
 3465              	.LEHE118:
 3466 169e 488B8424 		movq	1048(%rsp), %rax
 3466      18040000 
 3467 16a6 64483304 		xorq	%fs:40, %rax
 3467      25280000 
 3467      00
 3468 16af 757E     		jne	.L344
 3469 16b1 4881C428 		addq	$1064, %rsp
 3469      040000
 3470              		.cfi_remember_state
 3471              		.cfi_def_cfa_offset 56
 3472 16b8 5B       		popq	%rbx
 3473              		.cfi_def_cfa_offset 48
 3474 16b9 5D       		popq	%rbp
 3475              		.cfi_def_cfa_offset 40
 3476 16ba 415C     		popq	%r12
 3477              		.cfi_def_cfa_offset 32
 3478 16bc 415D     		popq	%r13
 3479              		.cfi_def_cfa_offset 24
 3480 16be 415E     		popq	%r14
 3481              		.cfi_def_cfa_offset 16
 3482 16c0 415F     		popq	%r15
 3483              		.cfi_def_cfa_offset 8
 3484 16c2 C3       		ret
 3485              		.p2align 4,,10
 3486 16c3 0F1F4400 		.p2align 3
 3486      00
 3487              	.L343:
 3488              		.cfi_restore_state
 3489 16c8 8B7720   		movl	32(%rdi), %esi
 3490 16cb 83CE04   		orl	$4, %esi
 3491              	.LEHB119:
 3492 16ce E8000000 		call	_ZNSt9basic_iosIcSt11char_traitsIcEE5clearESt12_Ios_Iostate@PLT
 3492      00
 3493 16d3 E9D2FBFF 		jmp	.L252
 3493      FF
 3494 16d8 0F1F8400 		.p2align 4,,10
 3494      00000000 
 3495              		.p2align 3
 3496              	.L342:
 3497 16e0 8B7720   		movl	32(%rdi), %esi
 3498 16e3 83CE04   		orl	$4, %esi
 3499 16e6 E8000000 		call	_ZNSt9basic_iosIcSt11char_traitsIcEE5clearESt12_Ios_Iostate@PLT
 3499      00
 3500 16eb E93EFAFF 		jmp	.L244
 3500      FF
 3501              		.p2align 4,,10
 3502              		.p2align 3
 3503              	.L246:
 3504 16f0 488B8424 		movq	528(%rsp), %rax
 3504      10020000 
 3505 16f8 488B78E8 		movq	-24(%rax), %rdi
 3506 16fc 4801DF   		addq	%rbx, %rdi
 3507 16ff 8B7720   		movl	32(%rdi), %esi
 3508 1702 83CE04   		orl	$4, %esi
 3509 1705 E8000000 		call	_ZNSt9basic_iosIcSt11char_traitsIcEE5clearESt12_Ios_Iostate@PLT
 3509      00
 3510 170a E9DEFAFF 		jmp	.L248
 3510      FF
 3511 170f 90       		.p2align 4,,10
 3512              		.p2align 3
 3513              	.L263:
 3514 1710 488B8424 		movq	528(%rsp), %rax
 3514      10020000 
 3515 1718 488B78E8 		movq	-24(%rax), %rdi
 3516 171c 4801DF   		addq	%rbx, %rdi
 3517 171f 8B7720   		movl	32(%rdi), %esi
 3518 1722 83CE04   		orl	$4, %esi
 3519 1725 E8000000 		call	_ZNSt9basic_iosIcSt11char_traitsIcEE5clearESt12_Ios_Iostate@PLT
 3519      00
 3520              	.LEHE119:
 3521 172a E984FEFF 		jmp	.L265
 3521      FF
 3522              	.L344:
 3523 172f E8000000 		call	__stack_chk_fail@PLT
 3523      00
 3524              	.L315:
 3525              	.L259:
 3526 1734 4889C7   		movq	%rax, %rdi
 3527 1737 E8000000 		call	__cxa_begin_catch@PLT
 3527      00
 3528              	.LEHB120:
 3529 173c E8000000 		call	_ZN8UnitTest11CurrentTest7ResultsEv@PLT
 3529      00
 3530 1741 4C8B20   		movq	(%rax), %r12
 3531 1744 E8000000 		call	_ZN8UnitTest11CurrentTest7DetailsEv@PLT
 3531      00
 3532 1749 488B30   		movq	(%rax), %rsi
 3533 174c BA540000 		movl	$84, %edx
 3533      00
 3534 1751 4889EF   		movq	%rbp, %rdi
 3535 1754 E8000000 		call	_ZN8UnitTest11TestDetailsC1ERKS0_i@PLT
 3535      00
 3536 1759 488D1500 		leaq	.LC22(%rip), %rdx
 3536      000000
 3537 1760 4889EE   		movq	%rbp, %rsi
 3538 1763 4C89E7   		movq	%r12, %rdi
 3539 1766 E8000000 		call	_ZN8UnitTest11TestResults13OnTestFailureERKNS_11TestDetailsEPKc@PLT
 3539      00
 3540              	.LEHE120:
 3541              	.LEHB121:
 3542 176b E8000000 		call	__cxa_end_catch@PLT
 3542      00
 3543              	.LEHE121:
 3544 1770 E910FEFF 		jmp	.L292
 3544      FF
 3545              	.L307:
 3546 1775 4889C7   		movq	%rax, %rdi
 3547 1778 E8000000 		call	__cxa_begin_catch@PLT
 3547      00
 3548              	.LEHB122:
 3549 177d E8000000 		call	_ZN8UnitTest11CurrentTest7ResultsEv@PLT
 3549      00
 3550 1782 4C8B38   		movq	(%rax), %r15
 3551 1785 E8000000 		call	_ZN8UnitTest11CurrentTest7DetailsEv@PLT
 3551      00
 3552 178a 488B30   		movq	(%rax), %rsi
 3553 178d BA480000 		movl	$72, %edx
 3553      00
 3554 1792 4889EF   		movq	%rbp, %rdi
 3555 1795 E8000000 		call	_ZN8UnitTest11TestDetailsC1ERKS0_i@PLT
 3555      00
 3556 179a 488D1500 		leaq	.LC20(%rip), %rdx
 3556      000000
 3557 17a1 4889EE   		movq	%rbp, %rsi
 3558 17a4 4C89FF   		movq	%r15, %rdi
 3559 17a7 E8000000 		call	_ZN8UnitTest11TestResults13OnTestFailureERKNS_11TestDetailsEPKc@PLT
 3559      00
 3560              	.LEHE122:
 3561              	.LEHB123:
 3562 17ac E8000000 		call	__cxa_end_catch@PLT
 3562      00
 3563              	.LEHE123:
 3564 17b1 E9FCF9FF 		jmp	.L282
 3564      FF
 3565              	.L317:
 3566 17b6 4889C7   		movq	%rax, %rdi
 3567 17b9 E8000000 		call	__cxa_begin_catch@PLT
 3567      00
 3568              	.LEHB124:
 3569 17be E8000000 		call	_ZN8UnitTest11CurrentTest7ResultsEv@PLT
 3569      00
 3570 17c3 4C8B20   		movq	(%rax), %r12
 3571 17c6 E8000000 		call	_ZN8UnitTest11CurrentTest7DetailsEv@PLT
 3571      00
 3572 17cb 488B30   		movq	(%rax), %rsi
 3573 17ce BA580000 		movl	$88, %edx
 3573      00
 3574 17d3 4889EF   		movq	%rbp, %rdi
 3575 17d6 E8000000 		call	_ZN8UnitTest11TestDetailsC1ERKS0_i@PLT
 3575      00
 3576 17db 488D1500 		leaq	.LC23(%rip), %rdx
 3576      000000
 3577 17e2 4889EE   		movq	%rbp, %rsi
 3578 17e5 4C89E7   		movq	%r12, %rdi
 3579 17e8 E8000000 		call	_ZN8UnitTest11TestResults13OnTestFailureERKNS_11TestDetailsEPKc@PLT
 3579      00
 3580              	.LEHE124:
 3581              	.LEHB125:
 3582 17ed E8000000 		call	__cxa_end_catch@PLT
 3582      00
 3583              	.LEHE125:
 3584 17f2 E9FAFDFF 		jmp	.L295
 3584      FF
 3585              	.L316:
 3586 17f7 4889C5   		movq	%rax, %rbp
 3587 17fa E8000000 		call	__cxa_end_catch@PLT
 3587      00
 3588              	.L272:
 3589 17ff 4889DF   		movq	%rbx, %rdi
 3590 1802 E8000000 		call	_ZNSt14basic_ifstreamIcSt11char_traitsIcEED1Ev@PLT
 3590      00
 3591 1807 4889EF   		movq	%rbp, %rdi
 3592              	.LEHB126:
 3593 180a E8000000 		call	_Unwind_Resume@PLT
 3593      00
 3594              	.LEHE126:
 3595              	.L308:
 3596 180f 4889C5   		movq	%rax, %rbp
 3597 1812 E8000000 		call	__cxa_end_catch@PLT
 3597      00
 3598 1817 EBE6     		jmp	.L272
 3599              	.L318:
 3600 1819 4889C5   		movq	%rax, %rbp
 3601 181c E8000000 		call	__cxa_end_catch@PLT
 3601      00
 3602 1821 EBDC     		jmp	.L272
 3603              	.L325:
 3604 1823 4889C5   		movq	%rax, %rbp
 3605              	.L268:
 3606 1826 488D0500 		leaq	16+_ZTVSt15basic_streambufIcSt11char_traitsIcEE(%rip), %rax
 3606      000000
 3607 182d 488D7B48 		leaq	72(%rbx), %rdi
 3608 1831 48898424 		movq	%rax, 544(%rsp)
 3608      20020000 
 3609 1839 E8000000 		call	_ZNSt6localeD1Ev@PLT
 3609      00
 3610 183e 498B45E8 		movq	-24(%r13), %rax
 3611 1842 488B0D00 		movq	16+_ZTTSt14basic_ifstreamIcSt11char_traitsIcEE(%rip), %rcx
 3611      000000
 3612 1849 488DBB00 		leaq	256(%rbx), %rdi
 3612      010000
 3613 1850 4C89AC24 		movq	%r13, 528(%rsp)
 3613      10020000 
 3614 1858 48898C04 		movq	%rcx, 528(%rsp,%rax)
 3614      10020000 
 3615 1860 488D0500 		leaq	16+_ZTVSt9basic_iosIcSt11char_traitsIcEE(%rip), %rax
 3615      000000
 3616 1867 48C78424 		movq	$0, 536(%rsp)
 3616      18020000 
 3616      00000000 
 3617 1873 48898424 		movq	%rax, 784(%rsp)
 3617      10030000 
 3618 187b E8000000 		call	_ZNSt8ios_baseD2Ev@PLT
 3618      00
 3619 1880 4889EF   		movq	%rbp, %rdi
 3620              	.LEHB127:
 3621 1883 E8000000 		call	_Unwind_Resume@PLT
 3621      00
 3622              	.LEHE127:
 3623              	.L326:
 3624 1888 488D7B78 		leaq	120(%rbx), %rdi
 3625 188c 4889C5   		movq	%rax, %rbp
 3626 188f E8000000 		call	_ZNSt12__basic_fileIcED1Ev@PLT
 3626      00
 3627 1894 EB90     		jmp	.L268
 3628              	.L311:
 3629 1896 4889C7   		movq	%rax, %rdi
 3630 1899 E8000000 		call	__cxa_begin_catch@PLT
 3630      00
 3631              	.LEHB128:
 3632 189e E8000000 		call	_ZN8UnitTest11CurrentTest7ResultsEv@PLT
 3632      00
 3633 18a3 4C8B20   		movq	(%rax), %r12
 3634 18a6 E8000000 		call	_ZN8UnitTest11CurrentTest7DetailsEv@PLT
 3634      00
 3635 18ab 488B30   		movq	(%rax), %rsi
 3636 18ae BA500000 		movl	$80, %edx
 3636      00
 3637 18b3 4889EF   		movq	%rbp, %rdi
 3638 18b6 E8000000 		call	_ZN8UnitTest11TestDetailsC1ERKS0_i@PLT
 3638      00
 3639 18bb 488D1500 		leaq	.LC5(%rip), %rdx
 3639      000000
 3640 18c2 4889EE   		movq	%rbp, %rsi
 3641 18c5 4C89E7   		movq	%r12, %rdi
 3642 18c8 E8000000 		call	_ZN8UnitTest11TestResults13OnTestFailureERKNS_11TestDetailsEPKc@PLT
 3642      00
 3643              	.LEHE128:
 3644              	.LEHB129:
 3645 18cd E8000000 		call	__cxa_end_catch@PLT
 3645      00
 3646              	.LEHE129:
 3647 18d2 E99FF9FF 		jmp	.L288
 3647      FF
 3648              	.L309:
 3649 18d7 4889C7   		movq	%rax, %rdi
 3650 18da E8000000 		call	__cxa_begin_catch@PLT
 3650      00
 3651              	.LEHB130:
 3652 18df E8000000 		call	_ZN8UnitTest11CurrentTest7ResultsEv@PLT
 3652      00
 3653 18e4 4C8B20   		movq	(%rax), %r12
 3654 18e7 E8000000 		call	_ZN8UnitTest11CurrentTest7DetailsEv@PLT
 3654      00
 3655 18ec 488B30   		movq	(%rax), %rsi
 3656 18ef BA4D0000 		movl	$77, %edx
 3656      00
 3657 18f4 4889EF   		movq	%rbp, %rdi
 3658 18f7 E8000000 		call	_ZN8UnitTest11TestDetailsC1ERKS0_i@PLT
 3658      00
 3659 18fc 488D1500 		leaq	.LC21(%rip), %rdx
 3659      000000
 3660 1903 4889EE   		movq	%rbp, %rsi
 3661 1906 4C89E7   		movq	%r12, %rdi
 3662 1909 E8000000 		call	_ZN8UnitTest11TestResults13OnTestFailureERKNS_11TestDetailsEPKc@PLT
 3662      00
 3663              	.LEHE130:
 3664              	.LEHB131:
 3665 190e E8000000 		call	__cxa_end_catch@PLT
 3665      00
 3666              	.LEHE131:
 3667 1913 E907F9FF 		jmp	.L285
 3667      FF
 3668              	.L312:
 3669 1918 4889C5   		movq	%rax, %rbp
 3670 191b E8000000 		call	__cxa_end_catch@PLT
 3670      00
 3671 1920 E9DAFEFF 		jmp	.L272
 3671      FF
 3672              	.L310:
 3673 1925 4889C5   		movq	%rax, %rbp
 3674 1928 E8000000 		call	__cxa_end_catch@PLT
 3674      00
 3675 192d E9CDFEFF 		jmp	.L272
 3675      FF
 3676              	.L313:
 3677 1932 4889C7   		movq	%rax, %rdi
 3678 1935 E8000000 		call	__cxa_begin_catch@PLT
 3678      00
 3679              	.LEHB132:
 3680 193a E8000000 		call	_ZN8UnitTest11CurrentTest7ResultsEv@PLT
 3680      00
 3681 193f 4C8B20   		movq	(%rax), %r12
 3682 1942 E8000000 		call	_ZN8UnitTest11CurrentTest7DetailsEv@PLT
 3682      00
 3683 1947 488B30   		movq	(%rax), %rsi
 3684 194a BA520000 		movl	$82, %edx
 3684      00
 3685 194f 4889EF   		movq	%rbp, %rdi
 3686 1952 E8000000 		call	_ZN8UnitTest11TestDetailsC1ERKS0_i@PLT
 3686      00
 3687 1957 488D1500 		leaq	.LC19(%rip), %rdx
 3687      000000
 3688 195e 4889EE   		movq	%rbp, %rsi
 3689 1961 4C89E7   		movq	%r12, %rdi
 3690 1964 E8000000 		call	_ZN8UnitTest11TestResults13OnTestFailureERKNS_11TestDetailsEPKc@PLT
 3690      00
 3691              	.LEHE132:
 3692              	.LEHB133:
 3693 1969 E8000000 		call	__cxa_end_catch@PLT
 3693      00
 3694              	.LEHE133:
 3695 196e E973F9FF 		jmp	.L253
 3695      FF
 3696              	.L320:
 3697 1973 4889C5   		movq	%rax, %rbp
 3698              	.L239:
 3699 1976 498B55E8 		movq	-24(%r13), %rdx
 3700 197a 488B0500 		movq	16+_ZTTSt14basic_ifstreamIcSt11char_traitsIcEE(%rip), %rax
 3700      000000
 3701 1981 4C89AC24 		movq	%r13, 528(%rsp)
 3701      10020000 
 3702 1989 48898414 		movq	%rax, 528(%rsp,%rdx)
 3702      10020000 
 3703 1991 48C78424 		movq	$0, 536(%rsp)
 3703      18020000 
 3703      00000000 
 3704              	.L240:
 3705 199d 488D0500 		leaq	16+_ZTVSt9basic_iosIcSt11char_traitsIcEE(%rip), %rax
 3705      000000
 3706 19a4 488DBB00 		leaq	256(%rbx), %rdi
 3706      010000
 3707 19ab 48898424 		movq	%rax, 784(%rsp)
 3707      10030000 
 3708 19b3 E8000000 		call	_ZNSt8ios_baseD2Ev@PLT
 3708      00
 3709 19b8 4889EF   		movq	%rbp, %rdi
 3710              	.LEHB134:
 3711 19bb E8000000 		call	_Unwind_Resume@PLT
 3711      00
 3712              	.LEHE134:
 3713              	.L314:
 3714 19c0 4889C5   		movq	%rax, %rbp
 3715 19c3 E8000000 		call	__cxa_end_catch@PLT
 3715      00
 3716 19c8 E932FEFF 		jmp	.L272
 3716      FF
 3717              	.L322:
 3718 19cd 4C89E7   		movq	%r12, %rdi
 3719 19d0 48890424 		movq	%rax, (%rsp)
 3720 19d4 E8000000 		call	_ZN8UnitTest15MemoryOutStreamD1Ev
 3720      00
 3721 19d9 488B0424 		movq	(%rsp), %rax
 3722 19dd E952FDFF 		jmp	.L259
 3722      FF
 3723              	.L324:
 3724 19e2 498D7C24 		leaq	8(%r12), %rdi
 3724      08
 3725 19e7 48890424 		movq	%rax, (%rsp)
 3726 19eb E8000000 		call	_ZNSt7__cxx1115basic_stringbufIcSt11char_traitsIcESaIcEED1Ev
 3726      00
 3727 19f0 488D0500 		leaq	24+_ZTCN8UnitTest15MemoryOutStreamE0_So(%rip), %rax
 3727      000000
 3728 19f7 48894424 		movq	%rax, 112(%rsp)
 3728      70
 3729 19fc 488B0424 		movq	(%rsp), %rax
 3730              	.L257:
 3731 1a00 48890424 		movq	%rax, (%rsp)
 3732 1a04 498DBC24 		leaq	144(%r12), %rdi
 3732      90000000 
 3733 1a0c 488D0500 		leaq	16+_ZTVSt9basic_iosIcSt11char_traitsIcEE(%rip), %rax
 3733      000000
 3734 1a13 48898424 		movq	%rax, 256(%rsp)
 3734      00010000 
 3735 1a1b E8000000 		call	_ZNSt8ios_baseD2Ev@PLT
 3735      00
 3736 1a20 488B0424 		movq	(%rsp), %rax
 3737 1a24 E90BFDFF 		jmp	.L259
 3737      FF
 3738              	.L323:
 3739 1a29 EBD5     		jmp	.L257
 3740              	.L305:
 3741 1a2b 4889C7   		movq	%rax, %rdi
 3742 1a2e E8000000 		call	__cxa_begin_catch@PLT
 3742      00
 3743              	.LEHB135:
 3744 1a33 E8000000 		call	_ZN8UnitTest11CurrentTest7ResultsEv@PLT
 3744      00
 3745 1a38 4C8B20   		movq	(%rax), %r12
 3746 1a3b E8000000 		call	_ZN8UnitTest11CurrentTest7DetailsEv@PLT
 3746      00
 3747 1a40 488B30   		movq	(%rax), %rsi
 3748 1a43 BA460000 		movl	$70, %edx
 3748      00
 3749 1a48 4889EF   		movq	%rbp, %rdi
 3750 1a4b E8000000 		call	_ZN8UnitTest11TestDetailsC1ERKS0_i@PLT
 3750      00
 3751 1a50 488D1500 		leaq	.LC19(%rip), %rdx
 3751      000000
 3752 1a57 4889EE   		movq	%rbp, %rsi
 3753 1a5a 4C89E7   		movq	%r12, %rdi
 3754 1a5d E8000000 		call	_ZN8UnitTest11TestResults13OnTestFailureERKNS_11TestDetailsEPKc@PLT
 3754      00
 3755              	.LEHE135:
 3756              	.LEHB136:
 3757 1a62 E8000000 		call	__cxa_end_catch@PLT
 3757      00
 3758              	.LEHE136:
 3759 1a67 E9FEF6FF 		jmp	.L245
 3759      FF
 3760              	.L303:
 3761 1a6c 4889C7   		movq	%rax, %rdi
 3762 1a6f E8000000 		call	__cxa_begin_catch@PLT
 3762      00
 3763              	.LEHB137:
 3764 1a74 E8000000 		call	_ZN8UnitTest11CurrentTest7ResultsEv@PLT
 3764      00
 3765 1a79 4C8B20   		movq	(%rax), %r12
 3766 1a7c E8000000 		call	_ZN8UnitTest11CurrentTest7DetailsEv@PLT
 3766      00
 3767 1a81 488B30   		movq	(%rax), %rsi
 3768 1a84 BA440000 		movl	$68, %edx
 3768      00
 3769 1a89 4889EF   		movq	%rbp, %rdi
 3770 1a8c E8000000 		call	_ZN8UnitTest11TestDetailsC1ERKS0_i@PLT
 3770      00
 3771 1a91 488D1500 		leaq	.LC5(%rip), %rdx
 3771      000000
 3772 1a98 4889EE   		movq	%rbp, %rsi
 3773 1a9b 4C89E7   		movq	%r12, %rdi
 3774 1a9e E8000000 		call	_ZN8UnitTest11TestResults13OnTestFailureERKNS_11TestDetailsEPKc@PLT
 3774      00
 3775              	.LEHE137:
 3776              	.LEHB138:
 3777 1aa3 E8000000 		call	__cxa_end_catch@PLT
 3777      00
 3778              	.LEHE138:
 3779 1aa8 E94DF6FF 		jmp	.L277
 3779      FF
 3780              	.L301:
 3781 1aad 4889C7   		movq	%rax, %rdi
 3782 1ab0 E8000000 		call	__cxa_begin_catch@PLT
 3782      00
 3783              	.LEHB139:
 3784 1ab5 E8000000 		call	_ZN8UnitTest11CurrentTest7ResultsEv@PLT
 3784      00
 3785 1aba 4C8B20   		movq	(%rax), %r12
 3786 1abd E8000000 		call	_ZN8UnitTest11CurrentTest7DetailsEv@PLT
 3786      00
 3787 1ac2 488B30   		movq	(%rax), %rsi
 3788 1ac5 BA410000 		movl	$65, %edx
 3788      00
 3789 1aca 4889EF   		movq	%rbp, %rdi
 3790 1acd E8000000 		call	_ZN8UnitTest11TestDetailsC1ERKS0_i@PLT
 3790      00
 3791 1ad2 488D1500 		leaq	.LC5(%rip), %rdx
 3791      000000
 3792 1ad9 4889EE   		movq	%rbp, %rsi
 3793 1adc 4C89E7   		movq	%r12, %rdi
 3794 1adf E8000000 		call	_ZN8UnitTest11TestResults13OnTestFailureERKNS_11TestDetailsEPKc@PLT
 3794      00
 3795              	.LEHE139:
 3796              	.LEHB140:
 3797 1ae4 E8000000 		call	__cxa_end_catch@PLT
 3797      00
 3798              	.LEHE140:
 3799 1ae9 E9B8F5FF 		jmp	.L274
 3799      FF
 3800              	.L306:
 3801 1aee 4889C5   		movq	%rax, %rbp
 3802 1af1 E8000000 		call	__cxa_end_catch@PLT
 3802      00
 3803 1af6 E904FDFF 		jmp	.L272
 3803      FF
 3804              	.L304:
 3805 1afb 4889C5   		movq	%rax, %rbp
 3806 1afe E8000000 		call	__cxa_end_catch@PLT
 3806      00
 3807 1b03 E9F7FCFF 		jmp	.L272
 3807      FF
 3808              	.L302:
 3809 1b08 4889C5   		movq	%rax, %rbp
 3810 1b0b E8000000 		call	__cxa_end_catch@PLT
 3810      00
 3811 1b10 E9EAFCFF 		jmp	.L272
 3811      FF
 3812              	.L299:
 3813 1b15 4889C7   		movq	%rax, %rdi
 3814 1b18 E8000000 		call	__cxa_begin_catch@PLT
 3814      00
 3815              	.LEHB141:
 3816 1b1d E8000000 		call	_ZN8UnitTest11CurrentTest7ResultsEv@PLT
 3816      00
 3817 1b22 4C8B20   		movq	(%rax), %r12
 3818 1b25 E8000000 		call	_ZN8UnitTest11CurrentTest7DetailsEv@PLT
 3818      00
 3819 1b2a 488D6C24 		leaq	80(%rsp), %rbp
 3819      50
 3820 1b2f 488B30   		movq	(%rax), %rsi
 3821 1b32 BA3F0000 		movl	$63, %edx
 3821      00
 3822 1b37 4889EF   		movq	%rbp, %rdi
 3823 1b3a E8000000 		call	_ZN8UnitTest11TestDetailsC1ERKS0_i@PLT
 3823      00
 3824 1b3f 488D1500 		leaq	.LC5(%rip), %rdx
 3824      000000
 3825 1b46 4889EE   		movq	%rbp, %rsi
 3826 1b49 4C89E7   		movq	%r12, %rdi
 3827 1b4c E8000000 		call	_ZN8UnitTest11TestResults13OnTestFailureERKNS_11TestDetailsEPKc@PLT
 3827      00
 3828              	.LEHE141:
 3829              	.LEHB142:
 3830 1b51 E8000000 		call	__cxa_end_catch@PLT
 3830      00
 3831              	.LEHE142:
 3832 1b56 E9FAF4FF 		jmp	.L270
 3832      FF
 3833              	.L319:
 3834 1b5b 4889C5   		movq	%rax, %rbp
 3835 1b5e E93AFEFF 		jmp	.L240
 3835      FF
 3836              	.L300:
 3837 1b63 4889C5   		movq	%rax, %rbp
 3838 1b66 E8000000 		call	__cxa_end_catch@PLT
 3838      00
 3839 1b6b E98FFCFF 		jmp	.L272
 3839      FF
 3840              	.L321:
 3841 1b70 488D7B10 		leaq	16(%rbx), %rdi
 3842 1b74 4889C5   		movq	%rax, %rbp
 3843 1b77 E8000000 		call	_ZNSt13basic_filebufIcSt11char_traitsIcEED1Ev@PLT
 3843      00
 3844 1b7c E9F5FDFF 		jmp	.L239
 3844      FF
 3845              	.L298:
 3846 1b81 4889C5   		movq	%rax, %rbp
 3847 1b84 E976FCFF 		jmp	.L272
 3847      FF
 3848              		.cfi_endproc
 3849              	.LFE1252:
 3850              		.section	.gcc_except_table
 3851 01c6 0000     		.align 4
 3852              	.LLSDA1252:
 3853 01c8 FF       		.byte	0xff
 3854 01c9 9B       		.byte	0x9b
 3855 01ca D002     		.uleb128 .LLSDATT1252-.LLSDATTD1252
 3856              	.LLSDATTD1252:
 3857 01cc 01       		.byte	0x1
 3858 01cd C602     		.uleb128 .LLSDACSE1252-.LLSDACSB1252
 3859              	.LLSDACSB1252:
 3860 01cf D601     		.uleb128 .LEHB88-.LFB1252
 3861 01d1 05       		.uleb128 .LEHE88-.LEHB88
 3862 01d2 EB18     		.uleb128 .L319-.LFB1252
 3863 01d4 00       		.uleb128 0
 3864 01d5 FA01     		.uleb128 .LEHB89-.LFB1252
 3865 01d7 05       		.uleb128 .LEHE89-.LEHB89
 3866 01d8 8315     		.uleb128 .L320-.LFB1252
 3867 01da 00       		.uleb128 0
 3868 01db 8A02     		.uleb128 .LEHB90-.LFB1252
 3869 01dd 05       		.uleb128 .LEHE90-.LEHB90
 3870 01de 8019     		.uleb128 .L321-.LFB1252
 3871 01e0 00       		.uleb128 0
 3872 01e1 A002     		.uleb128 .LEHB91-.LFB1252
 3873 01e3 05       		.uleb128 .LEHE91-.LEHB91
 3874 01e4 9119     		.uleb128 .L298-.LFB1252
 3875 01e6 00       		.uleb128 0
 3876 01e7 A902     		.uleb128 .LEHB92-.LFB1252
 3877 01e9 3C       		.uleb128 .LEHE92-.LEHB92
 3878 01ea A518     		.uleb128 .L299-.LFB1252
 3879 01ec 01       		.uleb128 0x1
 3880 01ed F602     		.uleb128 .LEHB93-.LFB1252
 3881 01ef 05       		.uleb128 .LEHE93-.LEHB93
 3882 01f0 9119     		.uleb128 .L298-.LFB1252
 3883 01f2 00       		.uleb128 0
 3884 01f3 FF02     		.uleb128 .LEHB94-.LFB1252
 3885 01f5 37       		.uleb128 .LEHE94-.LEHB94
 3886 01f6 BD17     		.uleb128 .L301-.LFB1252
 3887 01f8 01       		.uleb128 0x1
 3888 01f9 CA03     		.uleb128 .LEHB95-.LFB1252
 3889 01fb 05       		.uleb128 .LEHE95-.LEHB95
 3890 01fc 9119     		.uleb128 .L298-.LFB1252
 3891 01fe 00       		.uleb128 0
 3892 01ff D303     		.uleb128 .LEHB96-.LFB1252
 3893 0201 37       		.uleb128 .LEHE96-.LEHB96
 3894 0202 FC16     		.uleb128 .L303-.LFB1252
 3895 0204 01       		.uleb128 0x1
 3896 0205 9A04     		.uleb128 .LEHB97-.LFB1252
 3897 0207 24       		.uleb128 .LEHE97-.LEHB97
 3898 0208 9119     		.uleb128 .L298-.LFB1252
 3899 020a 00       		.uleb128 0
 3900 020b CB04     		.uleb128 .LEHB98-.LFB1252
 3901 020d 2F       		.uleb128 .LEHE98-.LEHB98
 3902 020e BB16     		.uleb128 .L305-.LFB1252
 3903 0210 01       		.uleb128 0x1
 3904 0211 FD04     		.uleb128 .LEHB99-.LFB1252
 3905 0213 05       		.uleb128 .LEHE99-.LEHB99
 3906 0214 9119     		.uleb128 .L298-.LFB1252
 3907 0216 00       		.uleb128 0
 3908 0217 8505     		.uleb128 .LEHB100-.LFB1252
 3909 0219 3D       		.uleb128 .LEHE100-.LEHB100
 3910 021a 8511     		.uleb128 .L307-.LFB1252
 3911 021c 01       		.uleb128 0x1
 3912 021d C505     		.uleb128 .LEHB101-.LFB1252
 3913 021f 2F       		.uleb128 .LEHE101-.LEHB101
 3914 0220 9119     		.uleb128 .L298-.LFB1252
 3915 0222 00       		.uleb128 0
 3916 0223 FD05     		.uleb128 .LEHB102-.LFB1252
 3917 0225 32       		.uleb128 .LEHE102-.LEHB102
 3918 0226 E713     		.uleb128 .L309-.LFB1252
 3919 0228 01       		.uleb128 0x1
 3920 0229 C606     		.uleb128 .LEHB103-.LFB1252
 3921 022b 05       		.uleb128 .LEHE103-.LEHB103
 3922 022c 9119     		.uleb128 .L298-.LFB1252
 3923 022e 00       		.uleb128 0
 3924 022f CF06     		.uleb128 .LEHB104-.LFB1252
 3925 0231 37       		.uleb128 .LEHE104-.LEHB104
 3926 0232 A613     		.uleb128 .L311-.LFB1252
 3927 0234 01       		.uleb128 0x1
 3928 0235 9607     		.uleb128 .LEHB105-.LFB1252
 3929 0237 24       		.uleb128 .LEHE105-.LEHB105
 3930 0238 9119     		.uleb128 .L298-.LFB1252
 3931 023a 00       		.uleb128 0
 3932 023b C707     		.uleb128 .LEHB106-.LFB1252
 3933 023d 2F       		.uleb128 .LEHE106-.LEHB106
 3934 023e C214     		.uleb128 .L313-.LFB1252
 3935 0240 01       		.uleb128 0x1
 3936 0241 F907     		.uleb128 .LEHB107-.LFB1252
 3937 0243 05       		.uleb128 .LEHE107-.LEHB107
 3938 0244 9119     		.uleb128 .L298-.LFB1252
 3939 0246 00       		.uleb128 0
 3940 0247 8108     		.uleb128 .LEHB108-.LFB1252
 3941 0249 1A       		.uleb128 .LEHE108-.LEHB108
 3942 024a C410     		.uleb128 .L315-.LFB1252
 3943 024c 01       		.uleb128 0x1
 3944 024d B409     		.uleb128 .LEHB109-.LFB1252
 3945 024f 05       		.uleb128 .LEHE109-.LEHB109
 3946 0250 B916     		.uleb128 .L323-.LFB1252
 3947 0252 01       		.uleb128 0x1
 3948 0253 CC0A     		.uleb128 .LEHB110-.LFB1252
 3949 0255 05       		.uleb128 .LEHE110-.LEHB110
 3950 0256 F215     		.uleb128 .L324-.LFB1252
 3951 0258 01       		.uleb128 0x1
 3952 0259 9C0B     		.uleb128 .LEHB111-.LFB1252
 3953 025b 4F       		.uleb128 .LEHE111-.LEHB111
 3954 025c DD15     		.uleb128 .L322-.LFB1252
 3955 025e 01       		.uleb128 0x1
 3956 025f 900D     		.uleb128 .LEHB112-.LFB1252
 3957 0261 05       		.uleb128 .LEHE112-.LEHB112
 3958 0262 C410     		.uleb128 .L315-.LFB1252
 3959 0264 01       		.uleb128 0x1
 3960 0265 9C0D     		.uleb128 .LEHB113-.LFB1252
 3961 0267 1E       		.uleb128 .LEHE113-.LEHB113
 3962 0268 9119     		.uleb128 .L298-.LFB1252
 3963 026a 00       		.uleb128 0
 3964 026b C30D     		.uleb128 .LEHB114-.LFB1252
 3965 026d 3E       		.uleb128 .LEHE114-.LEHB114
 3966 026e C611     		.uleb128 .L317-.LFB1252
 3967 0270 01       		.uleb128 0x1
 3968 0271 930E     		.uleb128 .LEHB115-.LFB1252
 3969 0273 05       		.uleb128 .LEHE115-.LEHB115
 3970 0274 9119     		.uleb128 .L298-.LFB1252
 3971 0276 00       		.uleb128 0
 3972 0277 C60E     		.uleb128 .LEHB116-.LFB1252
 3973 0279 05       		.uleb128 .LEHE116-.LEHB116
 3974 027a 9813     		.uleb128 .L326-.LFB1252
 3975 027c 00       		.uleb128 0
 3976 027d CF0E     		.uleb128 .LEHB117-.LFB1252
 3977 027f 05       		.uleb128 .LEHE117-.LEHB117
 3978 0280 B312     		.uleb128 .L325-.LFB1252
 3979 0282 00       		.uleb128 0
 3980 0283 A90F     		.uleb128 .LEHB118-.LFB1252
 3981 0285 05       		.uleb128 .LEHE118-.LEHB118
 3982 0286 00       		.uleb128 0
 3983 0287 00       		.uleb128 0
 3984 0288 DE0F     		.uleb128 .LEHB119-.LFB1252
 3985 028a 5C       		.uleb128 .LEHE119-.LEHB119
 3986 028b 9119     		.uleb128 .L298-.LFB1252
 3987 028d 00       		.uleb128 0
 3988 028e CC10     		.uleb128 .LEHB120-.LFB1252
 3989 0290 2F       		.uleb128 .LEHE120-.LEHB120
 3990 0291 8712     		.uleb128 .L316-.LFB1252
 3991 0293 00       		.uleb128 0
 3992 0294 FB10     		.uleb128 .LEHB121-.LFB1252
 3993 0296 05       		.uleb128 .LEHE121-.LEHB121
 3994 0297 9119     		.uleb128 .L298-.LFB1252
 3995 0299 00       		.uleb128 0
 3996 029a 8D11     		.uleb128 .LEHB122-.LFB1252
 3997 029c 2F       		.uleb128 .LEHE122-.LEHB122
 3998 029d 9F12     		.uleb128 .L308-.LFB1252
 3999 029f 00       		.uleb128 0
 4000 02a0 BC11     		.uleb128 .LEHB123-.LFB1252
 4001 02a2 05       		.uleb128 .LEHE123-.LEHB123
 4002 02a3 9119     		.uleb128 .L298-.LFB1252
 4003 02a5 00       		.uleb128 0
 4004 02a6 CE11     		.uleb128 .LEHB124-.LFB1252
 4005 02a8 2F       		.uleb128 .LEHE124-.LEHB124
 4006 02a9 A912     		.uleb128 .L318-.LFB1252
 4007 02ab 00       		.uleb128 0
 4008 02ac FD11     		.uleb128 .LEHB125-.LFB1252
 4009 02ae 05       		.uleb128 .LEHE125-.LEHB125
 4010 02af 9119     		.uleb128 .L298-.LFB1252
 4011 02b1 00       		.uleb128 0
 4012 02b2 9A12     		.uleb128 .LEHB126-.LFB1252
 4013 02b4 05       		.uleb128 .LEHE126-.LEHB126
 4014 02b5 00       		.uleb128 0
 4015 02b6 00       		.uleb128 0
 4016 02b7 9313     		.uleb128 .LEHB127-.LFB1252
 4017 02b9 05       		.uleb128 .LEHE127-.LEHB127
 4018 02ba 00       		.uleb128 0
 4019 02bb 00       		.uleb128 0
 4020 02bc AE13     		.uleb128 .LEHB128-.LFB1252
 4021 02be 2F       		.uleb128 .LEHE128-.LEHB128
 4022 02bf A814     		.uleb128 .L312-.LFB1252
 4023 02c1 00       		.uleb128 0
 4024 02c2 DD13     		.uleb128 .LEHB129-.LFB1252
 4025 02c4 05       		.uleb128 .LEHE129-.LEHB129
 4026 02c5 9119     		.uleb128 .L298-.LFB1252
 4027 02c7 00       		.uleb128 0
 4028 02c8 EF13     		.uleb128 .LEHB130-.LFB1252
 4029 02ca 2F       		.uleb128 .LEHE130-.LEHB130
 4030 02cb B514     		.uleb128 .L310-.LFB1252
 4031 02cd 00       		.uleb128 0
 4032 02ce 9E14     		.uleb128 .LEHB131-.LFB1252
 4033 02d0 05       		.uleb128 .LEHE131-.LEHB131
 4034 02d1 9119     		.uleb128 .L298-.LFB1252
 4035 02d3 00       		.uleb128 0
 4036 02d4 CA14     		.uleb128 .LEHB132-.LFB1252
 4037 02d6 2F       		.uleb128 .LEHE132-.LEHB132
 4038 02d7 D015     		.uleb128 .L314-.LFB1252
 4039 02d9 00       		.uleb128 0
 4040 02da F914     		.uleb128 .LEHB133-.LFB1252
 4041 02dc 05       		.uleb128 .LEHE133-.LEHB133
 4042 02dd 9119     		.uleb128 .L298-.LFB1252
 4043 02df 00       		.uleb128 0
 4044 02e0 CB15     		.uleb128 .LEHB134-.LFB1252
 4045 02e2 05       		.uleb128 .LEHE134-.LEHB134
 4046 02e3 00       		.uleb128 0
 4047 02e4 00       		.uleb128 0
 4048 02e5 C316     		.uleb128 .LEHB135-.LFB1252
 4049 02e7 2F       		.uleb128 .LEHE135-.LEHB135
 4050 02e8 FE17     		.uleb128 .L306-.LFB1252
 4051 02ea 00       		.uleb128 0
 4052 02eb F216     		.uleb128 .LEHB136-.LFB1252
 4053 02ed 05       		.uleb128 .LEHE136-.LEHB136
 4054 02ee 9119     		.uleb128 .L298-.LFB1252
 4055 02f0 00       		.uleb128 0
 4056 02f1 8417     		.uleb128 .LEHB137-.LFB1252
 4057 02f3 2F       		.uleb128 .LEHE137-.LEHB137
 4058 02f4 8B18     		.uleb128 .L304-.LFB1252
 4059 02f6 00       		.uleb128 0
 4060 02f7 B317     		.uleb128 .LEHB138-.LFB1252
 4061 02f9 05       		.uleb128 .LEHE138-.LEHB138
 4062 02fa 9119     		.uleb128 .L298-.LFB1252
 4063 02fc 00       		.uleb128 0
 4064 02fd C517     		.uleb128 .LEHB139-.LFB1252
 4065 02ff 2F       		.uleb128 .LEHE139-.LEHB139
 4066 0300 9818     		.uleb128 .L302-.LFB1252
 4067 0302 00       		.uleb128 0
 4068 0303 F417     		.uleb128 .LEHB140-.LFB1252
 4069 0305 05       		.uleb128 .LEHE140-.LEHB140
 4070 0306 9119     		.uleb128 .L298-.LFB1252
 4071 0308 00       		.uleb128 0
 4072 0309 AD18     		.uleb128 .LEHB141-.LFB1252
 4073 030b 34       		.uleb128 .LEHE141-.LEHB141
 4074 030c F318     		.uleb128 .L300-.LFB1252
 4075 030e 00       		.uleb128 0
 4076 030f E118     		.uleb128 .LEHB142-.LFB1252
 4077 0311 05       		.uleb128 .LEHE142-.LEHB142
 4078 0312 9119     		.uleb128 .L298-.LFB1252
 4079 0314 00       		.uleb128 0
 4080              	.LLSDACSE1252:
 4081 0315 01       		.byte	0x1
 4082 0316 00       		.byte	0
 4083 0317 00       		.align 4
 4084 0318 00000000 		.long	0
 4085              	
 4086              	.LLSDATT1252:
 4087              		.text
 4089              		.section	.rodata.str1.1
 4090              	.LC24:
 4091 0043 74657374 		.string	"testBinIO.cpp"
 4091      42696E49 
 4091      4F2E6370 
 4091      7000
 4092              	.LC25:
 4093 0051 44656661 		.string	"DefaultSuite"
 4093      756C7453 
 4093      75697465 
 4093      00
 4094              	.LC26:
 4095 005e 42696E49 		.string	"BinIO_testReadNonExistentFile"
 4095      4F5F7465 
 4095      73745265 
 4095      61644E6F 
 4095      6E457869 
 4096              	.LC27:
 4097 007c 42696E49 		.string	"BinIO_testReadExistingFile"
 4097      4F5F7465 
 4097      73745265 
 4097      61644578 
 4097      69737469 
 4098              	.LC28:
 4099 0097 42696E49 		.string	"BinIO_testWriteFile"
 4099      4F5F7465 
 4099      73745772 
 4099      69746546 
 4099      696C6500 
 4100              		.section	.text.startup,"ax",@progbits
 4101              		.p2align 4,,15
 4103              	_GLOBAL__sub_I_testBinIO_testReadNonExistentFileInstance:
 4104              	.LFB1391:
 4105              		.cfi_startproc
 4106 0000 53       		pushq	%rbx
 4107              		.cfi_def_cfa_offset 16
 4108              		.cfi_offset 3, -16
 4109 0001 488D0D00 		leaq	.LC24(%rip), %rcx
 4109      000000
 4110 0008 488D1500 		leaq	.LC25(%rip), %rdx
 4110      000000
 4111 000f 488D3500 		leaq	.LC26(%rip), %rsi
 4111      000000
 4112 0016 488D3D00 		leaq	testBinIO_testReadNonExistentFileInstance(%rip), %rdi
 4112      000000
 4113 001d 41B81800 		movl	$24, %r8d
 4113      0000
 4114 0023 488D1D00 		leaq	testBinIO_testReadNonExistentFileInstance(%rip), %rbx
 4114      000000
 4115 002a E8000000 		call	_ZN8UnitTest4TestC2EPKcS2_S2_i@PLT
 4115      00
 4116 002f 488D1500 		leaq	__dso_handle(%rip), %rdx
 4116      000000
 4117 0036 488D3D00 		leaq	_ZN33TestBinIO_testReadNonExistentFileD1Ev(%rip), %rdi
 4117      000000
 4118 003d 488D0500 		leaq	16+_ZTV33TestBinIO_testReadNonExistentFile(%rip), %rax
 4118      000000
 4119 0044 4889DE   		movq	%rbx, %rsi
 4120 0047 48890500 		movq	%rax, testBinIO_testReadNonExistentFileInstance(%rip)
 4120      000000
 4121 004e E8000000 		call	__cxa_atexit@PLT
 4121      00
 4122 0053 E8000000 		call	_ZN8UnitTest4Test11GetTestListEv@PLT
 4122      00
 4123 0058 488D3D00 		leaq	adderBinIO_testReadNonExistentFile(%rip), %rdi
 4123      000000
 4124 005f 4889C6   		movq	%rax, %rsi
 4125 0062 4889DA   		movq	%rbx, %rdx
 4126 0065 488D1D00 		leaq	testBinIO_testReadExistingFileInstance(%rip), %rbx
 4126      000000
 4127 006c E8000000 		call	_ZN8UnitTest9ListAdderC1ERNS_8TestListEPNS_4TestE@PLT
 4127      00
 4128 0071 488D0D00 		leaq	.LC24(%rip), %rcx
 4128      000000
 4129 0078 488D1500 		leaq	.LC25(%rip), %rdx
 4129      000000
 4130 007f 488D3500 		leaq	.LC27(%rip), %rsi
 4130      000000
 4131 0086 488D3D00 		leaq	testBinIO_testReadExistingFileInstance(%rip), %rdi
 4131      000000
 4132 008d 41B82100 		movl	$33, %r8d
 4132      0000
 4133 0093 E8000000 		call	_ZN8UnitTest4TestC2EPKcS2_S2_i@PLT
 4133      00
 4134 0098 488D1500 		leaq	__dso_handle(%rip), %rdx
 4134      000000
 4135 009f 488D3D00 		leaq	_ZN30TestBinIO_testReadExistingFileD1Ev(%rip), %rdi
 4135      000000
 4136 00a6 488D0500 		leaq	16+_ZTV30TestBinIO_testReadExistingFile(%rip), %rax
 4136      000000
 4137 00ad 4889DE   		movq	%rbx, %rsi
 4138 00b0 48890500 		movq	%rax, testBinIO_testReadExistingFileInstance(%rip)
 4138      000000
 4139 00b7 E8000000 		call	__cxa_atexit@PLT
 4139      00
 4140 00bc E8000000 		call	_ZN8UnitTest4Test11GetTestListEv@PLT
 4140      00
 4141 00c1 488D3D00 		leaq	adderBinIO_testReadExistingFile(%rip), %rdi
 4141      000000
 4142 00c8 4889C6   		movq	%rax, %rsi
 4143 00cb 4889DA   		movq	%rbx, %rdx
 4144 00ce 488D1D00 		leaq	testBinIO_testWriteFileInstance(%rip), %rbx
 4144      000000
 4145 00d5 E8000000 		call	_ZN8UnitTest9ListAdderC1ERNS_8TestListEPNS_4TestE@PLT
 4145      00
 4146 00da 488D0D00 		leaq	.LC24(%rip), %rcx
 4146      000000
 4147 00e1 488D1500 		leaq	.LC25(%rip), %rdx
 4147      000000
 4148 00e8 488D3500 		leaq	.LC28(%rip), %rsi
 4148      000000
 4149 00ef 488D3D00 		leaq	testBinIO_testWriteFileInstance(%rip), %rdi
 4149      000000
 4150 00f6 41B83600 		movl	$54, %r8d
 4150      0000
 4151 00fc E8000000 		call	_ZN8UnitTest4TestC2EPKcS2_S2_i@PLT
 4151      00
 4152 0101 488D1500 		leaq	__dso_handle(%rip), %rdx
 4152      000000
 4153 0108 488D3D00 		leaq	_ZN23TestBinIO_testWriteFileD1Ev(%rip), %rdi
 4153      000000
 4154 010f 488D0500 		leaq	16+_ZTV23TestBinIO_testWriteFile(%rip), %rax
 4154      000000
 4155 0116 4889DE   		movq	%rbx, %rsi
 4156 0119 48890500 		movq	%rax, testBinIO_testWriteFileInstance(%rip)
 4156      000000
 4157 0120 E8000000 		call	__cxa_atexit@PLT
 4157      00
 4158 0125 E8000000 		call	_ZN8UnitTest4Test11GetTestListEv@PLT
 4158      00
 4159 012a 4889DA   		movq	%rbx, %rdx
 4160 012d 488D3D00 		leaq	adderBinIO_testWriteFile(%rip), %rdi
 4160      000000
 4161 0134 4889C6   		movq	%rax, %rsi
 4162 0137 5B       		popq	%rbx
 4163              		.cfi_def_cfa_offset 8
 4164 0138 E9000000 		jmp	_ZN8UnitTest9ListAdderC1ERNS_8TestListEPNS_4TestE@PLT
 4164      00
 4165              		.cfi_endproc
 4166              	.LFE1391:
 4168              		.section	.init_array,"aw"
 4169              		.align 8
 4170 0000 00000000 		.quad	_GLOBAL__sub_I_testBinIO_testReadNonExistentFileInstance
 4170      00000000 
 4171              		.weak	_ZTSN8UnitTest15MemoryOutStreamE
 4172              		.section	.rodata._ZTSN8UnitTest15MemoryOutStreamE,"aG",@progbits,_ZTSN8UnitTest15MemoryOutStreamE,
 4173              		.align 16
 4176              	_ZTSN8UnitTest15MemoryOutStreamE:
 4177 0000 4E38556E 		.string	"N8UnitTest15MemoryOutStreamE"
 4177      69745465 
 4177      73743135 
 4177      4D656D6F 
 4177      72794F75 
 4178              		.weak	_ZTIN8UnitTest15MemoryOutStreamE
 4179              		.section	.data.rel.ro._ZTIN8UnitTest15MemoryOutStreamE,"awG",@progbits,_ZTIN8UnitTest15MemoryOutSt
 4180              		.align 8
 4183              	_ZTIN8UnitTest15MemoryOutStreamE:
 4184 0000 00000000 		.quad	_ZTVN10__cxxabiv120__si_class_type_infoE+16
 4184      00000000 
 4185 0008 00000000 		.quad	_ZTSN8UnitTest15MemoryOutStreamE
 4185      00000000 
 4186 0010 00000000 		.quad	_ZTINSt7__cxx1119basic_ostringstreamIcSt11char_traitsIcESaIcEEE
 4186      00000000 
 4187              		.weak	_ZTS33TestBinIO_testReadNonExistentFile
 4188              		.section	.rodata._ZTS33TestBinIO_testReadNonExistentFile,"aG",@progbits,_ZTS33TestBinIO_testReadNo
 4189              		.align 32
 4192              	_ZTS33TestBinIO_testReadNonExistentFile:
 4193 0000 33335465 		.string	"33TestBinIO_testReadNonExistentFile"
 4193      73744269 
 4193      6E494F5F 
 4193      74657374 
 4193      52656164 
 4194              		.weak	_ZTI33TestBinIO_testReadNonExistentFile
 4195              		.section	.data.rel.ro._ZTI33TestBinIO_testReadNonExistentFile,"awG",@progbits,_ZTI33TestBinIO_test
 4196              		.align 8
 4199              	_ZTI33TestBinIO_testReadNonExistentFile:
 4200 0000 00000000 		.quad	_ZTVN10__cxxabiv120__si_class_type_infoE+16
 4200      00000000 
 4201 0008 00000000 		.quad	_ZTS33TestBinIO_testReadNonExistentFile
 4201      00000000 
 4202 0010 00000000 		.quad	_ZTIN8UnitTest4TestE
 4202      00000000 
 4203              		.weak	_ZTS30TestBinIO_testReadExistingFile
 4204              		.section	.rodata._ZTS30TestBinIO_testReadExistingFile,"aG",@progbits,_ZTS30TestBinIO_testReadExist
 4205              		.align 32
 4208              	_ZTS30TestBinIO_testReadExistingFile:
 4209 0000 33305465 		.string	"30TestBinIO_testReadExistingFile"
 4209      73744269 
 4209      6E494F5F 
 4209      74657374 
 4209      52656164 
 4210              		.weak	_ZTI30TestBinIO_testReadExistingFile
 4211              		.section	.data.rel.ro._ZTI30TestBinIO_testReadExistingFile,"awG",@progbits,_ZTI30TestBinIO_testRea
 4212              		.align 8
 4215              	_ZTI30TestBinIO_testReadExistingFile:
 4216 0000 00000000 		.quad	_ZTVN10__cxxabiv120__si_class_type_infoE+16
 4216      00000000 
 4217 0008 00000000 		.quad	_ZTS30TestBinIO_testReadExistingFile
 4217      00000000 
 4218 0010 00000000 		.quad	_ZTIN8UnitTest4TestE
 4218      00000000 
 4219              		.weak	_ZTS23TestBinIO_testWriteFile
 4220              		.section	.rodata._ZTS23TestBinIO_testWriteFile,"aG",@progbits,_ZTS23TestBinIO_testWriteFile,comdat
 4221              		.align 16
 4224              	_ZTS23TestBinIO_testWriteFile:
 4225 0000 32335465 		.string	"23TestBinIO_testWriteFile"
 4225      73744269 
 4225      6E494F5F 
 4225      74657374 
 4225      57726974 
 4226              		.weak	_ZTI23TestBinIO_testWriteFile
 4227              		.section	.data.rel.ro._ZTI23TestBinIO_testWriteFile,"awG",@progbits,_ZTI23TestBinIO_testWriteFile,
 4228              		.align 8
 4231              	_ZTI23TestBinIO_testWriteFile:
 4232 0000 00000000 		.quad	_ZTVN10__cxxabiv120__si_class_type_infoE+16
 4232      00000000 
 4233 0008 00000000 		.quad	_ZTS23TestBinIO_testWriteFile
 4233      00000000 
 4234 0010 00000000 		.quad	_ZTIN8UnitTest4TestE
 4234      00000000 
 4235              		.hidden	_ZTCN8UnitTest15MemoryOutStreamE0_So
 4236              		.weak	_ZTCN8UnitTest15MemoryOutStreamE0_So
 4237              		.section	.data.rel.ro._ZTCN8UnitTest15MemoryOutStreamE0_So,"awG",@progbits,_ZTVN8UnitTest15MemoryO
 4238              		.align 8
 4241              	_ZTCN8UnitTest15MemoryOutStreamE0_So:
 4242 0000 90000000 		.quad	144
 4242      00000000 
 4243 0008 00000000 		.quad	0
 4243      00000000 
 4244 0010 00000000 		.quad	_ZTISo
 4244      00000000 
 4245 0018 00000000 		.quad	0
 4245      00000000 
 4246 0020 00000000 		.quad	0
 4246      00000000 
 4247 0028 70FFFFFF 		.quad	-144
 4247      FFFFFFFF 
 4248 0030 70FFFFFF 		.quad	-144
 4248      FFFFFFFF 
 4249 0038 00000000 		.quad	_ZTISo
 4249      00000000 
 4250 0040 00000000 		.quad	0
 4250      00000000 
 4251 0048 00000000 		.quad	0
 4251      00000000 
 4252              		.hidden	_ZTCN8UnitTest15MemoryOutStreamE0_NSt7__cxx1119basic_ostringstreamIcSt11char_traitsIcESaIc
 4253              		.weak	_ZTCN8UnitTest15MemoryOutStreamE0_NSt7__cxx1119basic_ostringstreamIcSt11char_traitsIcESaIcEE
 4254              		.section	.data.rel.ro._ZTCN8UnitTest15MemoryOutStreamE0_NSt7__cxx1119basic_ostringstreamIcSt11char
 4255              		.align 8
 4258              	_ZTCN8UnitTest15MemoryOutStreamE0_NSt7__cxx1119basic_ostringstreamIcSt11char_traitsIcESaIcEEE:
 4259 0000 90000000 		.quad	144
 4259      00000000 
 4260 0008 00000000 		.quad	0
 4260      00000000 
 4261 0010 00000000 		.quad	_ZTINSt7__cxx1119basic_ostringstreamIcSt11char_traitsIcESaIcEEE
 4261      00000000 
 4262 0018 00000000 		.quad	0
 4262      00000000 
 4263 0020 00000000 		.quad	0
 4263      00000000 
 4264 0028 70FFFFFF 		.quad	-144
 4264      FFFFFFFF 
 4265 0030 70FFFFFF 		.quad	-144
 4265      FFFFFFFF 
 4266 0038 00000000 		.quad	_ZTINSt7__cxx1119basic_ostringstreamIcSt11char_traitsIcESaIcEEE
 4266      00000000 
 4267 0040 00000000 		.quad	0
 4267      00000000 
 4268 0048 00000000 		.quad	0
 4268      00000000 
 4269              		.weak	_ZTTN8UnitTest15MemoryOutStreamE
 4270              		.section	.data.rel.ro.local._ZTTN8UnitTest15MemoryOutStreamE,"awG",@progbits,_ZTVN8UnitTest15Memor
 4271              		.align 8
 4274              	_ZTTN8UnitTest15MemoryOutStreamE:
 4275 0000 00000000 		.quad	_ZTVN8UnitTest15MemoryOutStreamE+24
 4275      00000000 
 4276 0008 00000000 		.quad	_ZTCN8UnitTest15MemoryOutStreamE0_NSt7__cxx1119basic_ostringstreamIcSt11char_traitsIcESaIcEE
 4276      00000000 
 4277 0010 00000000 		.quad	_ZTCN8UnitTest15MemoryOutStreamE0_So+24
 4277      00000000 
 4278 0018 00000000 		.quad	_ZTCN8UnitTest15MemoryOutStreamE0_So+64
 4278      00000000 
 4279 0020 00000000 		.quad	_ZTCN8UnitTest15MemoryOutStreamE0_NSt7__cxx1119basic_ostringstreamIcSt11char_traitsIcESaIcEE
 4279      00000000 
 4280 0028 00000000 		.quad	_ZTVN8UnitTest15MemoryOutStreamE+64
 4280      00000000 
 4281              		.weak	_ZTVN8UnitTest15MemoryOutStreamE
 4282              		.section	.data.rel.ro.local._ZTVN8UnitTest15MemoryOutStreamE,"awG",@progbits,_ZTVN8UnitTest15Memor
 4283              		.align 8
 4286              	_ZTVN8UnitTest15MemoryOutStreamE:
 4287 0000 90000000 		.quad	144
 4287      00000000 
 4288 0008 00000000 		.quad	0
 4288      00000000 
 4289 0010 00000000 		.quad	_ZTIN8UnitTest15MemoryOutStreamE
 4289      00000000 
 4290 0018 00000000 		.quad	_ZN8UnitTest15MemoryOutStreamD1Ev
 4290      00000000 
 4291 0020 00000000 		.quad	_ZN8UnitTest15MemoryOutStreamD0Ev
 4291      00000000 
 4292 0028 70FFFFFF 		.quad	-144
 4292      FFFFFFFF 
 4293 0030 70FFFFFF 		.quad	-144
 4293      FFFFFFFF 
 4294 0038 00000000 		.quad	_ZTIN8UnitTest15MemoryOutStreamE
 4294      00000000 
 4295 0040 00000000 		.quad	_ZTv0_n24_N8UnitTest15MemoryOutStreamD1Ev
 4295      00000000 
 4296 0048 00000000 		.quad	_ZTv0_n24_N8UnitTest15MemoryOutStreamD0Ev
 4296      00000000 
 4297              		.weak	_ZTV33TestBinIO_testReadNonExistentFile
 4298              		.section	.data.rel.ro.local._ZTV33TestBinIO_testReadNonExistentFile,"awG",@progbits,_ZTV33TestBinI
 4299              		.align 8
 4302              	_ZTV33TestBinIO_testReadNonExistentFile:
 4303 0000 00000000 		.quad	0
 4303      00000000 
 4304 0008 00000000 		.quad	_ZTI33TestBinIO_testReadNonExistentFile
 4304      00000000 
 4305 0010 00000000 		.quad	_ZN33TestBinIO_testReadNonExistentFileD1Ev
 4305      00000000 
 4306 0018 00000000 		.quad	_ZN33TestBinIO_testReadNonExistentFileD0Ev
 4306      00000000 
 4307 0020 00000000 		.quad	_ZNK33TestBinIO_testReadNonExistentFile7RunImplEv
 4307      00000000 
 4308              		.weak	_ZTV30TestBinIO_testReadExistingFile
 4309              		.section	.data.rel.ro.local._ZTV30TestBinIO_testReadExistingFile,"awG",@progbits,_ZTV30TestBinIO_t
 4310              		.align 8
 4313              	_ZTV30TestBinIO_testReadExistingFile:
 4314 0000 00000000 		.quad	0
 4314      00000000 
 4315 0008 00000000 		.quad	_ZTI30TestBinIO_testReadExistingFile
 4315      00000000 
 4316 0010 00000000 		.quad	_ZN30TestBinIO_testReadExistingFileD1Ev
 4316      00000000 
 4317 0018 00000000 		.quad	_ZN30TestBinIO_testReadExistingFileD0Ev
 4317      00000000 
 4318 0020 00000000 		.quad	_ZNK30TestBinIO_testReadExistingFile7RunImplEv
 4318      00000000 
 4319              		.weak	_ZTV23TestBinIO_testWriteFile
 4320              		.section	.data.rel.ro.local._ZTV23TestBinIO_testWriteFile,"awG",@progbits,_ZTV23TestBinIO_testWrit
 4321              		.align 8
 4324              	_ZTV23TestBinIO_testWriteFile:
 4325 0000 00000000 		.quad	0
 4325      00000000 
 4326 0008 00000000 		.quad	_ZTI23TestBinIO_testWriteFile
 4326      00000000 
 4327 0010 00000000 		.quad	_ZN23TestBinIO_testWriteFileD1Ev
 4327      00000000 
 4328 0018 00000000 		.quad	_ZN23TestBinIO_testWriteFileD0Ev
 4328      00000000 
 4329 0020 00000000 		.quad	_ZNK23TestBinIO_testWriteFile7RunImplEv
 4329      00000000 
 4330              		.globl	adderBinIO_testWriteFile
 4331              		.bss
 4334              	adderBinIO_testWriteFile:
 4335 0000 00       		.zero	1
 4336              		.globl	testBinIO_testWriteFileInstance
 4337 0001 00000000 		.align 32
 4337      00000000 
 4337      00000000 
 4337      00000000 
 4337      00000000 
 4340              	testBinIO_testWriteFileInstance:
 4341 0020 00000000 		.zero	56
 4341      00000000 
 4341      00000000 
 4341      00000000 
 4341      00000000 
 4342              		.globl	adderBinIO_testReadExistingFile
 4345              	adderBinIO_testReadExistingFile:
 4346 0058 00       		.zero	1
 4347              		.globl	testBinIO_testReadExistingFileInstance
 4348 0059 00000000 		.align 32
 4348      000000
 4351              	testBinIO_testReadExistingFileInstance:
 4352 0060 00000000 		.zero	56
 4352      00000000 
 4352      00000000 
 4352      00000000 
 4352      00000000 
 4353              		.globl	adderBinIO_testReadNonExistentFile
 4356              	adderBinIO_testReadNonExistentFile:
 4357 0098 00       		.zero	1
 4358              		.globl	testBinIO_testReadNonExistentFileInstance
 4359 0099 00000000 		.align 32
 4359      000000
 4362              	testBinIO_testReadNonExistentFileInstance:
 4363 00a0 00000000 		.zero	56
 4363      00000000 
 4363      00000000 
 4363      00000000 
 4363      00000000 
 4364              		.section	.data.rel.ro.local,"aw",@progbits
 4365              		.align 8
 4366              	.LC2:
 4367 0000 00000000 		.quad	_ZTCN8UnitTest15MemoryOutStreamE0_NSt7__cxx1119basic_ostringstreamIcSt11char_traitsIcESaIcEE
 4367      00000000 
 4368              		.section	.data.rel.ro,"aw",@progbits
 4369              		.align 8
 4370              	.LC3:
 4371 0000 00000000 		.quad	_ZTVNSt7__cxx1115basic_stringbufIcSt11char_traitsIcESaIcEEE+16
 4371      00000000 
 4372              		.align 8
 4373              	.LC17:
 4374 0008 00000000 		.quad	_ZTVSt14basic_ofstreamIcSt11char_traitsIcEE+24
 4374      00000000 
 4375              		.hidden	DW.ref.__gxx_personality_v0
 4376              		.weak	DW.ref.__gxx_personality_v0
 4377              		.section	.data.DW.ref.__gxx_personality_v0,"awG",@progbits,DW.ref.__gxx_personality_v0,comdat
 4378              		.align 8
 4381              	DW.ref.__gxx_personality_v0:
 4382 0000 00000000 		.quad	__gxx_personality_v0
 4382      00000000 
 4383              		.hidden	__dso_handle
 4384              		.ident	"GCC: (Ubuntu 7.2.0-8ubuntu3.2) 7.2.0"
 4385              		.section	.note.GNU-stack,"",@progbits